 DemoGazeFollowWaveIdle_sfun

 Timestamp is 560af046 (Tue Sep 29 13:10:46 2015)

 Preferred load address is 10000000

 Start         Length     Name                   Class
 0001:00000000 0010ce24H .text                   CODE
 0002:00000000 000002c4H .idata$5                DATA
 0002:000002c4 00000004H .CRT$XCA                DATA
 0002:000002c8 00000004H .CRT$XCZ                DATA
 0002:000002cc 00000004H .CRT$XIA                DATA
 0002:000002d0 00000004H .CRT$XIAA               DATA
 0002:000002d4 00000004H .CRT$XIC                DATA
 0002:000002d8 00000004H .CRT$XIZ                DATA
 0002:000002e0 00000ab8H .rdata                  DATA
 0002:00000d98 00000004H .rtc$IAA                DATA
 0002:00000d9c 00000004H .rtc$IZZ                DATA
 0002:00000da0 00000004H .rtc$TAA                DATA
 0002:00000da4 00000004H .rtc$TZZ                DATA
 0002:00000da8 00000064H .xdata$x                DATA
 0002:00000e0c 0000008cH .idata$2                DATA
 0002:00000e98 00000014H .idata$3                DATA
 0002:00000eac 000002c4H .idata$4                DATA
 0002:00001170 00001020H .idata$6                DATA
 0002:00002190 00000061H .edata                  DATA
 0003:00000000 00050840H .data                   DATA
 0003:00050840 000005f0H .bss                    DATA

  Address         Publics by Value              Rva+Base       Lib:Object

 0000:00000000       __except_list              00000000     <absolute>
 0000:00000000       ___safe_se_handler_table   00000000     <absolute>
 0000:00000000       ___safe_se_handler_count   00000000     <absolute>
 0000:00009876       __fltused                  00009876     <absolute>
 0000:00009876       __ldused                   00009876     <absolute>
 0000:00000000       ___ImageBase               10000000     <linker-defined>
 0001:00000000       _DemoGazeFollowWaveIdle_initializer 10001000 f   DemoGazeFollowWaveIdle_sfun.obj
 0001:00000010       _DemoGazeFollowWaveIdle_terminator 10001010 f   DemoGazeFollowWaveIdle_sfun.obj
 0001:00000020       _sf_DemoGazeFollowWaveIdle_method_dispatcher 10001020 f   DemoGazeFollowWaveIdle_sfun.obj
 0001:00000190       _sf_DemoGazeFollowWaveIdle_process_check_sum_call 10001190 f   DemoGazeFollowWaveIdle_sfun.obj
 0001:00000620       _sf_DemoGazeFollowWaveIdle_autoinheritance_info 10001620 f   DemoGazeFollowWaveIdle_sfun.obj
 0001:000009b0       _sf_DemoGazeFollowWaveIdle_get_eml_resolved_functions_info 100019b0 f   DemoGazeFollowWaveIdle_sfun.obj
 0001:00000c90       _sf_DemoGazeFollowWaveIdle_third_party_uses_info 10001c90 f   DemoGazeFollowWaveIdle_sfun.obj
 0001:00000f80       _sf_DemoGazeFollowWaveIdle_updateBuildInfo_args_info 10001f80 f   DemoGazeFollowWaveIdle_sfun.obj
 0001:00001270       _DemoGazeFollowWaveIdle_debug_initialize 10002270 f   DemoGazeFollowWaveIdle_sfun.obj
 0001:000012d0       _DemoGazeFollowWaveIdle_register_exported_symbols 100022d0 f   DemoGazeFollowWaveIdle_sfun.obj
 0001:000012e0       _load_DemoGazeFollowWaveIdle_optimization_info 100022e0 f   DemoGazeFollowWaveIdle_sfun.obj
 0001:00001320       _unload_DemoGazeFollowWaveIdle_optimization_info 10002320 f   DemoGazeFollowWaveIdle_sfun.obj
 0001:00001350       _sf_c1_DemoGazeFollowWaveIdle_get_eml_resolved_functions_info 10002350 f   c1_DemoGazeFollowWaveIdle.obj
 0001:00001dd0       _sf_c1_DemoGazeFollowWaveIdle_get_check_sum 10002dd0 f   c1_DemoGazeFollowWaveIdle.obj
 0001:00001e30       _sf_c1_DemoGazeFollowWaveIdle_get_autoinheritance_info 10002e30 f   c1_DemoGazeFollowWaveIdle.obj
 0001:000074e0       _sf_c1_DemoGazeFollowWaveIdle_third_party_uses_info 100084e0 f   c1_DemoGazeFollowWaveIdle.obj
 0001:00007500       _sf_c1_DemoGazeFollowWaveIdle_updateBuildInfo_args_info 10008500 f   c1_DemoGazeFollowWaveIdle.obj
 0001:00007520       _sf_internal_get_sim_state_c1_DemoGazeFollowWaveIdle 10008520 f   c1_DemoGazeFollowWaveIdle.obj
 0001:0000bbc0       _sf_internal_set_sim_state_c1_DemoGazeFollowWaveIdle 1000cbc0 f   c1_DemoGazeFollowWaveIdle.obj
 0001:0000fe00       _c1_DemoGazeFollowWaveIdle_method_dispatcher 10010e00 f   c1_DemoGazeFollowWaveIdle.obj
 0001:00022d12       _sf_c2_DemoGazeFollowWaveIdle_get_eml_resolved_functions_info 10023d12 f   c2_DemoGazeFollowWaveIdle.obj
 0001:000231e4       _sf_c2_DemoGazeFollowWaveIdle_get_check_sum 100241e4 f   c2_DemoGazeFollowWaveIdle.obj
 0001:0002325b       _sf_c2_DemoGazeFollowWaveIdle_get_autoinheritance_info 1002425b f   c2_DemoGazeFollowWaveIdle.obj
 0001:000239fc       _sf_c2_DemoGazeFollowWaveIdle_third_party_uses_info 100249fc f   c2_DemoGazeFollowWaveIdle.obj
 0001:00023a16       _sf_c2_DemoGazeFollowWaveIdle_updateBuildInfo_args_info 10024a16 f   c2_DemoGazeFollowWaveIdle.obj
 0001:000242bf       _sf_internal_get_sim_state_c2_DemoGazeFollowWaveIdle 100252bf f   c2_DemoGazeFollowWaveIdle.obj
 0001:000243a6       _sf_internal_set_sim_state_c2_DemoGazeFollowWaveIdle 100253a6 f   c2_DemoGazeFollowWaveIdle.obj
 0001:00024bad       _c2_DemoGazeFollowWaveIdle_method_dispatcher 10025bad f   c2_DemoGazeFollowWaveIdle.obj
 0001:00024c10       _sf_c4_DemoGazeFollowWaveIdle_get_eml_resolved_functions_info 10025c10 f   c4_DemoGazeFollowWaveIdle.obj
 0001:000298a0       _sf_exported_auto_activate_c4_DemoGazeFollowWaveIdle_secs 1002a8a0 f   c4_DemoGazeFollowWaveIdle.obj
 0001:00029930       _sf_exported_auto_incrementTemporalCounter_c4_DemoGazeFollowWaveIdle_secs 1002a930 f   c4_DemoGazeFollowWaveIdle.obj
 0001:00029990       _sf_exported_auto_resetTemporalCounter_c4_DemoGazeFollowWaveIdle_secs 1002a990 f   c4_DemoGazeFollowWaveIdle.obj
 0001:000299d0       _sf_exported_auto_deactivate_c4_DemoGazeFollowWaveIdle_secs 1002a9d0 f   c4_DemoGazeFollowWaveIdle.obj
 0001:00029a60       _sf_exported_auto_isStablec4_DemoGazeFollowWaveIdle 1002aa60 f   c4_DemoGazeFollowWaveIdle.obj
 0001:00029a90       _sf_exported_auto_duringc4_DemoGazeFollowWaveIdle 1002aa90 f   c4_DemoGazeFollowWaveIdle.obj
 0001:0002d3b0       _sf_exported_auto_enterc4_DemoGazeFollowWaveIdle 1002e3b0 f   c4_DemoGazeFollowWaveIdle.obj
 0001:0002e540       _sf_exported_auto_exitc4_DemoGazeFollowWaveIdle 1002f540 f   c4_DemoGazeFollowWaveIdle.obj
 0001:0002e950       _sf_exported_auto_gatewayc4_DemoGazeFollowWaveIdle 1002f950 f   c4_DemoGazeFollowWaveIdle.obj
 0001:0002e980       _sf_exported_auto_enablec4_DemoGazeFollowWaveIdle 1002f980 f   c4_DemoGazeFollowWaveIdle.obj
 0001:0002e9b0       _sf_exported_auto_disablec4_DemoGazeFollowWaveIdle 1002f9b0 f   c4_DemoGazeFollowWaveIdle.obj
 0001:0002e9e0       _sf_exported_auto_stepBuffersc4_DemoGazeFollowWaveIdle 1002f9e0 f   c4_DemoGazeFollowWaveIdle.obj
 0001:0002ea00       _sf_exported_auto_initBuffersc4_DemoGazeFollowWaveIdle 1002fa00 f   c4_DemoGazeFollowWaveIdle.obj
 0001:0002ea20       _sf_exported_auto_activate_callc4_DemoGazeFollowWaveIdle 1002fa20 f   c4_DemoGazeFollowWaveIdle.obj
 0001:0002ea50       _sf_exported_auto_increment_call_counterc4_DemoGazeFollowWaveIdle 1002fa50 f   c4_DemoGazeFollowWaveIdle.obj
 0001:0002ea70       _sf_exported_auto_reset_call_counterc4_DemoGazeFollowWaveIdle 1002fa70 f   c4_DemoGazeFollowWaveIdle.obj
 0001:0002ea90       _sf_exported_auto_deactivate_callc4_DemoGazeFollowWaveIdle 1002fa90 f   c4_DemoGazeFollowWaveIdle.obj
 0001:0002eab0       _sf_exported_auto_initc4_DemoGazeFollowWaveIdle 1002fab0 f   c4_DemoGazeFollowWaveIdle.obj
 0001:0002eba0       _sf_exported_auto_getSimstatec4_DemoGazeFollowWaveIdle 1002fba0 f   c4_DemoGazeFollowWaveIdle.obj
 0001:0002ebf0       _sf_exported_auto_setSimstatec4_DemoGazeFollowWaveIdle 1002fbf0 f   c4_DemoGazeFollowWaveIdle.obj
 0001:0002ec30       _sf_exported_auto_check_state_inconsistency_c4_DemoGazeFollowWaveIdle 1002fc30 f   c4_DemoGazeFollowWaveIdle.obj
 0001:0003c850       _sf_exported_user_c4_DemoGazeFollowWaveIdle_idlePoseBradTable 1003d850 f   c4_DemoGazeFollowWaveIdle.obj
 0001:0003c8a0       _sf_exported_user_c4_DemoGazeFollowWaveIdle_insertQueueLow 1003d8a0 f   c4_DemoGazeFollowWaveIdle.obj
 0001:0003c960       _sf_exported_user_c4_DemoGazeFollowWaveIdle_walkInvadingTable 1003d960 f   c4_DemoGazeFollowWaveIdle.obj
 0001:000414c0       _sf_c4_DemoGazeFollowWaveIdle_get_check_sum 100424c0 f   c4_DemoGazeFollowWaveIdle.obj
 0001:00041520       _sf_c4_DemoGazeFollowWaveIdle_get_autoinheritance_info 10042520 f   c4_DemoGazeFollowWaveIdle.obj
 0001:00041cc0       _sf_c4_DemoGazeFollowWaveIdle_third_party_uses_info 10042cc0 f   c4_DemoGazeFollowWaveIdle.obj
 0001:00041ce0       _sf_c4_DemoGazeFollowWaveIdle_updateBuildInfo_args_info 10042ce0 f   c4_DemoGazeFollowWaveIdle.obj
 0001:00041d00       _sf_internal_get_sim_state_c4_DemoGazeFollowWaveIdle 10042d00 f   c4_DemoGazeFollowWaveIdle.obj
 0001:00042620       _sf_internal_set_sim_state_c4_DemoGazeFollowWaveIdle 10043620 f   c4_DemoGazeFollowWaveIdle.obj
 0001:000435d0       _c4_DemoGazeFollowWaveIdle_method_dispatcher 100445d0 f   c4_DemoGazeFollowWaveIdle.obj
 0001:00048440       _sf_c5_DemoGazeFollowWaveIdle_get_eml_resolved_functions_info 10049440 f   c5_DemoGazeFollowWaveIdle.obj
 0001:0004d2d0       _sf_exported_auto_activate_c5_DemoGazeFollowWaveIdle_secs 1004e2d0 f   c5_DemoGazeFollowWaveIdle.obj
 0001:0004d360       _sf_exported_auto_incrementTemporalCounter_c5_DemoGazeFollowWaveIdle_secs 1004e360 f   c5_DemoGazeFollowWaveIdle.obj
 0001:0004d400       _sf_exported_auto_resetTemporalCounter_c5_DemoGazeFollowWaveIdle_secs 1004e400 f   c5_DemoGazeFollowWaveIdle.obj
 0001:0004d440       _sf_exported_auto_deactivate_c5_DemoGazeFollowWaveIdle_secs 1004e440 f   c5_DemoGazeFollowWaveIdle.obj
 0001:0004d4d0       _sf_exported_auto_isStablec5_DemoGazeFollowWaveIdle 1004e4d0 f   c5_DemoGazeFollowWaveIdle.obj
 0001:0004d500       _sf_exported_auto_duringc5_DemoGazeFollowWaveIdle 1004e500 f   c5_DemoGazeFollowWaveIdle.obj
 0001:00058860       _sf_exported_auto_enterc5_DemoGazeFollowWaveIdle 10059860 f   c5_DemoGazeFollowWaveIdle.obj
 0001:000598d0       _sf_exported_auto_exitc5_DemoGazeFollowWaveIdle 1005a8d0 f   c5_DemoGazeFollowWaveIdle.obj
 0001:0005ac40       _sf_exported_auto_gatewayc5_DemoGazeFollowWaveIdle 1005bc40 f   c5_DemoGazeFollowWaveIdle.obj
 0001:0005ac70       _sf_exported_auto_enablec5_DemoGazeFollowWaveIdle 1005bc70 f   c5_DemoGazeFollowWaveIdle.obj
 0001:0005acb0       _sf_exported_auto_disablec5_DemoGazeFollowWaveIdle 1005bcb0 f   c5_DemoGazeFollowWaveIdle.obj
 0001:0005acf0       _sf_exported_auto_stepBuffersc5_DemoGazeFollowWaveIdle 1005bcf0 f   c5_DemoGazeFollowWaveIdle.obj
 0001:0005ad10       _sf_exported_auto_initBuffersc5_DemoGazeFollowWaveIdle 1005bd10 f   c5_DemoGazeFollowWaveIdle.obj
 0001:0005ad30       _sf_exported_auto_activate_callc5_DemoGazeFollowWaveIdle 1005bd30 f   c5_DemoGazeFollowWaveIdle.obj
 0001:0005ad60       _sf_exported_auto_increment_call_counterc5_DemoGazeFollowWaveIdle 1005bd60 f   c5_DemoGazeFollowWaveIdle.obj
 0001:0005ad80       _sf_exported_auto_reset_call_counterc5_DemoGazeFollowWaveIdle 1005bd80 f   c5_DemoGazeFollowWaveIdle.obj
 0001:0005ada0       _sf_exported_auto_deactivate_callc5_DemoGazeFollowWaveIdle 1005bda0 f   c5_DemoGazeFollowWaveIdle.obj
 0001:0005adc0       _sf_exported_auto_initc5_DemoGazeFollowWaveIdle 1005bdc0 f   c5_DemoGazeFollowWaveIdle.obj
 0001:0005b040       _sf_exported_auto_getSimstatec5_DemoGazeFollowWaveIdle 1005c040 f   c5_DemoGazeFollowWaveIdle.obj
 0001:0005b090       _sf_exported_auto_setSimstatec5_DemoGazeFollowWaveIdle 1005c090 f   c5_DemoGazeFollowWaveIdle.obj
 0001:0005b0d0       _sf_exported_auto_check_state_inconsistency_c5_DemoGazeFollowWaveIdle 1005c0d0 f   c5_DemoGazeFollowWaveIdle.obj
 0001:0006e750       _sf_exported_user_c5_DemoGazeFollowWaveIdle_handPoseSBTable 1006f750 f   c5_DemoGazeFollowWaveIdle.obj
 0001:00071030       _sf_exported_user_c5_DemoGazeFollowWaveIdle_idlePoseBradTable 10072030 f   c5_DemoGazeFollowWaveIdle.obj
 0001:00071080       _sf_exported_user_c5_DemoGazeFollowWaveIdle_initialPoseTable 10072080 f   c5_DemoGazeFollowWaveIdle.obj
 0001:000710d0       _sf_exported_user_c5_DemoGazeFollowWaveIdle_insertQueue 100720d0 f   c5_DemoGazeFollowWaveIdle.obj
 0001:000711b0       _sf_exported_user_c5_DemoGazeFollowWaveIdle_insertQueueLow 100721b0 f   c5_DemoGazeFollowWaveIdle.obj
 0001:00071280       _sf_exported_user_c5_DemoGazeFollowWaveIdle_paperPoseBradTable 10072280 f   c5_DemoGazeFollowWaveIdle.obj
 0001:000712d0       _sf_exported_user_c5_DemoGazeFollowWaveIdle_rockPoseTable 100722d0 f   c5_DemoGazeFollowWaveIdle.obj
 0001:00071320       _sf_exported_user_c5_DemoGazeFollowWaveIdle_scissorsPoseBradTable 10072320 f   c5_DemoGazeFollowWaveIdle.obj
 0001:00071370       _sf_exported_user_c5_DemoGazeFollowWaveIdle_sendSBM 10072370 f   c5_DemoGazeFollowWaveIdle.obj
 0001:00074860       _sf_c5_DemoGazeFollowWaveIdle_get_check_sum 10075860 f   c5_DemoGazeFollowWaveIdle.obj
 0001:000748c0       _sf_c5_DemoGazeFollowWaveIdle_get_autoinheritance_info 100758c0 f   c5_DemoGazeFollowWaveIdle.obj
 0001:000755b0       _sf_c5_DemoGazeFollowWaveIdle_third_party_uses_info 100765b0 f   c5_DemoGazeFollowWaveIdle.obj
 0001:000755d0       _sf_c5_DemoGazeFollowWaveIdle_updateBuildInfo_args_info 100765d0 f   c5_DemoGazeFollowWaveIdle.obj
 0001:000755f0       _sf_internal_get_sim_state_c5_DemoGazeFollowWaveIdle 100765f0 f   c5_DemoGazeFollowWaveIdle.obj
 0001:000764d0       _sf_internal_set_sim_state_c5_DemoGazeFollowWaveIdle 100774d0 f   c5_DemoGazeFollowWaveIdle.obj
 0001:00078720       _c5_DemoGazeFollowWaveIdle_method_dispatcher 10079720 f   c5_DemoGazeFollowWaveIdle.obj
 0001:00082e40       _sf_c8_DemoGazeFollowWaveIdle_get_eml_resolved_functions_info 10083e40 f   c8_DemoGazeFollowWaveIdle.obj
 0001:000838c0       _sf_exported_auto_activate_c8_DemoGazeFollowWaveIdle_secs 100848c0 f   c8_DemoGazeFollowWaveIdle.obj
 0001:00083950       _sf_exported_auto_incrementTemporalCounter_c8_DemoGazeFollowWaveIdle_secs 10084950 f   c8_DemoGazeFollowWaveIdle.obj
 0001:000839b0       _sf_exported_auto_resetTemporalCounter_c8_DemoGazeFollowWaveIdle_secs 100849b0 f   c8_DemoGazeFollowWaveIdle.obj
 0001:000839f0       _sf_exported_auto_deactivate_c8_DemoGazeFollowWaveIdle_secs 100849f0 f   c8_DemoGazeFollowWaveIdle.obj
 0001:00083a80       _sf_exported_auto_isStablec8_DemoGazeFollowWaveIdle 10084a80 f   c8_DemoGazeFollowWaveIdle.obj
 0001:00083ab0       _sf_exported_auto_duringc8_DemoGazeFollowWaveIdle 10084ab0 f   c8_DemoGazeFollowWaveIdle.obj
 0001:0008a700       _sf_exported_auto_enterc8_DemoGazeFollowWaveIdle 1008b700 f   c8_DemoGazeFollowWaveIdle.obj
 0001:0008bdc0       _sf_exported_auto_exitc8_DemoGazeFollowWaveIdle 1008cdc0 f   c8_DemoGazeFollowWaveIdle.obj
 0001:0008c610       _sf_exported_auto_gatewayc8_DemoGazeFollowWaveIdle 1008d610 f   c8_DemoGazeFollowWaveIdle.obj
 0001:0008c640       _sf_exported_auto_enablec8_DemoGazeFollowWaveIdle 1008d640 f   c8_DemoGazeFollowWaveIdle.obj
 0001:0008c670       _sf_exported_auto_disablec8_DemoGazeFollowWaveIdle 1008d670 f   c8_DemoGazeFollowWaveIdle.obj
 0001:0008c6a0       _sf_exported_auto_stepBuffersc8_DemoGazeFollowWaveIdle 1008d6a0 f   c8_DemoGazeFollowWaveIdle.obj
 0001:0008c6c0       _sf_exported_auto_initBuffersc8_DemoGazeFollowWaveIdle 1008d6c0 f   c8_DemoGazeFollowWaveIdle.obj
 0001:0008c6e0       _sf_exported_auto_activate_callc8_DemoGazeFollowWaveIdle 1008d6e0 f   c8_DemoGazeFollowWaveIdle.obj
 0001:0008c710       _sf_exported_auto_increment_call_counterc8_DemoGazeFollowWaveIdle 1008d710 f   c8_DemoGazeFollowWaveIdle.obj
 0001:0008c730       _sf_exported_auto_reset_call_counterc8_DemoGazeFollowWaveIdle 1008d730 f   c8_DemoGazeFollowWaveIdle.obj
 0001:0008c750       _sf_exported_auto_deactivate_callc8_DemoGazeFollowWaveIdle 1008d750 f   c8_DemoGazeFollowWaveIdle.obj
 0001:0008c770       _sf_exported_auto_initc8_DemoGazeFollowWaveIdle 1008d770 f   c8_DemoGazeFollowWaveIdle.obj
 0001:0008c890       _sf_exported_auto_getSimstatec8_DemoGazeFollowWaveIdle 1008d890 f   c8_DemoGazeFollowWaveIdle.obj
 0001:0008c8e0       _sf_exported_auto_setSimstatec8_DemoGazeFollowWaveIdle 1008d8e0 f   c8_DemoGazeFollowWaveIdle.obj
 0001:0008c920       _sf_exported_auto_check_state_inconsistency_c8_DemoGazeFollowWaveIdle 1008d920 f   c8_DemoGazeFollowWaveIdle.obj
 0001:000937e0       _sf_exported_user_c8_DemoGazeFollowWaveIdle_insertQueue 100947e0 f   c8_DemoGazeFollowWaveIdle.obj
 0001:000938b0       _sf_exported_user_c8_DemoGazeFollowWaveIdle_insertQueueLow 100948b0 f   c8_DemoGazeFollowWaveIdle.obj
 0001:000946b0       _sf_exported_user_c8_DemoGazeFollowWaveIdle_walkInvadingTable 100956b0 f   c8_DemoGazeFollowWaveIdle.obj
 0001:00094b30       _sf_c8_DemoGazeFollowWaveIdle_get_check_sum 10095b30 f   c8_DemoGazeFollowWaveIdle.obj
 0001:00094b90       _sf_c8_DemoGazeFollowWaveIdle_get_autoinheritance_info 10095b90 f   c8_DemoGazeFollowWaveIdle.obj
 0001:00095e40       _sf_c8_DemoGazeFollowWaveIdle_third_party_uses_info 10096e40 f   c8_DemoGazeFollowWaveIdle.obj
 0001:00095e60       _sf_c8_DemoGazeFollowWaveIdle_updateBuildInfo_args_info 10096e60 f   c8_DemoGazeFollowWaveIdle.obj
 0001:00095e80       _sf_internal_get_sim_state_c8_DemoGazeFollowWaveIdle 10096e80 f   c8_DemoGazeFollowWaveIdle.obj
 0001:00096830       _sf_internal_set_sim_state_c8_DemoGazeFollowWaveIdle 10097830 f   c8_DemoGazeFollowWaveIdle.obj
 0001:00097ab0       _c8_DemoGazeFollowWaveIdle_method_dispatcher 10098ab0 f   c8_DemoGazeFollowWaveIdle.obj
 0001:0009caa0       _sf_c9_DemoGazeFollowWaveIdle_get_eml_resolved_functions_info 1009daa0 f   c9_DemoGazeFollowWaveIdle.obj
 0001:000a3cb0       _sf_exported_auto_activate_c9_DemoGazeFollowWaveIdle_secs 100a4cb0 f   c9_DemoGazeFollowWaveIdle.obj
 0001:000a3d40       _sf_exported_auto_incrementTemporalCounter_c9_DemoGazeFollowWaveIdle_secs 100a4d40 f   c9_DemoGazeFollowWaveIdle.obj
 0001:000a3de0       _sf_exported_auto_resetTemporalCounter_c9_DemoGazeFollowWaveIdle_secs 100a4de0 f   c9_DemoGazeFollowWaveIdle.obj
 0001:000a3e20       _sf_exported_auto_deactivate_c9_DemoGazeFollowWaveIdle_secs 100a4e20 f   c9_DemoGazeFollowWaveIdle.obj
 0001:000a3eb0       _sf_exported_auto_isStablec9_DemoGazeFollowWaveIdle 100a4eb0 f   c9_DemoGazeFollowWaveIdle.obj
 0001:000a3ee0       _sf_exported_auto_duringc9_DemoGazeFollowWaveIdle 100a4ee0 f   c9_DemoGazeFollowWaveIdle.obj
 0001:000ae700       _sf_exported_auto_enterc9_DemoGazeFollowWaveIdle 100af700 f   c9_DemoGazeFollowWaveIdle.obj
 0001:000afd90       _sf_exported_auto_exitc9_DemoGazeFollowWaveIdle 100b0d90 f   c9_DemoGazeFollowWaveIdle.obj
 0001:000b0ac0       _sf_exported_auto_gatewayc9_DemoGazeFollowWaveIdle 100b1ac0 f   c9_DemoGazeFollowWaveIdle.obj
 0001:000b0af0       _sf_exported_auto_enablec9_DemoGazeFollowWaveIdle 100b1af0 f   c9_DemoGazeFollowWaveIdle.obj
 0001:000b0b20       _sf_exported_auto_disablec9_DemoGazeFollowWaveIdle 100b1b20 f   c9_DemoGazeFollowWaveIdle.obj
 0001:000b0b50       _sf_exported_auto_stepBuffersc9_DemoGazeFollowWaveIdle 100b1b50 f   c9_DemoGazeFollowWaveIdle.obj
 0001:000b0b70       _sf_exported_auto_initBuffersc9_DemoGazeFollowWaveIdle 100b1b70 f   c9_DemoGazeFollowWaveIdle.obj
 0001:000b0b90       _sf_exported_auto_activate_callc9_DemoGazeFollowWaveIdle 100b1b90 f   c9_DemoGazeFollowWaveIdle.obj
 0001:000b0bc0       _sf_exported_auto_increment_call_counterc9_DemoGazeFollowWaveIdle 100b1bc0 f   c9_DemoGazeFollowWaveIdle.obj
 0001:000b0be0       _sf_exported_auto_reset_call_counterc9_DemoGazeFollowWaveIdle 100b1be0 f   c9_DemoGazeFollowWaveIdle.obj
 0001:000b0c00       _sf_exported_auto_deactivate_callc9_DemoGazeFollowWaveIdle 100b1c00 f   c9_DemoGazeFollowWaveIdle.obj
 0001:000b0c20       _sf_exported_auto_initc9_DemoGazeFollowWaveIdle 100b1c20 f   c9_DemoGazeFollowWaveIdle.obj
 0001:000b0e20       _sf_exported_auto_getSimstatec9_DemoGazeFollowWaveIdle 100b1e20 f   c9_DemoGazeFollowWaveIdle.obj
 0001:000b0e70       _sf_exported_auto_setSimstatec9_DemoGazeFollowWaveIdle 100b1e70 f   c9_DemoGazeFollowWaveIdle.obj
 0001:000b0eb0       _sf_exported_auto_check_state_inconsistency_c9_DemoGazeFollowWaveIdle 100b1eb0 f   c9_DemoGazeFollowWaveIdle.obj
 0001:000c78f0       _sf_exported_user_c9_DemoGazeFollowWaveIdle_gazeFollowUserMove 100c88f0 f   c9_DemoGazeFollowWaveIdle.obj
 0001:000c9a90       _sf_exported_user_c9_DemoGazeFollowWaveIdle_idleGazeFunction 100caa90 f   c9_DemoGazeFollowWaveIdle.obj
 0001:000c9ad0       _sf_exported_user_c9_DemoGazeFollowWaveIdle_idleGazeInterestedTable 100caad0 f   c9_DemoGazeFollowWaveIdle.obj
 0001:000cec70       _sf_exported_user_c9_DemoGazeFollowWaveIdle_idleGazeTable 100cfc70 f   c9_DemoGazeFollowWaveIdle.obj
 0001:000cecc0       _sf_exported_user_c9_DemoGazeFollowWaveIdle_insertQueueLow 100cfcc0 f   c9_DemoGazeFollowWaveIdle.obj
 0001:000ceda0       _sf_exported_user_c9_DemoGazeFollowWaveIdle_successTable 100cfda0 f   c9_DemoGazeFollowWaveIdle.obj
 0001:000d0560       _sf_c9_DemoGazeFollowWaveIdle_get_check_sum 100d1560 f   c9_DemoGazeFollowWaveIdle.obj
 0001:000d05c0       _sf_c9_DemoGazeFollowWaveIdle_get_autoinheritance_info 100d15c0 f   c9_DemoGazeFollowWaveIdle.obj
 0001:000d1b20       _sf_c9_DemoGazeFollowWaveIdle_third_party_uses_info 100d2b20 f   c9_DemoGazeFollowWaveIdle.obj
 0001:000d1b40       _sf_c9_DemoGazeFollowWaveIdle_updateBuildInfo_args_info 100d2b40 f   c9_DemoGazeFollowWaveIdle.obj
 0001:000d1b60       _sf_internal_get_sim_state_c9_DemoGazeFollowWaveIdle 100d2b60 f   c9_DemoGazeFollowWaveIdle.obj
 0001:000d2e70       _sf_internal_set_sim_state_c9_DemoGazeFollowWaveIdle 100d3e70 f   c9_DemoGazeFollowWaveIdle.obj
 0001:000d4ec0       _c9_DemoGazeFollowWaveIdle_method_dispatcher 100d5ec0 f   c9_DemoGazeFollowWaveIdle.obj
 0001:000dff51       _sf_c10_DemoGazeFollowWaveIdle_get_eml_resolved_functions_info 100e0f51 f   c10_DemoGazeFollowWaveIdle.obj
 0001:000e0060       _sf_exported_auto_activate_c10_DemoGazeFollowWaveIdle_secs 100e1060 f   c10_DemoGazeFollowWaveIdle.obj
 0001:000e0085       _sf_exported_auto_incrementTemporalCounter_c10_DemoGazeFollowWaveIdle_secs 100e1085 f   c10_DemoGazeFollowWaveIdle.obj
 0001:000e00aa       _sf_exported_auto_resetTemporalCounter_c10_DemoGazeFollowWaveIdle_secs 100e10aa f   c10_DemoGazeFollowWaveIdle.obj
 0001:000e00cf       _sf_exported_auto_deactivate_c10_DemoGazeFollowWaveIdle_secs 100e10cf f   c10_DemoGazeFollowWaveIdle.obj
 0001:000e00f4       _sf_exported_auto_isStablec10_DemoGazeFollowWaveIdle 100e10f4 f   c10_DemoGazeFollowWaveIdle.obj
 0001:000e0118       _sf_exported_auto_duringc10_DemoGazeFollowWaveIdle 100e1118 f   c10_DemoGazeFollowWaveIdle.obj
 0001:000e013d       _sf_exported_auto_enterc10_DemoGazeFollowWaveIdle 100e113d f   c10_DemoGazeFollowWaveIdle.obj
 0001:000e018d       _sf_exported_auto_exitc10_DemoGazeFollowWaveIdle 100e118d f   c10_DemoGazeFollowWaveIdle.obj
 0001:000e01d2       _sf_exported_auto_gatewayc10_DemoGazeFollowWaveIdle 100e11d2 f   c10_DemoGazeFollowWaveIdle.obj
 0001:000e020c       _sf_exported_auto_enablec10_DemoGazeFollowWaveIdle 100e120c f   c10_DemoGazeFollowWaveIdle.obj
 0001:000e0246       _sf_exported_auto_disablec10_DemoGazeFollowWaveIdle 100e1246 f   c10_DemoGazeFollowWaveIdle.obj
 0001:000e0280       _sf_exported_auto_stepBuffersc10_DemoGazeFollowWaveIdle 100e1280 f   c10_DemoGazeFollowWaveIdle.obj
 0001:000e029a       _sf_exported_auto_initBuffersc10_DemoGazeFollowWaveIdle 100e129a f   c10_DemoGazeFollowWaveIdle.obj
 0001:000e02b4       _sf_exported_auto_activate_callc10_DemoGazeFollowWaveIdle 100e12b4 f   c10_DemoGazeFollowWaveIdle.obj
 0001:000e02db       _sf_exported_auto_increment_call_counterc10_DemoGazeFollowWaveIdle 100e12db f   c10_DemoGazeFollowWaveIdle.obj
 0001:000e02f5       _sf_exported_auto_reset_call_counterc10_DemoGazeFollowWaveIdle 100e12f5 f   c10_DemoGazeFollowWaveIdle.obj
 0001:000e030f       _sf_exported_auto_deactivate_callc10_DemoGazeFollowWaveIdle 100e130f f   c10_DemoGazeFollowWaveIdle.obj
 0001:000e0329       _sf_exported_auto_initc10_DemoGazeFollowWaveIdle 100e1329 f   c10_DemoGazeFollowWaveIdle.obj
 0001:000e034e       _sf_exported_auto_getSimstatec10_DemoGazeFollowWaveIdle 100e134e f   c10_DemoGazeFollowWaveIdle.obj
 0001:000e0394       _sf_exported_auto_setSimstatec10_DemoGazeFollowWaveIdle 100e1394 f   c10_DemoGazeFollowWaveIdle.obj
 0001:000e03d3       _sf_exported_auto_check_state_inconsistency_c10_DemoGazeFollowWaveIdle 100e13d3 f   c10_DemoGazeFollowWaveIdle.obj
 0001:000e0c39       _sf_c10_DemoGazeFollowWaveIdle_get_check_sum 100e1c39 f   c10_DemoGazeFollowWaveIdle.obj
 0001:000e0cb0       _sf_c10_DemoGazeFollowWaveIdle_get_autoinheritance_info 100e1cb0 f   c10_DemoGazeFollowWaveIdle.obj
 0001:000e0fa5       _sf_c10_DemoGazeFollowWaveIdle_third_party_uses_info 100e1fa5 f   c10_DemoGazeFollowWaveIdle.obj
 0001:000e0fbf       _sf_c10_DemoGazeFollowWaveIdle_updateBuildInfo_args_info 100e1fbf f   c10_DemoGazeFollowWaveIdle.obj
 0001:000e1afe       _sf_internal_get_sim_state_c10_DemoGazeFollowWaveIdle 100e2afe f   c10_DemoGazeFollowWaveIdle.obj
 0001:000e1be5       _sf_internal_set_sim_state_c10_DemoGazeFollowWaveIdle 100e2be5 f   c10_DemoGazeFollowWaveIdle.obj
 0001:000e2320       _c10_DemoGazeFollowWaveIdle_method_dispatcher 100e3320 f   c10_DemoGazeFollowWaveIdle.obj
 0001:000e2380       _sf_c11_DemoGazeFollowWaveIdle_get_eml_resolved_functions_info 100e3380 f   c11_DemoGazeFollowWaveIdle.obj
 0001:000e2e00       _sf_exported_auto_activate_c11_DemoGazeFollowWaveIdle_secs 100e3e00 f   c11_DemoGazeFollowWaveIdle.obj
 0001:000e2e90       _sf_exported_auto_incrementTemporalCounter_c11_DemoGazeFollowWaveIdle_secs 100e3e90 f   c11_DemoGazeFollowWaveIdle.obj
 0001:000e2ef0       _sf_exported_auto_resetTemporalCounter_c11_DemoGazeFollowWaveIdle_secs 100e3ef0 f   c11_DemoGazeFollowWaveIdle.obj
 0001:000e2f30       _sf_exported_auto_deactivate_c11_DemoGazeFollowWaveIdle_secs 100e3f30 f   c11_DemoGazeFollowWaveIdle.obj
 0001:000e2fc0       _sf_exported_auto_isStablec11_DemoGazeFollowWaveIdle 100e3fc0 f   c11_DemoGazeFollowWaveIdle.obj
 0001:000e2ff0       _sf_exported_auto_duringc11_DemoGazeFollowWaveIdle 100e3ff0 f   c11_DemoGazeFollowWaveIdle.obj
 0001:000e5240       _sf_exported_auto_enterc11_DemoGazeFollowWaveIdle 100e6240 f   c11_DemoGazeFollowWaveIdle.obj
 0001:000e6270       _sf_exported_auto_exitc11_DemoGazeFollowWaveIdle 100e7270 f   c11_DemoGazeFollowWaveIdle.obj
 0001:000e6680       _sf_exported_auto_gatewayc11_DemoGazeFollowWaveIdle 100e7680 f   c11_DemoGazeFollowWaveIdle.obj
 0001:000e66b0       _sf_exported_auto_enablec11_DemoGazeFollowWaveIdle 100e76b0 f   c11_DemoGazeFollowWaveIdle.obj
 0001:000e66e0       _sf_exported_auto_disablec11_DemoGazeFollowWaveIdle 100e76e0 f   c11_DemoGazeFollowWaveIdle.obj
 0001:000e6710       _sf_exported_auto_stepBuffersc11_DemoGazeFollowWaveIdle 100e7710 f   c11_DemoGazeFollowWaveIdle.obj
 0001:000e6730       _sf_exported_auto_initBuffersc11_DemoGazeFollowWaveIdle 100e7730 f   c11_DemoGazeFollowWaveIdle.obj
 0001:000e6750       _sf_exported_auto_activate_callc11_DemoGazeFollowWaveIdle 100e7750 f   c11_DemoGazeFollowWaveIdle.obj
 0001:000e6780       _sf_exported_auto_increment_call_counterc11_DemoGazeFollowWaveIdle 100e7780 f   c11_DemoGazeFollowWaveIdle.obj
 0001:000e67a0       _sf_exported_auto_reset_call_counterc11_DemoGazeFollowWaveIdle 100e77a0 f   c11_DemoGazeFollowWaveIdle.obj
 0001:000e67c0       _sf_exported_auto_deactivate_callc11_DemoGazeFollowWaveIdle 100e77c0 f   c11_DemoGazeFollowWaveIdle.obj
 0001:000e67e0       _sf_exported_auto_initc11_DemoGazeFollowWaveIdle 100e77e0 f   c11_DemoGazeFollowWaveIdle.obj
 0001:000e68a0       _sf_exported_auto_getSimstatec11_DemoGazeFollowWaveIdle 100e78a0 f   c11_DemoGazeFollowWaveIdle.obj
 0001:000e68f0       _sf_exported_auto_setSimstatec11_DemoGazeFollowWaveIdle 100e78f0 f   c11_DemoGazeFollowWaveIdle.obj
 0001:000e6930       _sf_exported_auto_check_state_inconsistency_c11_DemoGazeFollowWaveIdle 100e7930 f   c11_DemoGazeFollowWaveIdle.obj
 0001:000e9640       _sf_exported_user_c11_DemoGazeFollowWaveIdle_insertQueue 100ea640 f   c11_DemoGazeFollowWaveIdle.obj
 0001:000e9700       _sf_exported_user_c11_DemoGazeFollowWaveIdle_smileTable 100ea700 f   c11_DemoGazeFollowWaveIdle.obj
 0001:000e9b80       _sf_c11_DemoGazeFollowWaveIdle_get_check_sum 100eab80 f   c11_DemoGazeFollowWaveIdle.obj
 0001:000e9be0       _sf_c11_DemoGazeFollowWaveIdle_get_autoinheritance_info 100eabe0 f   c11_DemoGazeFollowWaveIdle.obj
 0001:000ea470       _sf_c11_DemoGazeFollowWaveIdle_third_party_uses_info 100eb470 f   c11_DemoGazeFollowWaveIdle.obj
 0001:000ea490       _sf_c11_DemoGazeFollowWaveIdle_updateBuildInfo_args_info 100eb490 f   c11_DemoGazeFollowWaveIdle.obj
 0001:000ea4b0       _sf_internal_get_sim_state_c11_DemoGazeFollowWaveIdle 100eb4b0 f   c11_DemoGazeFollowWaveIdle.obj
 0001:000eab90       _sf_internal_set_sim_state_c11_DemoGazeFollowWaveIdle 100ebb90 f   c11_DemoGazeFollowWaveIdle.obj
 0001:000eb730       _c11_DemoGazeFollowWaveIdle_method_dispatcher 100ec730 f   c11_DemoGazeFollowWaveIdle.obj
 0001:000ee590       _sf_c17_DemoGazeFollowWaveIdle_get_eml_resolved_functions_info 100ef590 f   c17_DemoGazeFollowWaveIdle.obj
 0001:000eec50       _sf_c17_DemoGazeFollowWaveIdle_get_check_sum 100efc50 f   c17_DemoGazeFollowWaveIdle.obj
 0001:000eecb0       _sf_c17_DemoGazeFollowWaveIdle_get_autoinheritance_info 100efcb0 f   c17_DemoGazeFollowWaveIdle.obj
 0001:000effd0       _sf_c17_DemoGazeFollowWaveIdle_third_party_uses_info 100f0fd0 f   c17_DemoGazeFollowWaveIdle.obj
 0001:000efff0       _sf_c17_DemoGazeFollowWaveIdle_updateBuildInfo_args_info 100f0ff0 f   c17_DemoGazeFollowWaveIdle.obj
 0001:000f0010       _sf_internal_get_sim_state_c17_DemoGazeFollowWaveIdle 100f1010 f   c17_DemoGazeFollowWaveIdle.obj
 0001:000f0310       _sf_internal_set_sim_state_c17_DemoGazeFollowWaveIdle 100f1310 f   c17_DemoGazeFollowWaveIdle.obj
 0001:000f06c0       _c17_DemoGazeFollowWaveIdle_method_dispatcher 100f16c0 f   c17_DemoGazeFollowWaveIdle.obj
 0001:000f3880       _sf_c20_DemoGazeFollowWaveIdle_get_eml_resolved_functions_info 100f4880 f   c20_DemoGazeFollowWaveIdle.obj
 0001:000f46c0       _sf_exported_auto_activate_c20_DemoGazeFollowWaveIdle_secs 100f56c0 f   c20_DemoGazeFollowWaveIdle.obj
 0001:000f4750       _sf_exported_auto_incrementTemporalCounter_c20_DemoGazeFollowWaveIdle_secs 100f5750 f   c20_DemoGazeFollowWaveIdle.obj
 0001:000f47b0       _sf_exported_auto_resetTemporalCounter_c20_DemoGazeFollowWaveIdle_secs 100f57b0 f   c20_DemoGazeFollowWaveIdle.obj
 0001:000f47f0       _sf_exported_auto_deactivate_c20_DemoGazeFollowWaveIdle_secs 100f57f0 f   c20_DemoGazeFollowWaveIdle.obj
 0001:000f4880       _sf_exported_auto_isStablec20_DemoGazeFollowWaveIdle 100f5880 f   c20_DemoGazeFollowWaveIdle.obj
 0001:000f48b0       _sf_exported_auto_duringc20_DemoGazeFollowWaveIdle 100f58b0 f   c20_DemoGazeFollowWaveIdle.obj
 0001:000fa9d0       _sf_exported_auto_enterc20_DemoGazeFollowWaveIdle 100fb9d0 f   c20_DemoGazeFollowWaveIdle.obj
 0001:000fbb00       _sf_exported_auto_exitc20_DemoGazeFollowWaveIdle 100fcb00 f   c20_DemoGazeFollowWaveIdle.obj
 0001:000fc0e0       _sf_exported_auto_gatewayc20_DemoGazeFollowWaveIdle 100fd0e0 f   c20_DemoGazeFollowWaveIdle.obj
 0001:000fc110       _sf_exported_auto_enablec20_DemoGazeFollowWaveIdle 100fd110 f   c20_DemoGazeFollowWaveIdle.obj
 0001:000fc140       _sf_exported_auto_disablec20_DemoGazeFollowWaveIdle 100fd140 f   c20_DemoGazeFollowWaveIdle.obj
 0001:000fc170       _sf_exported_auto_stepBuffersc20_DemoGazeFollowWaveIdle 100fd170 f   c20_DemoGazeFollowWaveIdle.obj
 0001:000fc190       _sf_exported_auto_initBuffersc20_DemoGazeFollowWaveIdle 100fd190 f   c20_DemoGazeFollowWaveIdle.obj
 0001:000fc1b0       _sf_exported_auto_activate_callc20_DemoGazeFollowWaveIdle 100fd1b0 f   c20_DemoGazeFollowWaveIdle.obj
 0001:000fc1e0       _sf_exported_auto_increment_call_counterc20_DemoGazeFollowWaveIdle 100fd1e0 f   c20_DemoGazeFollowWaveIdle.obj
 0001:000fc200       _sf_exported_auto_reset_call_counterc20_DemoGazeFollowWaveIdle 100fd200 f   c20_DemoGazeFollowWaveIdle.obj
 0001:000fc220       _sf_exported_auto_deactivate_callc20_DemoGazeFollowWaveIdle 100fd220 f   c20_DemoGazeFollowWaveIdle.obj
 0001:000fc240       _sf_exported_auto_initc20_DemoGazeFollowWaveIdle 100fd240 f   c20_DemoGazeFollowWaveIdle.obj
 0001:000fc350       _sf_exported_auto_getSimstatec20_DemoGazeFollowWaveIdle 100fd350 f   c20_DemoGazeFollowWaveIdle.obj
 0001:000fc3a0       _sf_exported_auto_setSimstatec20_DemoGazeFollowWaveIdle 100fd3a0 f   c20_DemoGazeFollowWaveIdle.obj
 0001:000fc3e0       _sf_exported_auto_check_state_inconsistency_c20_DemoGazeFollowWaveIdle 100fd3e0 f   c20_DemoGazeFollowWaveIdle.obj
 0001:001016e0       _sf_exported_user_c20_DemoGazeFollowWaveIdle_insertQueue 101026e0 f   c20_DemoGazeFollowWaveIdle.obj
 0001:001017c0       _sf_exported_user_c20_DemoGazeFollowWaveIdle_wavePoseBradTable 101027c0 f   c20_DemoGazeFollowWaveIdle.obj
 0001:00101d60       _sf_c20_DemoGazeFollowWaveIdle_get_check_sum 10102d60 f   c20_DemoGazeFollowWaveIdle.obj
 0001:00101dc0       _sf_c20_DemoGazeFollowWaveIdle_get_autoinheritance_info 10102dc0 f   c20_DemoGazeFollowWaveIdle.obj
 0001:00102760       _sf_c20_DemoGazeFollowWaveIdle_third_party_uses_info 10103760 f   c20_DemoGazeFollowWaveIdle.obj
 0001:00102780       _sf_c20_DemoGazeFollowWaveIdle_updateBuildInfo_args_info 10103780 f   c20_DemoGazeFollowWaveIdle.obj
 0001:001027a0       _sf_internal_get_sim_state_c20_DemoGazeFollowWaveIdle 101037a0 f   c20_DemoGazeFollowWaveIdle.obj
 0001:00102ec0       _sf_internal_set_sim_state_c20_DemoGazeFollowWaveIdle 10103ec0 f   c20_DemoGazeFollowWaveIdle.obj
 0001:00103bc0       _c20_DemoGazeFollowWaveIdle_method_dispatcher 10104bc0 f   c20_DemoGazeFollowWaveIdle.obj
 0001:00107500       _sf_process_check_sum_call 10108500 f   DemoGazeFollowWaveIdle_sfun_registry.obj
 0001:00107530       _sf_process_autoinheritance_call 10108530 f   DemoGazeFollowWaveIdle_sfun_registry.obj
 0001:00107670       _sf_process_get_third_party_uses_info_call 10108670 f   DemoGazeFollowWaveIdle_sfun_registry.obj
 0001:001077b0       _sf_process_get_updateBuildInfo_args_info_call 101087b0 f   DemoGazeFollowWaveIdle_sfun_registry.obj
 0001:001078f0       _sf_process_get_eml_resolved_functions_info_call 101088f0 f   DemoGazeFollowWaveIdle_sfun_registry.obj
 0001:00107a10       _sf_mex_unlock_call        10108a10 f   DemoGazeFollowWaveIdle_sfun_registry.obj
 0001:00107aa0       _sf_machine_global_initializer_called 10108aa0 f   DemoGazeFollowWaveIdle_sfun_registry.obj
 0001:00107ac0       _sf_machine_global_method_dispatcher 10108ac0 f   DemoGazeFollowWaveIdle_sfun_registry.obj
 0001:00107b00       _sf_machine_global_terminator 10108b00 f   DemoGazeFollowWaveIdle_sfun_registry.obj
 0001:00107b40       _sf_register_machine_exported_symbols 10108b40 f   DemoGazeFollowWaveIdle_sfun_registry.obj
 0001:00107b60       _callCustomFcn             10108b60 f   DemoGazeFollowWaveIdle_sfun_registry.obj
 0001:00107b70       _sf_machine_global_initializer 10108b70 f   DemoGazeFollowWaveIdle_sfun_registry.obj
 0001:00107be0       _mdlGetSimState            10108be0 f   DemoGazeFollowWaveIdle_sfun_registry.obj
 0001:00107c40       _mdlSetSimState            10108c40 f   DemoGazeFollowWaveIdle_sfun_registry.obj
 0001:00107c70       __ssSetStateAbsTol         10108c70 f   DemoGazeFollowWaveIdle_sfun_registry.obj
 0001:00107d10       __ssGetAbsTol              10108d10 f   DemoGazeFollowWaveIdle_sfun_registry.obj
 0001:00107d60       __ssSetInputPortMatrixDimensions 10108d60 f   DemoGazeFollowWaveIdle_sfun_registry.obj
 0001:00107e10       __ssSetOutputPortMatrixDimensions 10108e10 f   DemoGazeFollowWaveIdle_sfun_registry.obj
 0001:00107ec0       __ssSetInputPortVectorDimension 10108ec0 f   DemoGazeFollowWaveIdle_sfun_registry.obj
 0001:00107f40       __ssSetOutputPortVectorDimension 10108f40 f   DemoGazeFollowWaveIdle_sfun_registry.obj
 0001:00107fc0       _ssIsRunTimeParamTunable   10108fc0 f   DemoGazeFollowWaveIdle_sfun_registry.obj
 0001:00108020       _ssGetSFuncBlockHandle     10109020 f   DemoGazeFollowWaveIdle_sfun_registry.obj
 0001:00108070       __ssGetCurrentInputPortWidth 10109070 f   DemoGazeFollowWaveIdle_sfun_registry.obj
 0001:00108140       __ssGetCurrentOutputPortWidth 10109140 f   DemoGazeFollowWaveIdle_sfun_registry.obj
 0001:00108210       __ssGetCallSystemNumFcnCallDestinations 10109210 f   DemoGazeFollowWaveIdle_sfun_registry.obj
 0001:00108270       _ssWarning                 10109270 f   DemoGazeFollowWaveIdle_sfun_registry.obj
 0001:00108350       _ssGetIsZeroCrossControlDisabled 10109350 f   DemoGazeFollowWaveIdle_sfun_registry.obj
 0001:001083b0       _ssSetIsInputPortUsedForContZcSignal 101093b0 f   DemoGazeFollowWaveIdle_sfun_registry.obj
 0001:00108400       _ssSetZcSignalIsZcElementDisc 10109400 f   DemoGazeFollowWaveIdle_sfun_registry.obj
 0001:00108480       _ssSetZcSignalName         10109480 f   DemoGazeFollowWaveIdle_sfun_registry.obj
 0001:001084d0       _ssSetZcSignalWidth        101094d0 f   DemoGazeFollowWaveIdle_sfun_registry.obj
 0001:00108520       _ssSetZcSignalZcEventType  10109520 f   DemoGazeFollowWaveIdle_sfun_registry.obj
 0001:00108570       _ssSetZcSignalType         10109570 f   DemoGazeFollowWaveIdle_sfun_registry.obj
 0001:001085c0       _ssSetZcSignalZcTol        101095c0 f   DemoGazeFollowWaveIdle_sfun_registry.obj
 0001:00108610       _ssSetZcSignalNeedsEventNotification 10109610 f   DemoGazeFollowWaveIdle_sfun_registry.obj
 0001:00108660       _ssCreateAndAddZcSignalInfo 10109660 f   DemoGazeFollowWaveIdle_sfun_registry.obj
 0001:001086c0       _ssCloneAndAddZcSignalInfo 101096c0 f   DemoGazeFollowWaveIdle_sfun_registry.obj
 0001:00108720       _ssGetNumZcSignals         10109720 f   DemoGazeFollowWaveIdle_sfun_registry.obj
 0001:00108780       _ssGetZcSignalVector       10109780 f   DemoGazeFollowWaveIdle_sfun_registry.obj
 0001:001087e0       _ssGetZcSignalZcEvents     101097e0 f   DemoGazeFollowWaveIdle_sfun_registry.obj
 0001:00108840       _ssGetZcSignalName         10109840 f   DemoGazeFollowWaveIdle_sfun_registry.obj
 0001:001088a0       _ssGetZcSignalWidth        101098a0 f   DemoGazeFollowWaveIdle_sfun_registry.obj
 0001:00108900       _ssGetZcSignalZcEventType  10109900 f   DemoGazeFollowWaveIdle_sfun_registry.obj
 0001:00108960       _ssGetZcSignalType         10109960 f   DemoGazeFollowWaveIdle_sfun_registry.obj
 0001:001089c0       _ssGetZcSignalZcTol        101099c0 f   DemoGazeFollowWaveIdle_sfun_registry.obj
 0001:00108a20       _ssGetZcSignalNeedsEventNotification 10109a20 f   DemoGazeFollowWaveIdle_sfun_registry.obj
 0001:00108a80       _ssGetZcSignalIsZcElementDisc 10109a80 f   DemoGazeFollowWaveIdle_sfun_registry.obj
 0001:00108b00       _ssGetIsInputPortElementContinuous 10109b00 f   DemoGazeFollowWaveIdle_sfun_registry.obj
 0001:00108b80       __ssGetInputPortSignalPtrsFcn 10109b80 f   DemoGazeFollowWaveIdle_sfun_registry.obj
 0001:00108d80       __ssGetInputPortSignalFcn  10109d80 f   DemoGazeFollowWaveIdle_sfun_registry.obj
 0001:00108f10       __ssSetInputPortDirectFeedThroughFcn 10109f10 f   DemoGazeFollowWaveIdle_sfun_registry.obj
 0001:00109040       __ssSetInputPortReusableFcn 1010a040 f   DemoGazeFollowWaveIdle_sfun_registry.obj
 0001:001090d0       __ssSetOutputPortReusableFcn 1010a0d0 f   DemoGazeFollowWaveIdle_sfun_registry.obj
 0001:00109160       _ssGetDTypeIdFromMxArray   1010a160 f   DemoGazeFollowWaveIdle_sfun_registry.obj
 0001:00109250       _ssWriteRTWStr             1010a250 f   DemoGazeFollowWaveIdle_sfun_registry.obj
 0001:00109290       _ssWriteRTWMxVectParam     1010a290 f   DemoGazeFollowWaveIdle_sfun_registry.obj
 0001:001092d0       _ssWriteRTWMx2dMatParam    1010a2d0 f   DemoGazeFollowWaveIdle_sfun_registry.obj
 0001:00109310       _ssWriteRTWNameValuePair   1010a310 f   DemoGazeFollowWaveIdle_sfun_registry.obj
 0001:00109680       _ssWriteRTWParameters      1010a680 f   DemoGazeFollowWaveIdle_sfun_registry.obj
 0001:00109a20       _ssWriteRTWParamSettings   1010aa20 f   DemoGazeFollowWaveIdle_sfun_registry.obj
 0001:00109ed0       _ssWriteRTWWorkVect        1010aed0 f   DemoGazeFollowWaveIdle_sfun_registry.obj
 0001:0010a260       _mexFunction               1010b260 f   DemoGazeFollowWaveIdle_sfun_registry.obj
 0001:0010bfb0       _ProcessMexSfunctionEveryCall 1010cfb0 f   DemoGazeFollowWaveIdle_sfun_registry.obj
 0001:0010c0ce       _sf_debug_set_machine_data_thresholds 1010d0ce f   sf_runtime:sf_runtime.dll
 0001:0010c0d4       _sf_debug_set_machine_event_thresholds 1010d0d4 f   sf_runtime:sf_runtime.dll
 0001:0010c0da       _sf_debug_initialize_machine 1010d0da f   sf_runtime:sf_runtime.dll
 0001:0010c0e0       _sf_load_rtw_optimization_info 1010d0e0 f   sf_runtime:sf_runtime.dll
 0001:0010c0e6       _sf_mex_emlrtNameCapturePostProcessR2012a 1010d0e6 f   sf_runtime:sf_runtime.dll
 0001:0010c0ec       _sf_mex_assign             1010d0ec f   sf_runtime:sf_runtime.dll
 0001:0010c0f2       _sf_mex_createstruct       1010d0f2 f   sf_runtime:sf_runtime.dll
 0001:0010c0f8       _sf_mex_destroy            1010d0f8 f   sf_runtime:sf_runtime.dll
 0001:0010c0fe       _sf_mex_duplicatearraysafe 1010d0fe f   sf_runtime:sf_runtime.dll
 0001:0010c104       _sf_mex_createcellmatrix   1010d104 f   sf_runtime:sf_runtime.dll
 0001:0010c10a       _sf_mex_addfield           1010d10a f   sf_runtime:sf_runtime.dll
 0001:0010c110       _sf_mex_create             1010d110 f   sf_runtime:sf_runtime.dll
 0001:0010c116       _sf_mex_error_message      1010d116 f   sf_runtime:sf_runtime.dll
 0001:0010c11c       _sf_mex_call_matlab        1010d11c f   sf_runtime:sf_runtime.dll
 0001:0010c122       _sf_mex_dup                1010d122 f   sf_runtime:sf_runtime.dll
 0001:0010c128       _sf_mex_setcell            1010d128 f   sf_runtime:sf_runtime.dll
 0001:0010c12e       _sf_mex_decode_encoded_mx_struct_array 1010d12e f   sf_runtime:sf_runtime.dll
 0001:0010c134       _sf_mex_getcell            1010d134 f   sf_runtime:sf_runtime.dll
 0001:0010c13a       _sf_debug_animate          1010d13a f   sf_runtime:sf_runtime.dll
 0001:0010c140       _sf_debug_call             1010d140 f   sf_runtime:sf_runtime.dll
 0001:0010c146       _sf_debug_set_honor_breakpoints 1010d146 f   sf_runtime:sf_runtime.dll
 0001:0010c14c       _sf_debug_set_animation    1010d14c f   sf_runtime:sf_runtime.dll
 0001:0010c152       _sf_debug_get_animation    1010d152 f   sf_runtime:sf_runtime.dll
 0001:0010c158       _sf_mex_import             1010d158 f   sf_runtime:sf_runtime.dll
 0001:0010c15e       _sf_set_rtw_dwork_info     1010d15e f   sf_runtime:sf_runtime.dll
 0001:0010c164       _sf_mark_chart_reusable_outputs 1010d164 f   sf_runtime:sf_runtime.dll
 0001:0010c16a       _sf_mark_chart_expressionable_inputs 1010d16a f   sf_runtime:sf_runtime.dll
 0001:0010c170       _sf_mark_output_events_with_multiple_callers 1010d170 f   sf_runtime:sf_runtime.dll
 0001:0010c176       _sf_update_buildInfo       1010d176 f   sf_runtime:sf_runtime.dll
 0001:0010c17c       _sf_rtw_info_uint_prop     1010d17c f   sf_runtime:sf_runtime.dll
 0001:0010c182       _sf_is_chart_inlinable     1010d182 f   sf_runtime:sf_runtime.dll
 0001:0010c188       _sim_mode_is_external      1010d188 f   sf_runtime:sf_runtime.dll
 0001:0010c18e       _sim_mode_is_rtw_gen       1010d18e f   sf_runtime:sf_runtime.dll
 0001:0010c194       _sf_debug_reset_current_state_configuration 1010d194 f   sf_runtime:sf_runtime.dll
 0001:0010c19a       _sf_debug_set_instance_data_value_ptr 1010d19a f   sf_runtime:sf_runtime.dll
 0001:0010c1a0       _sf_debug_set_chart_data_compiled_props 1010d1a0 f   sf_runtime:sf_runtime.dll
 0001:0010c1a6       _cv_script_init_fcn        1010d1a6 f   sf_runtime:sf_runtime.dll
 0001:0010c1ac       _cv_script_init_script     1010d1ac f   sf_runtime:sf_runtime.dll
 0001:0010c1b2       _cv_eml_init_for           1010d1b2 f   sf_runtime:sf_runtime.dll
 0001:0010c1b8       _cv_eml_init_if            1010d1b8 f   sf_runtime:sf_runtime.dll
 0001:0010c1be       _cv_eml_init_fcn           1010d1be f   sf_runtime:sf_runtime.dll
 0001:0010c1c4       _cv_eml_init_script        1010d1c4 f   sf_runtime:sf_runtime.dll
 0001:0010c1ca       _sf_debug_cv_init_trans    1010d1ca f   sf_runtime:sf_runtime.dll
 0001:0010c1d0       _sf_debug_cv_init_state    1010d1d0 f   sf_runtime:sf_runtime.dll
 0001:0010c1d6       _sf_debug_cv_init_chart    1010d1d6 f   sf_runtime:sf_runtime.dll
 0001:0010c1dc       _sf_debug_set_chart_state_substate_index 1010d1dc f   sf_runtime:sf_runtime.dll
 0001:0010c1e2       _sf_debug_set_chart_state_substate_count 1010d1e2 f   sf_runtime:sf_runtime.dll
 0001:0010c1e8       _sf_debug_set_chart_substate_index 1010d1e8 f   sf_runtime:sf_runtime.dll
 0001:0010c1ee       _sf_debug_set_chart_decomposition 1010d1ee f   sf_runtime:sf_runtime.dll
 0001:0010c1f4       _sf_debug_set_chart_substate_count 1010d1f4 f   sf_runtime:sf_runtime.dll
 0001:0010c1fa       _sf_debug_set_chart_state_info 1010d1fa f   sf_runtime:sf_runtime.dll
 0001:0010c200       _sf_debug_set_chart_event_scope 1010d200 f   sf_runtime:sf_runtime.dll
 0001:0010c206       _sf_debug_set_chart_data_props 1010d206 f   sf_runtime:sf_runtime.dll
 0001:0010c20c       _sf_debug_set_chart_event_thresholds 1010d20c f   sf_runtime:sf_runtime.dll
 0001:0010c212       _sf_debug_set_chart_disable_implicit_casting 1010d212 f   sf_runtime:sf_runtime.dll
 0001:0010c218       _sf_debug_initialize_chart 1010d218 f   sf_runtime:sf_runtime.dll
 0001:0010c21e       _sf_debug_set_script_translation 1010d21e f   sf_runtime:sf_runtime.dll
 0001:0010c224       _sf_debug_get_script_id    1010d224 f   sf_runtime:sf_runtime.dll
 0001:0010c22a       _sf_get_output_port_reusable 1010d22a f   sf_runtime:sf_runtime.dll
 0001:0010c230       _sf_get_time               1010d230 f   sf_runtime:sf_runtime.dll
 0001:0010c236       _sf_call_output_fcn_enable 1010d236 f   sf_runtime:sf_runtime.dll
 0001:0010c23c       _sf_call_output_fcn_disable 1010d23c f   sf_runtime:sf_runtime.dll
 0001:0010c242       _sf_debug_check_for_state_inconsistency 1010d242 f   sf_runtime:sf_runtime.dll
 0001:0010c248       _sf_debug_symbol_scope_pop 1010d248 f   sf_runtime:sf_runtime.dll
 0001:0010c24e       _sf_debug_data_range_wrapper 1010d24e f   sf_runtime:sf_runtime.dll
 0001:0010c254       _sf_debug_symbol_scope_push 1010d254 f   sf_runtime:sf_runtime.dll
 0001:0010c25a       _sf_mex_sub                1010d25a f   sf_runtime:sf_runtime.dll
 0001:0010c260       _sf_debug_symbol_scope_add_eml_importable 1010d260 f   sf_runtime:sf_runtime.dll
 0001:0010c266       _sf_debug_symbol_scope_push_eml 1010d266 f   sf_runtime:sf_runtime.dll
 0001:0010c26c       _cv_eml_eval               1010d26c f   sf_runtime:sf_runtime.dll
 0001:0010c272       _cv_eval_point             1010d272 f   sf_runtime:sf_runtime.dll
 0001:0010c278       _sf_debug_unset_instance_data_value_ptr 1010d278 f   sf_runtime:sf_runtime.dll
 0001:0010c27e       _sf_call_output_fcn_call   1010d27e f   sf_runtime:sf_runtime.dll
 0001:0010c284       _sf_debug_symbol_scope_add_importable 1010d284 f   sf_runtime:sf_runtime.dll
 0001:0010c28a       _eml_debug_line_call       1010d28a f   sf_runtime:sf_runtime.dll
 0001:0010c290       _cv_script_eval            1010d290 f   sf_runtime:sf_runtime.dll
 0001:0010c296       _sf_debug_symbol_scope_add_eml 1010d296 f   sf_runtime:sf_runtime.dll
 0001:0010c29c       _sf_mex_listen_for_ctrl_c  1010d29c f   sf_runtime:sf_runtime.dll
 0001:0010c2a2       _sf_debug_eml_data_array_bounds_error_check 1010d2a2 f   sf_runtime:sf_runtime.dll
 0001:0010c2a8       _sf_debug_integer_check    1010d2a8 f   sf_runtime:sf_runtime.dll
 0001:0010c2ae       _sf_debug_read_before_write_check 1010d2ae f   sf_runtime:sf_runtime.dll
 0001:0010c2b4       _sf_clear_rtw_identifier   1010d2b4 f   sf_runtime:sf_runtime.dll
 0001:0010c2ba       _sf_get_subchart_simstruct 1010d2ba f   sf_runtime:sf_runtime.dll
 0001:0010c2c0       _sf_mex_call_debug         1010d2c0 f   sf_runtime:sf_runtime.dll
 0001:0010c2c6       _cv_eml_init_mcdc          1010d2c6 f   sf_runtime:sf_runtime.dll
 0001:0010c2cc       _sf_mex_printf             1010d2cc f   sf_runtime:sf_runtime.dll
 0001:0010c2d2       _sf_debug_temporal_threshold 1010d2d2 f   sf_runtime:sf_runtime.dll
 0001:0010c2d8       _sf_debug_symbol_scope_add_eml_dyn_importable 1010d2d8 f   sf_runtime:sf_runtime.dll
 0001:0010c2de       _sf_debug_sub_assign_size_check_nd 1010d2de f   sf_runtime:sf_runtime.dll
 0001:0010c2e4       _sf_mex_import_vs          1010d2e4 f   sf_runtime:sf_runtime.dll
 0001:0010c2ea       _cv_script_init_mcdc       1010d2ea f   sf_runtime:sf_runtime.dll
 0001:0010c2f0       _cv_script_init_if         1010d2f0 f   sf_runtime:sf_runtime.dll
 0001:0010c2f6       _sf_debug_terminate        1010d2f6 f   sf_runtime:sf_runtime.dll
 0001:0010c2fc       _sf_debug_create_debug_instance_struct 1010d2fc f   sf_runtime:sf_runtime.dll
 0001:0010c302       _sf_debug_api              1010d302 f   sf_runtime:sf_runtime.dll
 0001:0010c308       _callMdlMethodAndReportError 1010d308 f   sf_runtime:sf_runtime.dll
 0001:0010c30e       _call_sf_machine_global_method_dispatcher 1010d30e f   sf_runtime:sf_runtime.dll
 0001:0010c314       _sf_clear_error_manager_info 1010d314 f   sf_runtime:sf_runtime.dll
 0001:0010c31a       _sf_mex_error_direct_call  1010d31a f   sf_runtime:sf_runtime.dll
 0001:0010c320       _mxGetScalar               1010d320 f   libmx:libmx.dll
 0001:0010c326       _mxGetPr                   1010d326 f   libmx:libmx.dll
 0001:0010c32c       _mxCreateDoubleMatrix_730  1010d32c f   libmx:libmx.dll
 0001:0010c332       _mxGetString_730           1010d332 f   libmx:libmx.dll
 0001:0010c338       _mxIsChar                  1010d338 f   libmx:libmx.dll
 0001:0010c33e       _mxDestroyArray            1010d33e f   libmx:libmx.dll
 0001:0010c344       _mxDuplicateArray          1010d344 f   libmx:libmx.dll
 0001:0010c34a       _mxCreateDoubleScalar      1010d34a f   libmx:libmx.dll
 0001:0010c350       _mxSetField_730            1010d350 f   libmx:libmx.dll
 0001:0010c356       _mxCreateString            1010d356 f   libmx:libmx.dll
 0001:0010c35c       _mxCreateStructMatrix_730  1010d35c f   libmx:libmx.dll
 0001:0010c362       _mxCreateCellMatrix_730    1010d362 f   libmx:libmx.dll
 0001:0010c368       _mxIsEmpty                 1010d368 f   libmx:libmx.dll
 0001:0010c36e       _mxGetClassID              1010d36e f   libmx:libmx.dll
 0001:0010c374       _mxIsNumeric               1010d374 f   libmx:libmx.dll
 0001:0010c37a       _mxIsComplex               1010d37a f   libmx:libmx.dll
 0001:0010c380       _mxGetN                    1010d380 f   libmx:libmx.dll
 0001:0010c386       _mxGetM                    1010d386 f   libmx:libmx.dll
 0001:0010c38c       _mxCalloc                  1010d38c f   libmx:libmx.dll
 0001:0010c392       _mexMakeArrayPersistent    1010d392 f   libmex:libmex.dll
 0001:0010c398       _mexUnlock                 1010d398 f   libmex:libmex.dll
 0001:0010c39e       _mexIsLocked               1010d39e f   libmex:libmex.dll
 0001:0010c3a4       _mexWarnMsgTxt             1010d3a4 f   libmex:libmex.dll
 0001:0010c3aa       _mexCallMATLAB             1010d3aa f   libmex:libmex.dll
 0001:0010c3b0       _mexErrMsgTxt              1010d3b0 f   libmex:libmex.dll
 0001:0010c3b6       _mexLock                   1010d3b6 f   libmex:libmex.dll
 0001:0010c3bc       _utMalloc                  1010d3bc f   libut:libut.dll
 0001:0010c3c2       _utFree                    1010d3c2 f   libut:libut.dll
 0001:0010c3c8       _muDoubleScalarFloor       1010d3c8 f   libmwmathutil:libmwmathutil.dll
 0001:0010c3ce       _muDoubleScalarRound       1010d3ce f   libmwmathutil:libmwmathutil.dll
 0001:0010c3d4       _muDoubleScalarLog         1010d3d4 f   libmwmathutil:libmwmathutil.dll
 0001:0010c3da       _muDoubleScalarAbs         1010d3da f   libmwmathutil:libmwmathutil.dll
 0001:0010c3e0       _strcmp                    1010d3e0 f   MSVCRT:MSVCR100.dll
 0001:0010c3f0       @__security_check_cookie@4 1010d3f0 f   MSVCRT:secchk.obj
 0001:0010c400       _strlen                    1010d400 f   MSVCRT:MSVCR100.dll
 0001:0010c410       __alloca_probe             1010d410     MSVCRT:chkstk.obj
 0001:0010c410       __chkstk                   1010d410 f   MSVCRT:chkstk.obj
 0001:0010c43c       _memset                    1010d43c f   MSVCRT:MSVCR100.dll
 0001:0010c450       __ftol2_sse                1010d450 f   MSVCRT:ftol2.obj
 0001:0010c459       __ftol2_pentium4           1010d459 f   MSVCRT:ftol2.obj
 0001:0010c46c       __ftol2_sse_excpt          1010d46c f   MSVCRT:ftol2.obj
 0001:0010c486       __ftol2                    1010d486 f   MSVCRT:ftol2.obj
 0001:0010c4fc       __ftol                     1010d4fc f   MSVCRT:MSVCR100.dll
 0001:0010c502       _free                      1010d502 f   MSVCRT:MSVCR100.dll
 0001:0010c508       _sprintf                   1010d508 f   MSVCRT:MSVCR100.dll
 0001:0010c50e       _malloc                    1010d50e f   MSVCRT:MSVCR100.dll
 0001:0010c514       _strcat                    1010d514 f   MSVCRT:MSVCR100.dll
 0001:0010c51a       _memcpy                    1010d51a f   MSVCRT:MSVCR100.dll
 0001:0010c520       _NtCurrentTeb              1010d520 f i MSVCRT:crtdll.obj
 0001:0010c575       __CRT_INIT@12              1010d575 f   MSVCRT:crtdll.obj
 0001:0010c895       __DllMainCRTStartup@12     1010d895 f   MSVCRT:crtdll.obj
 0001:0010c8b8       ___report_gsfailure        1010d8b8 f   MSVCRT:gs_report.obj
 0001:0010c9be       ___sse2_available_init     1010d9be f   MSVCRT:cpu_disp.obj
 0001:0010c9ce       ___clean_type_info_names   1010d9ce f   MSVCRT:tncleanup.obj
 0001:0010c9da       __onexit                   1010d9da f   MSVCRT:atonexit.obj
 0001:0010ca7b       _atexit                    1010da7b f   MSVCRT:atonexit.obj
 0001:0010ca92       __RTC_Initialize           1010da92 f   MSVCRT:_initsect_.obj
 0001:0010cab8       __RTC_Terminate            1010dab8 f   MSVCRT:_initsect_.obj
 0001:0010cade       __malloc_crt               1010dade f   MSVCRT:MSVCR100.dll
 0001:0010cae4       __encoded_null             1010dae4 f   MSVCRT:MSVCR100.dll
 0001:0010caf0       __ValidateImageBase        1010daf0 f   MSVCRT:pesect.obj
 0001:0010cb30       __FindPESection            1010db30 f   MSVCRT:pesect.obj
 0001:0010cb80       __IsNonwritableInCurrentImage 1010db80 f   MSVCRT:pesect.obj
 0001:0010cc3c       __initterm                 1010dc3c f   MSVCRT:MSVCR100.dll
 0001:0010cc42       __initterm_e               1010dc42 f   MSVCRT:MSVCR100.dll
 0001:0010cc48       __amsg_exit                1010dc48 f   MSVCRT:MSVCR100.dll
 0001:0010cc4e       ___CppXcptFilter           1010dc4e f   MSVCRT:MSVCR100.dll
 0001:0010cc54       _DllMain@12                1010dc54 f   MSVCRT:dllmain.obj
 0001:0010cc80       __SEH_prolog4              1010dc80 f   MSVCRT:sehprolg4.obj
 0001:0010ccc5       __SEH_epilog4              1010dcc5 f   MSVCRT:sehprolg4.obj
 0001:0010ccd9       __except_handler4          1010dcd9 f   MSVCRT:chandler4gs.obj
 0001:0010ccfe       ___security_init_cookie    1010dcfe f   MSVCRT:gs_support.obj
 0001:0010cd9a       __crt_debugger_hook        1010dd9a f   MSVCRT:MSVCR100.dll
 0001:0010cda0       ___clean_type_info_names_internal 1010dda0 f   MSVCRT:MSVCR100.dll
 0001:0010cda6       __unlock                   1010dda6 f   MSVCRT:MSVCR100.dll
 0001:0010cdac       ___dllonexit               1010ddac f   MSVCRT:MSVCR100.dll
 0001:0010cdb2       __lock                     1010ddb2 f   MSVCRT:MSVCR100.dll
 0001:0010cdb8       __except_handler4_common   1010ddb8 f   MSVCRT:MSVCR100.dll
 0001:0010cdbe       _EncodePointer@4           1010ddbe f   kernel32:KERNEL32.dll
 0001:0010cdc4       _DecodePointer@4           1010ddc4 f   kernel32:KERNEL32.dll
 0001:0010cdca       _InterlockedExchange@8     1010ddca f   kernel32:KERNEL32.dll
 0001:0010cdd0       _Sleep@4                   1010ddd0 f   kernel32:KERNEL32.dll
 0001:0010cdd6       _InterlockedCompareExchange@12 1010ddd6 f   kernel32:KERNEL32.dll
 0001:0010cddc       _TerminateProcess@8        1010dddc f   kernel32:KERNEL32.dll
 0001:0010cde2       _GetCurrentProcess@0       1010dde2 f   kernel32:KERNEL32.dll
 0001:0010cde8       _UnhandledExceptionFilter@4 1010dde8 f   kernel32:KERNEL32.dll
 0001:0010cdee       _SetUnhandledExceptionFilter@4 1010ddee f   kernel32:KERNEL32.dll
 0001:0010cdf4       _IsDebuggerPresent@0       1010ddf4 f   kernel32:KERNEL32.dll
 0001:0010cdfa       _IsProcessorFeaturePresent@4 1010ddfa f   kernel32:KERNEL32.dll
 0001:0010ce00       _DisableThreadLibraryCalls@4 1010de00 f   kernel32:KERNEL32.dll
 0001:0010ce06       _QueryPerformanceCounter@4 1010de06 f   kernel32:KERNEL32.dll
 0001:0010ce0c       _GetTickCount@0            1010de0c f   kernel32:KERNEL32.dll
 0001:0010ce12       _GetCurrentThreadId@0      1010de12 f   kernel32:KERNEL32.dll
 0001:0010ce18       _GetCurrentProcessId@0     1010de18 f   kernel32:KERNEL32.dll
 0001:0010ce1e       _GetSystemTimeAsFileTime@4 1010de1e f   kernel32:KERNEL32.dll
 0002:00000000       __imp__GetCurrentProcessId@0 1010e000     kernel32:KERNEL32.dll
 0002:00000004       __imp__GetCurrentThreadId@0 1010e004     kernel32:KERNEL32.dll
 0002:00000008       __imp__GetTickCount@0      1010e008     kernel32:KERNEL32.dll
 0002:0000000c       __imp__QueryPerformanceCounter@4 1010e00c     kernel32:KERNEL32.dll
 0002:00000010       __imp__DisableThreadLibraryCalls@4 1010e010     kernel32:KERNEL32.dll
 0002:00000014       __imp__IsProcessorFeaturePresent@4 1010e014     kernel32:KERNEL32.dll
 0002:00000018       __imp__IsDebuggerPresent@0 1010e018     kernel32:KERNEL32.dll
 0002:0000001c       __imp__SetUnhandledExceptionFilter@4 1010e01c     kernel32:KERNEL32.dll
 0002:00000020       __imp__UnhandledExceptionFilter@4 1010e020     kernel32:KERNEL32.dll
 0002:00000024       __imp__GetCurrentProcess@0 1010e024     kernel32:KERNEL32.dll
 0002:00000028       __imp__TerminateProcess@8  1010e028     kernel32:KERNEL32.dll
 0002:0000002c       __imp__InterlockedCompareExchange@12 1010e02c     kernel32:KERNEL32.dll
 0002:00000030       __imp__Sleep@4             1010e030     kernel32:KERNEL32.dll
 0002:00000034       __imp__InterlockedExchange@8 1010e034     kernel32:KERNEL32.dll
 0002:00000038       __imp__DecodePointer@4     1010e038     kernel32:KERNEL32.dll
 0002:0000003c       __imp__EncodePointer@4     1010e03c     kernel32:KERNEL32.dll
 0002:00000040       __imp__GetSystemTimeAsFileTime@4 1010e040     kernel32:KERNEL32.dll
 0002:00000044       \177KERNEL32_NULL_THUNK_DATA 1010e044     kernel32:KERNEL32.dll
 0002:00000048       __imp___except_handler4_common 1010e048     MSVCRT:MSVCR100.dll
 0002:0000004c       __imp___lock               1010e04c     MSVCRT:MSVCR100.dll
 0002:00000050       __imp____dllonexit         1010e050     MSVCRT:MSVCR100.dll
 0002:00000054       __imp___unlock             1010e054     MSVCRT:MSVCR100.dll
 0002:00000058       __imp____clean_type_info_names_internal 1010e058     MSVCRT:MSVCR100.dll
 0002:0000005c       __imp___crt_debugger_hook  1010e05c     MSVCRT:MSVCR100.dll
 0002:00000060       __imp____CppXcptFilter     1010e060     MSVCRT:MSVCR100.dll
 0002:00000064       __imp___amsg_exit          1010e064     MSVCRT:MSVCR100.dll
 0002:00000068       __imp___initterm_e         1010e068     MSVCRT:MSVCR100.dll
 0002:0000006c       __imp___initterm           1010e06c     MSVCRT:MSVCR100.dll
 0002:00000070       __imp___encoded_null       1010e070     MSVCRT:MSVCR100.dll
 0002:00000074       __imp___malloc_crt         1010e074     MSVCRT:MSVCR100.dll
 0002:00000078       __imp__memcpy              1010e078     MSVCRT:MSVCR100.dll
 0002:0000007c       __imp__strcat              1010e07c     MSVCRT:MSVCR100.dll
 0002:00000080       __imp__malloc              1010e080     MSVCRT:MSVCR100.dll
 0002:00000084       __imp__sprintf             1010e084     MSVCRT:MSVCR100.dll
 0002:00000088       __imp__free                1010e088     MSVCRT:MSVCR100.dll
 0002:0000008c       __imp___ftol               1010e08c     MSVCRT:MSVCR100.dll
 0002:00000090       __imp__memset              1010e090     MSVCRT:MSVCR100.dll
 0002:00000094       __imp__strlen              1010e094     MSVCRT:MSVCR100.dll
 0002:00000098       __imp__strcmp              1010e098     MSVCRT:MSVCR100.dll
 0002:0000009c       __imp___onexit             1010e09c     MSVCRT:MSVCR100.dll
 0002:000000a0       \177MSVCR100_NULL_THUNK_DATA 1010e0a0     MSVCRT:MSVCR100.dll
 0002:000000a4       __imp__mexErrMsgTxt        1010e0a4     libmex:libmex.dll
 0002:000000a8       __imp__mexUnlock           1010e0a8     libmex:libmex.dll
 0002:000000ac       __imp__mexIsLocked         1010e0ac     libmex:libmex.dll
 0002:000000b0       __imp__mexWarnMsgTxt       1010e0b0     libmex:libmex.dll
 0002:000000b4       __imp__mexLock             1010e0b4     libmex:libmex.dll
 0002:000000b8       __imp__mexMakeArrayPersistent 1010e0b8     libmex:libmex.dll
 0002:000000bc       __imp__mexCallMATLAB       1010e0bc     libmex:libmex.dll
 0002:000000c0       \177libmex_NULL_THUNK_DATA 1010e0c0     libmex:libmex.dll
 0002:000000c4       __imp__muDoubleScalarRound 1010e0c4     libmwmathutil:libmwmathutil.dll
 0002:000000c8       __imp__muDoubleScalarLog   1010e0c8     libmwmathutil:libmwmathutil.dll
 0002:000000cc       __imp__muDoubleScalarFloor 1010e0cc     libmwmathutil:libmwmathutil.dll
 0002:000000d0       __imp__muDoubleScalarAbs   1010e0d0     libmwmathutil:libmwmathutil.dll
 0002:000000d4       \177libmwmathutil_NULL_THUNK_DATA 1010e0d4     libmwmathutil:libmwmathutil.dll
 0002:000000d8       __imp__mxCreateStructMatrix_730 1010e0d8     libmx:libmx.dll
 0002:000000dc       __imp__mxGetPr             1010e0dc     libmx:libmx.dll
 0002:000000e0       __imp__mxCalloc            1010e0e0     libmx:libmx.dll
 0002:000000e4       __imp__mxGetM              1010e0e4     libmx:libmx.dll
 0002:000000e8       __imp__mxGetN              1010e0e8     libmx:libmx.dll
 0002:000000ec       __imp__mxIsComplex         1010e0ec     libmx:libmx.dll
 0002:000000f0       __imp__mxIsNumeric         1010e0f0     libmx:libmx.dll
 0002:000000f4       __imp__mxGetClassID        1010e0f4     libmx:libmx.dll
 0002:000000f8       __imp__mxIsEmpty           1010e0f8     libmx:libmx.dll
 0002:000000fc       __imp__mxCreateCellMatrix_730 1010e0fc     libmx:libmx.dll
 0002:00000100       __imp__mxGetScalar         1010e100     libmx:libmx.dll
 0002:00000104       __imp__mxCreateString      1010e104     libmx:libmx.dll
 0002:00000108       __imp__mxSetField_730      1010e108     libmx:libmx.dll
 0002:0000010c       __imp__mxCreateDoubleScalar 1010e10c     libmx:libmx.dll
 0002:00000110       __imp__mxDuplicateArray    1010e110     libmx:libmx.dll
 0002:00000114       __imp__mxDestroyArray      1010e114     libmx:libmx.dll
 0002:00000118       __imp__mxIsChar            1010e118     libmx:libmx.dll
 0002:0000011c       __imp__mxGetString_730     1010e11c     libmx:libmx.dll
 0002:00000120       __imp__mxCreateDoubleMatrix_730 1010e120     libmx:libmx.dll
 0002:00000124       \177libmx_NULL_THUNK_DATA  1010e124     libmx:libmx.dll
 0002:00000128       __imp__utMalloc            1010e128     libut:libut.dll
 0002:0000012c       __imp__utFree              1010e12c     libut:libut.dll
 0002:00000130       \177libut_NULL_THUNK_DATA  1010e130     libut:libut.dll
 0002:00000134       __imp__sf_mex_listen_for_ctrl_c 1010e134     sf_runtime:sf_runtime.dll
 0002:00000138       __imp__sf_debug_eml_data_array_bounds_error_check 1010e138     sf_runtime:sf_runtime.dll
 0002:0000013c       __imp__sf_debug_integer_check 1010e13c     sf_runtime:sf_runtime.dll
 0002:00000140       __imp__sf_debug_read_before_write_check 1010e140     sf_runtime:sf_runtime.dll
 0002:00000144       __imp__sf_clear_rtw_identifier 1010e144     sf_runtime:sf_runtime.dll
 0002:00000148       __imp__sf_get_subchart_simstruct 1010e148     sf_runtime:sf_runtime.dll
 0002:0000014c       __imp__sf_mex_call_debug   1010e14c     sf_runtime:sf_runtime.dll
 0002:00000150       __imp__cv_eml_init_mcdc    1010e150     sf_runtime:sf_runtime.dll
 0002:00000154       __imp__sf_mex_printf       1010e154     sf_runtime:sf_runtime.dll
 0002:00000158       __imp__sf_debug_temporal_threshold 1010e158     sf_runtime:sf_runtime.dll
 0002:0000015c       __imp__sf_debug_symbol_scope_add_eml_dyn_importable 1010e15c     sf_runtime:sf_runtime.dll
 0002:00000160       __imp__sf_debug_set_chart_event_thresholds 1010e160     sf_runtime:sf_runtime.dll
 0002:00000164       __imp__sf_mex_import_vs    1010e164     sf_runtime:sf_runtime.dll
 0002:00000168       __imp__cv_script_init_mcdc 1010e168     sf_runtime:sf_runtime.dll
 0002:0000016c       __imp__cv_script_init_if   1010e16c     sf_runtime:sf_runtime.dll
 0002:00000170       __imp__sf_debug_symbol_scope_add_eml 1010e170     sf_runtime:sf_runtime.dll
 0002:00000174       __imp__sf_debug_create_debug_instance_struct 1010e174     sf_runtime:sf_runtime.dll
 0002:00000178       __imp__sf_debug_api        1010e178     sf_runtime:sf_runtime.dll
 0002:0000017c       __imp__callMdlMethodAndReportError 1010e17c     sf_runtime:sf_runtime.dll
 0002:00000180       __imp__call_sf_machine_global_method_dispatcher 1010e180     sf_runtime:sf_runtime.dll
 0002:00000184       __imp__sf_clear_error_manager_info 1010e184     sf_runtime:sf_runtime.dll
 0002:00000188       __imp__sf_mex_error_direct_call 1010e188     sf_runtime:sf_runtime.dll
 0002:0000018c       __imp__cv_script_eval      1010e18c     sf_runtime:sf_runtime.dll
 0002:00000190       __imp__eml_debug_line_call 1010e190     sf_runtime:sf_runtime.dll
 0002:00000194       __imp__sf_debug_symbol_scope_add_importable 1010e194     sf_runtime:sf_runtime.dll
 0002:00000198       __imp__sf_call_output_fcn_call 1010e198     sf_runtime:sf_runtime.dll
 0002:0000019c       __imp__sf_debug_unset_instance_data_value_ptr 1010e19c     sf_runtime:sf_runtime.dll
 0002:000001a0       __imp__cv_eval_point       1010e1a0     sf_runtime:sf_runtime.dll
 0002:000001a4       __imp__cv_eml_eval         1010e1a4     sf_runtime:sf_runtime.dll
 0002:000001a8       __imp__sf_debug_symbol_scope_push_eml 1010e1a8     sf_runtime:sf_runtime.dll
 0002:000001ac       __imp__sf_debug_symbol_scope_add_eml_importable 1010e1ac     sf_runtime:sf_runtime.dll
 0002:000001b0       __imp__sf_mex_sub          1010e1b0     sf_runtime:sf_runtime.dll
 0002:000001b4       __imp__sf_debug_symbol_scope_push 1010e1b4     sf_runtime:sf_runtime.dll
 0002:000001b8       __imp__sf_debug_data_range_wrapper 1010e1b8     sf_runtime:sf_runtime.dll
 0002:000001bc       __imp__sf_debug_symbol_scope_pop 1010e1bc     sf_runtime:sf_runtime.dll
 0002:000001c0       __imp__sf_debug_check_for_state_inconsistency 1010e1c0     sf_runtime:sf_runtime.dll
 0002:000001c4       __imp__sf_call_output_fcn_disable 1010e1c4     sf_runtime:sf_runtime.dll
 0002:000001c8       __imp__sf_call_output_fcn_enable 1010e1c8     sf_runtime:sf_runtime.dll
 0002:000001cc       __imp__sf_get_time         1010e1cc     sf_runtime:sf_runtime.dll
 0002:000001d0       __imp__sf_get_output_port_reusable 1010e1d0     sf_runtime:sf_runtime.dll
 0002:000001d4       __imp__sf_debug_get_script_id 1010e1d4     sf_runtime:sf_runtime.dll
 0002:000001d8       __imp__sf_debug_set_script_translation 1010e1d8     sf_runtime:sf_runtime.dll
 0002:000001dc       __imp__sf_debug_set_chart_data_props 1010e1dc     sf_runtime:sf_runtime.dll
 0002:000001e0       __imp__sf_debug_set_chart_event_scope 1010e1e0     sf_runtime:sf_runtime.dll
 0002:000001e4       __imp__sf_debug_set_chart_state_info 1010e1e4     sf_runtime:sf_runtime.dll
 0002:000001e8       __imp__sf_debug_set_chart_substate_count 1010e1e8     sf_runtime:sf_runtime.dll
 0002:000001ec       __imp__sf_debug_set_chart_decomposition 1010e1ec     sf_runtime:sf_runtime.dll
 0002:000001f0       __imp__sf_debug_set_chart_substate_index 1010e1f0     sf_runtime:sf_runtime.dll
 0002:000001f4       __imp__sf_debug_set_chart_state_substate_count 1010e1f4     sf_runtime:sf_runtime.dll
 0002:000001f8       __imp__sf_debug_set_chart_state_substate_index 1010e1f8     sf_runtime:sf_runtime.dll
 0002:000001fc       __imp__sf_debug_initialize_chart 1010e1fc     sf_runtime:sf_runtime.dll
 0002:00000200       __imp__sf_debug_terminate  1010e200     sf_runtime:sf_runtime.dll
 0002:00000204       __imp__sf_debug_set_chart_disable_implicit_casting 1010e204     sf_runtime:sf_runtime.dll
 0002:00000208       __imp__sf_debug_cv_init_chart 1010e208     sf_runtime:sf_runtime.dll
 0002:0000020c       __imp__sf_debug_cv_init_state 1010e20c     sf_runtime:sf_runtime.dll
 0002:00000210       __imp__sf_debug_cv_init_trans 1010e210     sf_runtime:sf_runtime.dll
 0002:00000214       __imp__cv_eml_init_fcn     1010e214     sf_runtime:sf_runtime.dll
 0002:00000218       __imp__cv_eml_init_script  1010e218     sf_runtime:sf_runtime.dll
 0002:0000021c       __imp__cv_eml_init_if      1010e21c     sf_runtime:sf_runtime.dll
 0002:00000220       __imp__cv_eml_init_for     1010e220     sf_runtime:sf_runtime.dll
 0002:00000224       __imp__cv_script_init_script 1010e224     sf_runtime:sf_runtime.dll
 0002:00000228       __imp__cv_script_init_fcn  1010e228     sf_runtime:sf_runtime.dll
 0002:0000022c       __imp__sf_debug_set_chart_data_compiled_props 1010e22c     sf_runtime:sf_runtime.dll
 0002:00000230       __imp__sf_debug_set_instance_data_value_ptr 1010e230     sf_runtime:sf_runtime.dll
 0002:00000234       __imp__sf_debug_reset_current_state_configuration 1010e234     sf_runtime:sf_runtime.dll
 0002:00000238       __imp__sim_mode_is_rtw_gen 1010e238     sf_runtime:sf_runtime.dll
 0002:0000023c       __imp__sim_mode_is_external 1010e23c     sf_runtime:sf_runtime.dll
 0002:00000240       __imp__sf_is_chart_inlinable 1010e240     sf_runtime:sf_runtime.dll
 0002:00000244       __imp__sf_rtw_info_uint_prop 1010e244     sf_runtime:sf_runtime.dll
 0002:00000248       __imp__sf_update_buildInfo 1010e248     sf_runtime:sf_runtime.dll
 0002:0000024c       __imp__sf_mark_output_events_with_multiple_callers 1010e24c     sf_runtime:sf_runtime.dll
 0002:00000250       __imp__sf_mark_chart_expressionable_inputs 1010e250     sf_runtime:sf_runtime.dll
 0002:00000254       __imp__sf_mark_chart_reusable_outputs 1010e254     sf_runtime:sf_runtime.dll
 0002:00000258       __imp__sf_set_rtw_dwork_info 1010e258     sf_runtime:sf_runtime.dll
 0002:0000025c       __imp__sf_mex_import       1010e25c     sf_runtime:sf_runtime.dll
 0002:00000260       __imp__sf_debug_get_animation 1010e260     sf_runtime:sf_runtime.dll
 0002:00000264       __imp__sf_debug_set_animation 1010e264     sf_runtime:sf_runtime.dll
 0002:00000268       __imp__sf_debug_set_honor_breakpoints 1010e268     sf_runtime:sf_runtime.dll
 0002:0000026c       __imp__sf_debug_call       1010e26c     sf_runtime:sf_runtime.dll
 0002:00000270       __imp__sf_mex_getcell      1010e270     sf_runtime:sf_runtime.dll
 0002:00000274       __imp__sf_debug_animate    1010e274     sf_runtime:sf_runtime.dll
 0002:00000278       __imp__sf_mex_decode_encoded_mx_struct_array 1010e278     sf_runtime:sf_runtime.dll
 0002:0000027c       __imp__sf_mex_setcell      1010e27c     sf_runtime:sf_runtime.dll
 0002:00000280       __imp__sf_mex_dup          1010e280     sf_runtime:sf_runtime.dll
 0002:00000284       __imp__sf_mex_call_matlab  1010e284     sf_runtime:sf_runtime.dll
 0002:00000288       __imp__sf_mex_error_message 1010e288     sf_runtime:sf_runtime.dll
 0002:0000028c       __imp__sf_mex_create       1010e28c     sf_runtime:sf_runtime.dll
 0002:00000290       __imp__sf_mex_addfield     1010e290     sf_runtime:sf_runtime.dll
 0002:00000294       __imp__sf_mex_createcellmatrix 1010e294     sf_runtime:sf_runtime.dll
 0002:00000298       __imp__sf_mex_duplicatearraysafe 1010e298     sf_runtime:sf_runtime.dll
 0002:0000029c       __imp__sf_mex_destroy      1010e29c     sf_runtime:sf_runtime.dll
 0002:000002a0       __imp__sf_mex_createstruct 1010e2a0     sf_runtime:sf_runtime.dll
 0002:000002a4       __imp__sf_mex_assign       1010e2a4     sf_runtime:sf_runtime.dll
 0002:000002a8       __imp__sf_mex_emlrtNameCapturePostProcessR2012a 1010e2a8     sf_runtime:sf_runtime.dll
 0002:000002ac       __imp__sf_load_rtw_optimization_info 1010e2ac     sf_runtime:sf_runtime.dll
 0002:000002b0       __imp__sf_debug_initialize_machine 1010e2b0     sf_runtime:sf_runtime.dll
 0002:000002b4       __imp__sf_debug_set_machine_event_thresholds 1010e2b4     sf_runtime:sf_runtime.dll
 0002:000002b8       __imp__sf_debug_sub_assign_size_check_nd 1010e2b8     sf_runtime:sf_runtime.dll
 0002:000002bc       __imp__sf_debug_set_machine_data_thresholds 1010e2bc     sf_runtime:sf_runtime.dll
 0002:000002c0       \177sf_runtime_NULL_THUNK_DATA 1010e2c0     sf_runtime:sf_runtime.dll
 0002:000002c4       ___xc_a                    1010e2c4     MSVCRT:cinitexe.obj
 0002:000002c8       ___xc_z                    1010e2c8     MSVCRT:cinitexe.obj
 0002:000002cc       ___xi_a                    1010e2cc     MSVCRT:cinitexe.obj
 0002:000002d8       ___xi_z                    1010e2d8     MSVCRT:cinitexe.obj
 0002:000002e0       __real@41ed2db0d0600000    1010e2e0     DemoGazeFollowWaveIdle_sfun.obj
 0002:000002e8       __real@41e9ff53ab600000    1010e2e8     DemoGazeFollowWaveIdle_sfun.obj
 0002:000002f0       __real@41e5ee4a81a00000    1010e2f0     DemoGazeFollowWaveIdle_sfun.obj
 0002:000002f8       __real@41d0b6dc0a400000    1010e2f8     DemoGazeFollowWaveIdle_sfun.obj
 0002:00000300       __real@41b0fb04df000000    1010e300     DemoGazeFollowWaveIdle_sfun.obj
 0002:00000308       __real@41da14ed17400000    1010e308     DemoGazeFollowWaveIdle_sfun.obj
 0002:00000310       __real@41d47f2e8cc00000    1010e310     DemoGazeFollowWaveIdle_sfun.obj
 0002:00000318       __real@41eb0e6e75400000    1010e318     DemoGazeFollowWaveIdle_sfun.obj
 0002:00000320       __real@41ed05eff1800000    1010e320     DemoGazeFollowWaveIdle_sfun.obj
 0002:00000328       __real@41e63f1f88a00000    1010e328     DemoGazeFollowWaveIdle_sfun.obj
 0002:00000330       __real@41e58919b8a00000    1010e330     DemoGazeFollowWaveIdle_sfun.obj
 0002:00000338       __real@41e13ad4b9800000    1010e338     DemoGazeFollowWaveIdle_sfun.obj
 0002:00000340       __real@0000000000000000    1010e340     DemoGazeFollowWaveIdle_sfun.obj
 0002:00000348       __real@41b5076ec5000000    1010e348     DemoGazeFollowWaveIdle_sfun.obj
 0002:00000350       __real@41e26fff5d000000    1010e350     DemoGazeFollowWaveIdle_sfun.obj
 0002:00000358       __real@41b5709652000000    1010e358     DemoGazeFollowWaveIdle_sfun.obj
 0002:00000360       __real@41c43c5611800000    1010e360     DemoGazeFollowWaveIdle_sfun.obj
 0002:00000368       __real@41d7883788800000    1010e368     c1_DemoGazeFollowWaveIdle.obj
 0002:00000370       __real@4192f344c4000000    1010e370     c1_DemoGazeFollowWaveIdle.obj
 0002:00000378       __real@41e9db70ae400000    1010e378     c1_DemoGazeFollowWaveIdle.obj
 0002:00000380       __real@41d283958a400000    1010e380     c1_DemoGazeFollowWaveIdle.obj
 0002:00000388       __real@4014000000000000    1010e388     c1_DemoGazeFollowWaveIdle.obj
 0002:00000390       __real@4070000000000000    1010e390     c1_DemoGazeFollowWaveIdle.obj
 0002:00000398       __real@4024000000000000    1010e398     c1_DemoGazeFollowWaveIdle.obj
 0002:000003a0       __real@4030000000000000    1010e3a0     c1_DemoGazeFollowWaveIdle.obj
 0002:000003a8       __real@3ff0000000000000    1010e3a8     c1_DemoGazeFollowWaveIdle.obj
 0002:000003b0       __real@4018000000000000    1010e3b0     c1_DemoGazeFollowWaveIdle.obj
 0002:000003b8       __real@4010000000000000    1010e3b8     c1_DemoGazeFollowWaveIdle.obj
 0002:000003c0       __real@4008000000000000    1010e3c0     c1_DemoGazeFollowWaveIdle.obj
 0002:000003c8       __real@4000000000000000    1010e3c8     c1_DemoGazeFollowWaveIdle.obj
 0002:000003d0       __real@4040000000000000    1010e3d0     c1_DemoGazeFollowWaveIdle.obj
 0002:000003d8       __real@402c000000000000    1010e3d8     c4_DemoGazeFollowWaveIdle.obj
 0002:000003e0       __real@4022000000000000    1010e3e0     c4_DemoGazeFollowWaveIdle.obj
 0002:000003e8       __real@4020000000000000    1010e3e8     c4_DemoGazeFollowWaveIdle.obj
 0002:000003f0       __real@4036000000000000    1010e3f0     c4_DemoGazeFollowWaveIdle.obj
 0002:000003f8       __real@3defffffffffffff    1010e3f8     c4_DemoGazeFollowWaveIdle.obj
 0002:00000400       __real@3e00000000200000    1010e400     c4_DemoGazeFollowWaveIdle.obj
 0002:00000408       __real@40b5710000000000    1010e408     c4_DemoGazeFollowWaveIdle.obj
 0002:00000410       __real@4035000000000000    1010e410     c4_DemoGazeFollowWaveIdle.obj
 0002:00000418       __real@4034000000000000    1010e418     c4_DemoGazeFollowWaveIdle.obj
 0002:00000420       __real@4033000000000000    1010e420     c4_DemoGazeFollowWaveIdle.obj
 0002:00000428       __real@4032000000000000    1010e428     c4_DemoGazeFollowWaveIdle.obj
 0002:00000430       __real@4031000000000000    1010e430     c4_DemoGazeFollowWaveIdle.obj
 0002:00000438       __real@402e000000000000    1010e438     c4_DemoGazeFollowWaveIdle.obj
 0002:00000440       __real@402a000000000000    1010e440     c4_DemoGazeFollowWaveIdle.obj
 0002:00000448       __real@4028000000000000    1010e448     c4_DemoGazeFollowWaveIdle.obj
 0002:00000450       __real@4026000000000000    1010e450     c4_DemoGazeFollowWaveIdle.obj
 0002:00000458       __real@401c000000000000    1010e458     c4_DemoGazeFollowWaveIdle.obj
 0002:00000460       __real@405b000000000000    1010e460     c4_DemoGazeFollowWaveIdle.obj
 0002:00000468       __real@405a000000000000    1010e468     c4_DemoGazeFollowWaveIdle.obj
 0002:00000470       __real@405a800000000000    1010e470     c4_DemoGazeFollowWaveIdle.obj
 0002:00000478       __real@4062a00000000000    1010e478     c4_DemoGazeFollowWaveIdle.obj
 0002:00000480       __real@4056c00000000000    1010e480     c4_DemoGazeFollowWaveIdle.obj
 0002:00000488       __real@405a400000000000    1010e488     c4_DemoGazeFollowWaveIdle.obj
 0002:00000490       __real@4063400000000000    1010e490     c4_DemoGazeFollowWaveIdle.obj
 0002:00000498       __real@4057400000000000    1010e498     c4_DemoGazeFollowWaveIdle.obj
 0002:000004a0       __real@4057000000000000    1010e4a0     c4_DemoGazeFollowWaveIdle.obj
 0002:000004a8       __real@405b400000000000    1010e4a8     c4_DemoGazeFollowWaveIdle.obj
 0002:000004b0       __real@405ac00000000000    1010e4b0     c4_DemoGazeFollowWaveIdle.obj
 0002:000004b8       __real@405cc00000000000    1010e4b8     c4_DemoGazeFollowWaveIdle.obj
 0002:000004c0       __real@4061200000000000    1010e4c0     c4_DemoGazeFollowWaveIdle.obj
 0002:000004c8       __real@4061800000000000    1010e4c8     c4_DemoGazeFollowWaveIdle.obj
 0002:000004d0       __real@4061600000000000    1010e4d0     c4_DemoGazeFollowWaveIdle.obj
 0002:000004d8       __real@41f0000000000000    1010e4d8     c4_DemoGazeFollowWaveIdle.obj
 0002:000004e0       __real@3ca0000000000000    1010e4e0     c4_DemoGazeFollowWaveIdle.obj
 0002:000004e8       __real@4190000000000000    1010e4e8     c4_DemoGazeFollowWaveIdle.obj
 0002:000004f0       __real@406c800000000000    1010e4f0     c4_DemoGazeFollowWaveIdle.obj
 0002:000004f8       __real@4078d00000000000    1010e4f8     c4_DemoGazeFollowWaveIdle.obj
 0002:00000500       __real@4083880000000000    1010e500     c4_DemoGazeFollowWaveIdle.obj
 0002:00000508       __real@41e288e7c2600000    1010e508     c4_DemoGazeFollowWaveIdle.obj
 0002:00000510       __real@41e6ce878d600000    1010e510     c4_DemoGazeFollowWaveIdle.obj
 0002:00000518       __real@41da995483400000    1010e518     c4_DemoGazeFollowWaveIdle.obj
 0002:00000520       __real@41ef6bb45a200000    1010e520     c4_DemoGazeFollowWaveIdle.obj
 0002:00000528       __real@4058c00000000000    1010e528     c5_DemoGazeFollowWaveIdle.obj
 0002:00000530       __real@4062000000000000    1010e530     c5_DemoGazeFollowWaveIdle.obj
 0002:00000538       __real@405f400000000000    1010e538     c5_DemoGazeFollowWaveIdle.obj
 0002:00000540       __real@405fc00000000000    1010e540     c5_DemoGazeFollowWaveIdle.obj
 0002:00000548       __real@4055800000000000    1010e548     c5_DemoGazeFollowWaveIdle.obj
 0002:00000550       __real@4059800000000000    1010e550     c5_DemoGazeFollowWaveIdle.obj
 0002:00000558       __real@4055c00000000000    1010e558     c5_DemoGazeFollowWaveIdle.obj
 0002:00000560       __real@4057800000000000    1010e560     c5_DemoGazeFollowWaveIdle.obj
 0002:00000568       __real@4057c00000000000    1010e568     c5_DemoGazeFollowWaveIdle.obj
 0002:00000570       __real@4056000000000000    1010e570     c5_DemoGazeFollowWaveIdle.obj
 0002:00000578       __real@4058400000000000    1010e578     c5_DemoGazeFollowWaveIdle.obj
 0002:00000580       __real@4051000000000000    1010e580     c5_DemoGazeFollowWaveIdle.obj
 0002:00000588       __real@4064000000000000    1010e588     c5_DemoGazeFollowWaveIdle.obj
 0002:00000590       __real@4063800000000000    1010e590     c5_DemoGazeFollowWaveIdle.obj
 0002:00000598       __real@41e6043bb0000000    1010e598     c5_DemoGazeFollowWaveIdle.obj
 0002:000005a0       __real@41c7186ddf000000    1010e5a0     c5_DemoGazeFollowWaveIdle.obj
 0002:000005a8       __real@41ec4bd596a00000    1010e5a8     c5_DemoGazeFollowWaveIdle.obj
 0002:000005b0       __real@41cb54dae6000000    1010e5b0     c5_DemoGazeFollowWaveIdle.obj
 0002:000005b8       __real@4060600000000000    1010e5b8     c8_DemoGazeFollowWaveIdle.obj
 0002:000005c0       __real@4061a00000000000    1010e5c0     c8_DemoGazeFollowWaveIdle.obj
 0002:000005c8       __real@4061e00000000000    1010e5c8     c8_DemoGazeFollowWaveIdle.obj
 0002:000005d0       __real@405dc00000000000    1010e5d0     c8_DemoGazeFollowWaveIdle.obj
 0002:000005d8       __real@4069400000000000    1010e5d8     c8_DemoGazeFollowWaveIdle.obj
 0002:000005e0       __real@4056400000000000    1010e5e0     c8_DemoGazeFollowWaveIdle.obj
 0002:000005e8       __real@41ef67f6a4400000    1010e5e8     c8_DemoGazeFollowWaveIdle.obj
 0002:000005f0       __real@41d4e67aaa000000    1010e5f0     c8_DemoGazeFollowWaveIdle.obj
 0002:000005f8       __real@41ca9f1057800000    1010e5f8     c8_DemoGazeFollowWaveIdle.obj
 0002:00000600       __real@41d85d028f800000    1010e600     c8_DemoGazeFollowWaveIdle.obj
 0002:00000608       __real@4044000000000000    1010e608     c9_DemoGazeFollowWaveIdle.obj
 0002:00000610       __real@4060a00000000000    1010e610     c9_DemoGazeFollowWaveIdle.obj
 0002:00000618       __real@4039000000000000    1010e618     c9_DemoGazeFollowWaveIdle.obj
 0002:00000620       __real@4004000000000000    1010e620     c9_DemoGazeFollowWaveIdle.obj
 0002:00000628       __real@c01b99999999999a    1010e628     c9_DemoGazeFollowWaveIdle.obj
 0002:00000630       __real@402f666666666666    1010e630     c9_DemoGazeFollowWaveIdle.obj
 0002:00000638       __real@4037000000000000    1010e638     c9_DemoGazeFollowWaveIdle.obj
 0002:00000640       __real@4059000000000000    1010e640     c9_DemoGazeFollowWaveIdle.obj
 0002:00000648       __real@406fe00000000000    1010e648     c9_DemoGazeFollowWaveIdle.obj
 0002:00000650       __real@4060c00000000000    1010e650     c9_DemoGazeFollowWaveIdle.obj
 0002:00000658       __real@405e800000000000    1010e658     c9_DemoGazeFollowWaveIdle.obj
 0002:00000660       __real@405ec00000000000    1010e660     c9_DemoGazeFollowWaveIdle.obj
 0002:00000668       __real@4061000000000000    1010e668     c9_DemoGazeFollowWaveIdle.obj
 0002:00000670       __real@405e000000000000    1010e670     c9_DemoGazeFollowWaveIdle.obj
 0002:00000678       __real@4060800000000000    1010e678     c9_DemoGazeFollowWaveIdle.obj
 0002:00000680       __real@405f000000000000    1010e680     c9_DemoGazeFollowWaveIdle.obj
 0002:00000688       __real@4060400000000000    1010e688     c9_DemoGazeFollowWaveIdle.obj
 0002:00000690       __real@405f800000000000    1010e690     c9_DemoGazeFollowWaveIdle.obj
 0002:00000698       __real@4060200000000000    1010e698     c9_DemoGazeFollowWaveIdle.obj
 0002:000006a0       __real@405d000000000000    1010e6a0     c9_DemoGazeFollowWaveIdle.obj
 0002:000006a8       __real@405d400000000000    1010e6a8     c9_DemoGazeFollowWaveIdle.obj
 0002:000006b0       __real@405d800000000000    1010e6b0     c9_DemoGazeFollowWaveIdle.obj
 0002:000006b8       __real@4061400000000000    1010e6b8     c9_DemoGazeFollowWaveIdle.obj
 0002:000006c0       __real@4049000000000000    1010e6c0     c9_DemoGazeFollowWaveIdle.obj
 0002:000006c8       __real@4069c00000000000    1010e6c8     c9_DemoGazeFollowWaveIdle.obj
 0002:000006d0       __real@406e400000000000    1010e6d0     c9_DemoGazeFollowWaveIdle.obj
 0002:000006d8       __real@4062e00000000000    1010e6d8     c9_DemoGazeFollowWaveIdle.obj
 0002:000006e0       __real@406f600000000000    1010e6e0     c9_DemoGazeFollowWaveIdle.obj
 0002:000006e8       __real@405c800000000000    1010e6e8     c9_DemoGazeFollowWaveIdle.obj
 0002:000006f0       __real@4061c00000000000    1010e6f0     c9_DemoGazeFollowWaveIdle.obj
 0002:000006f8       __real@4051c00000000000    1010e6f8     c9_DemoGazeFollowWaveIdle.obj
 0002:00000700       __real@4067200000000000    1010e700     c9_DemoGazeFollowWaveIdle.obj
 0002:00000708       __real@406da00000000000    1010e708     c9_DemoGazeFollowWaveIdle.obj
 0002:00000710       __real@408f380000000000    1010e710     c9_DemoGazeFollowWaveIdle.obj
 0002:00000718       __real@4052c00000000000    1010e718     c9_DemoGazeFollowWaveIdle.obj
 0002:00000720       __real@4052800000000000    1010e720     c9_DemoGazeFollowWaveIdle.obj
 0002:00000728       __real@4048800000000000    1010e728     c9_DemoGazeFollowWaveIdle.obj
 0002:00000730       __real@4038000000000000    1010e730     c9_DemoGazeFollowWaveIdle.obj
 0002:00000738       __real@4062600000000000    1010e738     c9_DemoGazeFollowWaveIdle.obj
 0002:00000740       __real@4064a00000000000    1010e740     c9_DemoGazeFollowWaveIdle.obj
 0002:00000748       __real@4060e00000000000    1010e748     c9_DemoGazeFollowWaveIdle.obj
 0002:00000750       __real@405e400000000000    1010e750     c9_DemoGazeFollowWaveIdle.obj
 0002:00000758       __real@41e8e4b738800000    1010e758     c9_DemoGazeFollowWaveIdle.obj
 0002:00000760       __real@41d81f876f000000    1010e760     c9_DemoGazeFollowWaveIdle.obj
 0002:00000768       __real@41e8774d1a200000    1010e768     c9_DemoGazeFollowWaveIdle.obj
 0002:00000770       __real@41dc1e0354c00000    1010e770     c9_DemoGazeFollowWaveIdle.obj
 0002:00000778       __real@406cc00000000000    1010e778     c11_DemoGazeFollowWaveIdle.obj
 0002:00000780       __real@41c57ade9b000000    1010e780     c11_DemoGazeFollowWaveIdle.obj
 0002:00000788       __real@41e8a17e06a00000    1010e788     c11_DemoGazeFollowWaveIdle.obj
 0002:00000790       __real@41b31ca5f9000000    1010e790     c11_DemoGazeFollowWaveIdle.obj
 0002:00000798       __real@41eba77a1a200000    1010e798     c11_DemoGazeFollowWaveIdle.obj
 0002:000007a0       __real@41ebdea937800000    1010e7a0     c17_DemoGazeFollowWaveIdle.obj
 0002:000007a8       __real@41e8107d18200000    1010e7a8     c17_DemoGazeFollowWaveIdle.obj
 0002:000007b0       __real@41ed7b35f8000000    1010e7b0     c17_DemoGazeFollowWaveIdle.obj
 0002:000007b8       __real@41d7613076c00000    1010e7b8     c17_DemoGazeFollowWaveIdle.obj
 0002:000007c0       __real@405b800000000000    1010e7c0     c20_DemoGazeFollowWaveIdle.obj
 0002:000007c8       __real@405bc00000000000    1010e7c8     c20_DemoGazeFollowWaveIdle.obj
 0002:000007d0       __real@4059c00000000000    1010e7d0     c20_DemoGazeFollowWaveIdle.obj
 0002:000007d8       __real@41dd4fd411000000    1010e7d8     c20_DemoGazeFollowWaveIdle.obj
 0002:000007e0       __real@41daa01476000000    1010e7e0     c20_DemoGazeFollowWaveIdle.obj
 0002:000007e8       __real@41e0eddba5c00000    1010e7e8     c20_DemoGazeFollowWaveIdle.obj
 0002:000007f0       __real@41e2a15e11400000    1010e7f0     c20_DemoGazeFollowWaveIdle.obj
 0002:000007f8       _DYNAMIC_DIMENSION_DEF     1010e7f8     DemoGazeFollowWaveIdle_sfun_registry.obj
 0002:00000808       __ssBadLevel2InputAccessMsg 1010e808     DemoGazeFollowWaveIdle_sfun_registry.obj
 0002:00000990       __ssBadLevel2DirectFeedMsg 1010e990     DemoGazeFollowWaveIdle_sfun_registry.obj
 0002:00000ad0       __ssBadLevel2DirectFeedSolutionMsg 1010ead0     DemoGazeFollowWaveIdle_sfun_registry.obj
 0002:00000b40       __ssBadLevel2ZeroDirectFeedMsg 1010eb40     DemoGazeFollowWaveIdle_sfun_registry.obj
 0002:00000c80       __ssBadLevel2ZeroDirectFeedMsg2 1010ec80     DemoGazeFollowWaveIdle_sfun_registry.obj
 0002:00000d68       __real@bff0000000000000    1010ed68     DemoGazeFollowWaveIdle_sfun_registry.obj
 0002:00000d70       __real@4153d65940000000    1010ed70     DemoGazeFollowWaveIdle_sfun_registry.obj
 0002:00000d78       __pRawDllMain              1010ed78     MSVCRT:crtdll.obj
 0002:00000d78       __pDefaultRawDllMain       1010ed78     MSVCRT:crtdll.obj
 0002:00000d84       ?ProcessDetach@NativeDll@<CrtImplementationDetails>@@0IB 1010ed84     MSVCRT:tncleanup.obj
 0002:00000d88       ?ProcessAttach@NativeDll@<CrtImplementationDetails>@@0IB 1010ed88     MSVCRT:tncleanup.obj
 0002:00000d8c       ?ThreadAttach@NativeDll@<CrtImplementationDetails>@@0IB 1010ed8c     MSVCRT:tncleanup.obj
 0002:00000d90       ?ThreadDetach@NativeDll@<CrtImplementationDetails>@@0IB 1010ed90     MSVCRT:tncleanup.obj
 0002:00000d94       ?ProcessVerifier@NativeDll@<CrtImplementationDetails>@@0IB 1010ed94     MSVCRT:tncleanup.obj
 0002:00000d98       ___rtc_iaa                 1010ed98     MSVCRT:_initsect_.obj
 0002:00000d9c       ___rtc_izz                 1010ed9c     MSVCRT:_initsect_.obj
 0002:00000da0       ___rtc_taa                 1010eda0     MSVCRT:_initsect_.obj
 0002:00000da4       ___rtc_tzz                 1010eda4     MSVCRT:_initsect_.obj
 0002:00000e0c       __IMPORT_DESCRIPTOR_sf_runtime 1010ee0c     sf_runtime:sf_runtime.dll
 0002:00000e20       __IMPORT_DESCRIPTOR_libmx  1010ee20     libmx:libmx.dll
 0002:00000e34       __IMPORT_DESCRIPTOR_libmex 1010ee34     libmex:libmex.dll
 0002:00000e48       __IMPORT_DESCRIPTOR_libut  1010ee48     libut:libut.dll
 0002:00000e5c       __IMPORT_DESCRIPTOR_libmwmathutil 1010ee5c     libmwmathutil:libmwmathutil.dll
 0002:00000e70       __IMPORT_DESCRIPTOR_MSVCR100 1010ee70     MSVCRT:MSVCR100.dll
 0002:00000e84       __IMPORT_DESCRIPTOR_KERNEL32 1010ee84     kernel32:KERNEL32.dll
 0002:00000e98       __NULL_IMPORT_DESCRIPTOR   1010ee98     sf_runtime:sf_runtime.dll
 0003:0004fc9c       _DYNAMIC_DIMENSION         10160c9c     DemoGazeFollowWaveIdle_sfun_registry.obj
 0003:00050828       ___security_cookie         10161828     MSVCRT:gs_cookie.obj
 0003:0005082c       ___security_cookie_complement 1016182c     MSVCRT:gs_cookie.obj
 0003:00050830       ___native_dllmain_reason   10161830     MSVCRT:natstart.obj
 0003:00050834       ___native_vcclrit_reason   10161834     MSVCRT:natstart.obj
 0003:00050ad8       _sfGlobalDebugInstanceStruct 10161ad8     DemoGazeFollowWaveIdle_sfun_registry.obj
 0003:00050e0c       ?__type_info_root_node@@3U__type_info_node@@A 10161e0c     MSVCRT:tncleanup.obj
 0003:00050e14       __DemoGazeFollowWaveIdleMachineNumber_ 10161e14     <common>
 0003:00050e18       ___native_startup_state    10161e18     <common>
 0003:00050e1c       ___native_startup_lock     10161e1c     <common>
 0003:00050e20       ___onexitend               10161e20     <common>
 0003:00050e24       ___onexitbegin             10161e24     <common>
 0003:00050e28       ___sse2_available          10161e28     <common>
 0003:00050e2c       ___dyn_tls_init_callback   10161e2c     <common>

 entry point at        0001:0010c895

 Static symbols

 0001:000013b0       _c1_info_helper            100023b0 f   c1_DemoGazeFollowWaveIdle.obj
 0001:00001d20       _c1_emlrt_marshallOut      10002d20 f   c1_DemoGazeFollowWaveIdle.obj
 0001:00001d80       _c1_b_emlrt_marshallOut    10002d80 f   c1_DemoGazeFollowWaveIdle.obj
 0001:00007600       _get_sim_state_c1_DemoGazeFollowWaveIdle 10008600 f   c1_DemoGazeFollowWaveIdle.obj
 0001:00009ff0       _c1_get_BML                1000aff0 f   c1_DemoGazeFollowWaveIdle.obj
 0001:0000a080       _c1_get_BML1               1000b080 f   c1_DemoGazeFollowWaveIdle.obj
 0001:0000a110       _c1_get_BML2               1000b110 f   c1_DemoGazeFollowWaveIdle.obj
 0001:0000a1a0       _c1_get_BORED              1000b1a0 f   c1_DemoGazeFollowWaveIdle.obj
 0001:0000a230       _c1_get_BOREDOM_THRESHOLD  1000b230 f   c1_DemoGazeFollowWaveIdle.obj
 0001:0000a2c0       _c1_get_CONTEMPT           1000b2c0 f   c1_DemoGazeFollowWaveIdle.obj
 0001:0000a350       _c1_get_EXCITE             1000b350 f   c1_DemoGazeFollowWaveIdle.obj
 0001:0000a3e0       _c1_get_FEAR               1000b3e0 f   c1_DemoGazeFollowWaveIdle.obj
 0001:0000a470       _c1_get_FRUST              1000b470 f   c1_DemoGazeFollowWaveIdle.obj
 0001:0000a500       _c1_get_GAZE_GUI           1000b500 f   c1_DemoGazeFollowWaveIdle.obj
 0001:0000a590       _c1_get_GAZE_SOFTEYE       1000b590 f   c1_DemoGazeFollowWaveIdle.obj
 0001:0000a620       _c1_get_GAZE_USER_HAND     1000b620 f   c1_DemoGazeFollowWaveIdle.obj
 0001:0000a6b0       _c1_get_GAZE_WIN           1000b6b0 f   c1_DemoGazeFollowWaveIdle.obj
 0001:0000a740       _c1_get_HAPPY              1000b740 f   c1_DemoGazeFollowWaveIdle.obj
 0001:0000a7d0       _c1_get_IDLE               1000b7d0 f   c1_DemoGazeFollowWaveIdle.obj
 0001:0000a860       _c1_get_P                  1000b860 f   c1_DemoGazeFollowWaveIdle.obj
 0001:0000a8f0       _c1_get_SAD                1000b8f0 f   c1_DemoGazeFollowWaveIdle.obj
 0001:0000a980       _c1_get_STATE_BEFORE       1000b980 f   c1_DemoGazeFollowWaveIdle.obj
 0001:0000aa10       _c1_get_STATE_GO           1000ba10 f   c1_DemoGazeFollowWaveIdle.obj
 0001:0000aaa0       _c1_get_STATE_HAND         1000baa0 f   c1_DemoGazeFollowWaveIdle.obj
 0001:0000ab30       _c1_get_STATE_OVER         1000bb30 f   c1_DemoGazeFollowWaveIdle.obj
 0001:0000abc0       _c1_get_STATE_READY        1000bbc0 f   c1_DemoGazeFollowWaveIdle.obj
 0001:0000ac50       _c1_get_STATE_RESULT       1000bc50 f   c1_DemoGazeFollowWaveIdle.obj
 0001:0000ace0       _c1_get_STATE_WAIT         1000bce0 f   c1_DemoGazeFollowWaveIdle.obj
 0001:0000ad70       _c1_get_avert              1000bd70 f   c1_DemoGazeFollowWaveIdle.obj
 0001:0000ae00       _c1_get_bHand              1000be00 f   c1_DemoGazeFollowWaveIdle.obj
 0001:0000ae90       _c1_get_bmlsH              1000be90 f   c1_DemoGazeFollowWaveIdle.obj
 0001:0000af20       _c1_get_bmlsL              1000bf20 f   c1_DemoGazeFollowWaveIdle.obj
 0001:0000afb0       _c1_get_bmlsM              1000bfb0 f   c1_DemoGazeFollowWaveIdle.obj
 0001:0000b040       _c1_get_boredom            1000c040 f   c1_DemoGazeFollowWaveIdle.obj
 0001:0000b0d0       _c1_get_changeFlag         1000c0d0 f   c1_DemoGazeFollowWaveIdle.obj
 0001:0000b160       _c1_get_diff               1000c160 f   c1_DemoGazeFollowWaveIdle.obj
 0001:0000b1f0       _c1_get_fileID             1000c1f0 f   c1_DemoGazeFollowWaveIdle.obj
 0001:0000b280       _c1_get_gazing             1000c280 f   c1_DemoGazeFollowWaveIdle.obj
 0001:0000b310       _c1_get_interest           1000c310 f   c1_DemoGazeFollowWaveIdle.obj
 0001:0000b3a0       _c1_get_n                  1000c3a0 f   c1_DemoGazeFollowWaveIdle.obj
 0001:0000b430       _c1_get_pa                 1000c430 f   c1_DemoGazeFollowWaveIdle.obj
 0001:0000b4c0       _c1_get_pr                 1000c4c0 f   c1_DemoGazeFollowWaveIdle.obj
 0001:0000b550       _c1_get_r                  1000c550 f   c1_DemoGazeFollowWaveIdle.obj
 0001:0000b5e0       _c1_get_randAvertGazeChance 1000c5e0 f   c1_DemoGazeFollowWaveIdle.obj
 0001:0000b670       _c1_get_randGazeDur        1000c670 f   c1_DemoGazeFollowWaveIdle.obj
 0001:0000b700       _c1_get_randPoseChance     1000c700 f   c1_DemoGazeFollowWaveIdle.obj
 0001:0000b790       _c1_get_randSlowPose       1000c790 f   c1_DemoGazeFollowWaveIdle.obj
 0001:0000b820       _c1_get_randSmile          1000c820 f   c1_DemoGazeFollowWaveIdle.obj
 0001:0000b8b0       _c1_get_s                  1000c8b0 f   c1_DemoGazeFollowWaveIdle.obj
 0001:0000b940       _c1_get_t                  1000c940 f   c1_DemoGazeFollowWaveIdle.obj
 0001:0000b9d0       _c1_get_temp               1000c9d0 f   c1_DemoGazeFollowWaveIdle.obj
 0001:0000ba60       _c1_get_uHand              1000ca60 f   c1_DemoGazeFollowWaveIdle.obj
 0001:0000baf0       _sf_get_sim_state_info_c1_DemoGazeFollowWaveIdle 1000caf0 f   c1_DemoGazeFollowWaveIdle.obj
 0001:0000bca0       _set_sim_state_c1_DemoGazeFollowWaveIdle 1000cca0 f   c1_DemoGazeFollowWaveIdle.obj
 0001:0000d430       _c1_update_debugger_state_c1_DemoGazeFollowWaveIdle 1000e430 f   c1_DemoGazeFollowWaveIdle.obj
 0001:0000df20       _c1_emlrt_marshallIn       1000ef20 f   c1_DemoGazeFollowWaveIdle.obj
 0001:0000df70       _c1_b_emlrt_marshallIn     1000ef70 f   c1_DemoGazeFollowWaveIdle.obj
 0001:0000dfc0       _c1_d_emlrt_marshallIn     1000efc0 f   c1_DemoGazeFollowWaveIdle.obj
 0001:0000e010       _c1_e_emlrt_marshallIn     1000f010 f   c1_DemoGazeFollowWaveIdle.obj
 0001:0000e0c0       _c1_i_emlrt_marshallIn     1000f0c0 f   c1_DemoGazeFollowWaveIdle.obj
 0001:0000e110       _c1_j_emlrt_marshallIn     1000f110 f   c1_DemoGazeFollowWaveIdle.obj
 0001:0000e160       _c1_k_emlrt_marshallIn     1000f160 f   c1_DemoGazeFollowWaveIdle.obj
 0001:0000e1b0       _c1_l_emlrt_marshallIn     1000f1b0 f   c1_DemoGazeFollowWaveIdle.obj
 0001:0000e260       _c1_m_emlrt_marshallIn     1000f260 f   c1_DemoGazeFollowWaveIdle.obj
 0001:0000e2c0       _c1_n_emlrt_marshallIn     1000f2c0 f   c1_DemoGazeFollowWaveIdle.obj
 0001:0000e300       _c1_set_BML                1000f300 f   c1_DemoGazeFollowWaveIdle.obj
 0001:0000e390       _c1_set_BML1               1000f390 f   c1_DemoGazeFollowWaveIdle.obj
 0001:0000e420       _c1_set_BML2               1000f420 f   c1_DemoGazeFollowWaveIdle.obj
 0001:0000e4b0       _c1_set_BORED              1000f4b0 f   c1_DemoGazeFollowWaveIdle.obj
 0001:0000e540       _c1_set_BOREDOM_THRESHOLD  1000f540 f   c1_DemoGazeFollowWaveIdle.obj
 0001:0000e5d0       _c1_set_CONTEMPT           1000f5d0 f   c1_DemoGazeFollowWaveIdle.obj
 0001:0000e660       _c1_set_EXCITE             1000f660 f   c1_DemoGazeFollowWaveIdle.obj
 0001:0000e6f0       _c1_set_FEAR               1000f6f0 f   c1_DemoGazeFollowWaveIdle.obj
 0001:0000e780       _c1_set_FRUST              1000f780 f   c1_DemoGazeFollowWaveIdle.obj
 0001:0000e810       _c1_set_GAZE_GUI           1000f810 f   c1_DemoGazeFollowWaveIdle.obj
 0001:0000e8a0       _c1_set_GAZE_SOFTEYE       1000f8a0 f   c1_DemoGazeFollowWaveIdle.obj
 0001:0000e930       _c1_set_GAZE_USER_HAND     1000f930 f   c1_DemoGazeFollowWaveIdle.obj
 0001:0000e9c0       _c1_set_GAZE_WIN           1000f9c0 f   c1_DemoGazeFollowWaveIdle.obj
 0001:0000ea50       _c1_set_HAPPY              1000fa50 f   c1_DemoGazeFollowWaveIdle.obj
 0001:0000eae0       _c1_set_IDLE               1000fae0 f   c1_DemoGazeFollowWaveIdle.obj
 0001:0000eb70       _c1_set_P                  1000fb70 f   c1_DemoGazeFollowWaveIdle.obj
 0001:0000ec00       _c1_set_SAD                1000fc00 f   c1_DemoGazeFollowWaveIdle.obj
 0001:0000ec90       _c1_set_STATE_BEFORE       1000fc90 f   c1_DemoGazeFollowWaveIdle.obj
 0001:0000ed20       _c1_set_STATE_GO           1000fd20 f   c1_DemoGazeFollowWaveIdle.obj
 0001:0000edb0       _c1_set_STATE_HAND         1000fdb0 f   c1_DemoGazeFollowWaveIdle.obj
 0001:0000ee40       _c1_set_STATE_OVER         1000fe40 f   c1_DemoGazeFollowWaveIdle.obj
 0001:0000eed0       _c1_set_STATE_READY        1000fed0 f   c1_DemoGazeFollowWaveIdle.obj
 0001:0000ef60       _c1_set_STATE_RESULT       1000ff60 f   c1_DemoGazeFollowWaveIdle.obj
 0001:0000eff0       _c1_set_STATE_WAIT         1000fff0 f   c1_DemoGazeFollowWaveIdle.obj
 0001:0000f080       _c1_set_avert              10010080 f   c1_DemoGazeFollowWaveIdle.obj
 0001:0000f110       _c1_set_bHand              10010110 f   c1_DemoGazeFollowWaveIdle.obj
 0001:0000f1a0       _c1_set_bmlsH              100101a0 f   c1_DemoGazeFollowWaveIdle.obj
 0001:0000f230       _c1_set_bmlsL              10010230 f   c1_DemoGazeFollowWaveIdle.obj
 0001:0000f2c0       _c1_set_bmlsM              100102c0 f   c1_DemoGazeFollowWaveIdle.obj
 0001:0000f350       _c1_set_boredom            10010350 f   c1_DemoGazeFollowWaveIdle.obj
 0001:0000f3e0       _c1_set_changeFlag         100103e0 f   c1_DemoGazeFollowWaveIdle.obj
 0001:0000f470       _c1_set_diff               10010470 f   c1_DemoGazeFollowWaveIdle.obj
 0001:0000f500       _c1_set_fileID             10010500 f   c1_DemoGazeFollowWaveIdle.obj
 0001:0000f590       _c1_set_gazing             10010590 f   c1_DemoGazeFollowWaveIdle.obj
 0001:0000f620       _c1_set_interest           10010620 f   c1_DemoGazeFollowWaveIdle.obj
 0001:0000f6b0       _c1_set_n                  100106b0 f   c1_DemoGazeFollowWaveIdle.obj
 0001:0000f740       _c1_set_pa                 10010740 f   c1_DemoGazeFollowWaveIdle.obj
 0001:0000f7d0       _c1_set_pr                 100107d0 f   c1_DemoGazeFollowWaveIdle.obj
 0001:0000f860       _c1_set_r                  10010860 f   c1_DemoGazeFollowWaveIdle.obj
 0001:0000f8f0       _c1_set_randAvertGazeChance 100108f0 f   c1_DemoGazeFollowWaveIdle.obj
 0001:0000f980       _c1_set_randGazeDur        10010980 f   c1_DemoGazeFollowWaveIdle.obj
 0001:0000fa10       _c1_set_randPoseChance     10010a10 f   c1_DemoGazeFollowWaveIdle.obj
 0001:0000faa0       _c1_set_randSlowPose       10010aa0 f   c1_DemoGazeFollowWaveIdle.obj
 0001:0000fb30       _c1_set_randSmile          10010b30 f   c1_DemoGazeFollowWaveIdle.obj
 0001:0000fbc0       _c1_set_s                  10010bc0 f   c1_DemoGazeFollowWaveIdle.obj
 0001:0000fc50       _c1_set_t                  10010c50 f   c1_DemoGazeFollowWaveIdle.obj
 0001:0000fce0       _c1_set_temp               10010ce0 f   c1_DemoGazeFollowWaveIdle.obj
 0001:0000fd70       _c1_set_uHand              10010d70 f   c1_DemoGazeFollowWaveIdle.obj
 0001:0000fe60       _mdlProcessParameters_c1_DemoGazeFollowWaveIdle 10010e60 f   c1_DemoGazeFollowWaveIdle.obj
 0001:0000ff10       _initialize_params_c1_DemoGazeFollowWaveIdle 10010f10 f   c1_DemoGazeFollowWaveIdle.obj
 0001:0000ff20       _mdlSetWorkWidths_c1_DemoGazeFollowWaveIdle 10010f20 f   c1_DemoGazeFollowWaveIdle.obj
 0001:00010470       _sf_get_instance_specialization 10011470 f   c1_DemoGazeFollowWaveIdle.obj
 0001:00010480       _mdlStart_c1_DemoGazeFollowWaveIdle 10011480 f   c1_DemoGazeFollowWaveIdle.obj
 0001:00010620       _init_dsm_address_info     10011620 f   c1_DemoGazeFollowWaveIdle.obj
 0001:00011eb0       _chart_debug_initialization 10012eb0 f   c1_DemoGazeFollowWaveIdle.obj
 0001:00017610       _init_script_number_translation 10018610 f   c1_DemoGazeFollowWaveIdle.obj
 0001:00017650       _c1_sf_marshallOut         10018650 f   c1_DemoGazeFollowWaveIdle.obj
 0001:000176d0       _c1_sf_marshallIn          100186d0 f   c1_DemoGazeFollowWaveIdle.obj
 0001:00017750       _c1_d_sf_marshallOut       10018750 f   c1_DemoGazeFollowWaveIdle.obj
 0001:00017900       _c1_c_sf_marshallIn        10018900 f   c1_DemoGazeFollowWaveIdle.obj
 0001:00017a00       _c1_e_sf_marshallOut       10018a00 f   c1_DemoGazeFollowWaveIdle.obj
 0001:00017a80       _c1_i_sf_marshallOut       10018a80 f   c1_DemoGazeFollowWaveIdle.obj
 0001:00017b80       _c1_j_sf_marshallOut       10018b80 f   c1_DemoGazeFollowWaveIdle.obj
 0001:00017cb0       _c1_h_sf_marshallIn        10018cb0 f   c1_DemoGazeFollowWaveIdle.obj
 0001:00017d80       _sf_opaque_initialize_c1_DemoGazeFollowWaveIdle 10018d80 f   c1_DemoGazeFollowWaveIdle.obj
 0001:00017db0       _initialize_c1_DemoGazeFollowWaveIdle 10018db0 f   c1_DemoGazeFollowWaveIdle.obj
 0001:000185b0       _sf_opaque_enable_c1_DemoGazeFollowWaveIdle 100195b0 f   c1_DemoGazeFollowWaveIdle.obj
 0001:000185d0       _enable_c1_DemoGazeFollowWaveIdle 100195d0 f   c1_DemoGazeFollowWaveIdle.obj
 0001:00018700       _sf_opaque_disable_c1_DemoGazeFollowWaveIdle 10019700 f   c1_DemoGazeFollowWaveIdle.obj
 0001:00018720       _disable_c1_DemoGazeFollowWaveIdle 10019720 f   c1_DemoGazeFollowWaveIdle.obj
 0001:00018850       _sf_opaque_gateway_c1_DemoGazeFollowWaveIdle 10019850 f   c1_DemoGazeFollowWaveIdle.obj
 0001:00018870       _sf_gateway_c1_DemoGazeFollowWaveIdle 10019870 f   c1_DemoGazeFollowWaveIdle.obj
 0001:0001a130       _c1_set_sim_state_side_effects_c1_DemoGazeFollowWaveIdle 1001b130 f   c1_DemoGazeFollowWaveIdle.obj
 0001:0001a400       _c1_broadcast_secs         1001b400 f   c1_DemoGazeFollowWaveIdle.obj
 0001:0001b650       _c1_sendBMLbyPriority      1001c650 f   c1_DemoGazeFollowWaveIdle.obj
 0001:0001e040       _c1_enter_atomic_sendH     1001f040 f   c1_DemoGazeFollowWaveIdle.obj
 0001:0001e690       _c1_enter_atomic_sendM     1001f690 f   c1_DemoGazeFollowWaveIdle.obj
 0001:0001ed30       _c1_low                    1001fd30 f   c1_DemoGazeFollowWaveIdle.obj
 0001:00020080       _c1_encStr2Arr             10021080 f   c1_DemoGazeFollowWaveIdle.obj
 0001:00020540       _c1_b_sf_marshallOut       10021540 f   c1_DemoGazeFollowWaveIdle.obj
 0001:00020670       _c1_b_sf_marshallIn        10021670 f   c1_DemoGazeFollowWaveIdle.obj
 0001:00020740       _c1_c_emlrt_marshallIn     10021740 f   c1_DemoGazeFollowWaveIdle.obj
 0001:000207e0       _c1_c_sf_marshallOut       100217e0 f   c1_DemoGazeFollowWaveIdle.obj
 0001:00020860       _c1_d_sf_marshallIn        10021860 f   c1_DemoGazeFollowWaveIdle.obj
 0001:000208e0       _c1_f_emlrt_marshallIn     100218e0 f   c1_DemoGazeFollowWaveIdle.obj
 0001:00020930       _c1_removeQueue            10021930 f   c1_DemoGazeFollowWaveIdle.obj
 0001:00020fd0       _c1_isEmptyQueue           10021fd0 f   c1_DemoGazeFollowWaveIdle.obj
 0001:00021740       _c1_updateDataWrittenToVector 10022740 f   c1_DemoGazeFollowWaveIdle.obj
 0001:00021790       _c1_errorIfDataNotWrittenToFcn 10022790 f   c1_DemoGazeFollowWaveIdle.obj
 0001:00021810       _sf_opaque_get_sim_state_c1_DemoGazeFollowWaveIdle 10022810 f   c1_DemoGazeFollowWaveIdle.obj
 0001:00021830       _sf_opaque_set_sim_state_c1_DemoGazeFollowWaveIdle 10022830 f   c1_DemoGazeFollowWaveIdle.obj
 0001:00021850       _sf_opaque_terminate_c1_DemoGazeFollowWaveIdle 10022850 f   c1_DemoGazeFollowWaveIdle.obj
 0001:000218e0       _finalize_c1_DemoGazeFollowWaveIdle 100228e0 f   c1_DemoGazeFollowWaveIdle.obj
 0001:00021960       _sf_opaque_init_subchart_simstructs 10022960 f   c1_DemoGazeFollowWaveIdle.obj
 0001:00021980       _initSimStructsc1_DemoGazeFollowWaveIdle 10022980 f   c1_DemoGazeFollowWaveIdle.obj
 0001:00021a50       _mdlRTW_c1_DemoGazeFollowWaveIdle 10022a50 f   c1_DemoGazeFollowWaveIdle.obj
 0001:00021a90       _initialize_c2_DemoGazeFollowWaveIdle 10022a90 f   c2_DemoGazeFollowWaveIdle.obj
 0001:00021ad0       _initialize_params_c2_DemoGazeFollowWaveIdle 10022ad0 f   c2_DemoGazeFollowWaveIdle.obj
 0001:00021ad5       _enable_c2_DemoGazeFollowWaveIdle 10022ad5 f   c2_DemoGazeFollowWaveIdle.obj
 0001:00021afc       _disable_c2_DemoGazeFollowWaveIdle 10022afc f   c2_DemoGazeFollowWaveIdle.obj
 0001:00021b23       _c2_update_debugger_state_c2_DemoGazeFollowWaveIdle 10022b23 f   c2_DemoGazeFollowWaveIdle.obj
 0001:00021b28       _get_sim_state_c2_DemoGazeFollowWaveIdle 10022b28 f   c2_DemoGazeFollowWaveIdle.obj
 0001:00021bd9       _set_sim_state_c2_DemoGazeFollowWaveIdle 10022bd9 f   c2_DemoGazeFollowWaveIdle.obj
 0001:00021c56       _finalize_c2_DemoGazeFollowWaveIdle 10022c56 f   c2_DemoGazeFollowWaveIdle.obj
 0001:00021c5b       _sf_gateway_c2_DemoGazeFollowWaveIdle 10022c5b f   c2_DemoGazeFollowWaveIdle.obj
 0001:00022bc9       _initSimStructsc2_DemoGazeFollowWaveIdle 10023bc9 f   c2_DemoGazeFollowWaveIdle.obj
 0001:00022bce       _init_script_number_translation 10023bce f   c2_DemoGazeFollowWaveIdle.obj
 0001:00022bd3       _c2_sf_marshallOut         10023bd3 f   c2_DemoGazeFollowWaveIdle.obj
 0001:00022c4a       _c2_emlrt_marshallIn       10023c4a f   c2_DemoGazeFollowWaveIdle.obj
 0001:00022c94       _c2_sf_marshallIn          10023c94 f   c2_DemoGazeFollowWaveIdle.obj
 0001:00022d65       _c2_info_helper            10023d65 f   c2_DemoGazeFollowWaveIdle.obj
 0001:00022f74       _c2_emlrt_marshallOut      10023f74 f   c2_DemoGazeFollowWaveIdle.obj
 0001:00022fc6       _c2_b_emlrt_marshallOut    10023fc6 f   c2_DemoGazeFollowWaveIdle.obj
 0001:0002300f       _c2_b_sf_marshallOut       1002400f f   c2_DemoGazeFollowWaveIdle.obj
 0001:00023086       _c2_b_emlrt_marshallIn     10024086 f   c2_DemoGazeFollowWaveIdle.obj
 0001:000230cf       _c2_b_sf_marshallIn        100240cf f   c2_DemoGazeFollowWaveIdle.obj
 0001:00023147       _c2_c_emlrt_marshallIn     10024147 f   c2_DemoGazeFollowWaveIdle.obj
 0001:00023194       _c2_d_emlrt_marshallIn     10024194 f   c2_DemoGazeFollowWaveIdle.obj
 0001:000231df       _init_dsm_address_info     100241df f   c2_DemoGazeFollowWaveIdle.obj
 0001:00023a30       _sf_get_sim_state_info_c2_DemoGazeFollowWaveIdle 10024a30 f   c2_DemoGazeFollowWaveIdle.obj
 0001:00023aca       _chart_debug_initialization 10024aca f   c2_DemoGazeFollowWaveIdle.obj
 0001:00024257       _sf_get_instance_specialization 10025257 f   c2_DemoGazeFollowWaveIdle.obj
 0001:0002425e       _sf_opaque_initialize_c2_DemoGazeFollowWaveIdle 1002525e f   c2_DemoGazeFollowWaveIdle.obj
 0001:0002428f       _sf_opaque_enable_c2_DemoGazeFollowWaveIdle 1002528f f   c2_DemoGazeFollowWaveIdle.obj
 0001:0002429f       _sf_opaque_disable_c2_DemoGazeFollowWaveIdle 1002529f f   c2_DemoGazeFollowWaveIdle.obj
 0001:000242af       _sf_opaque_gateway_c2_DemoGazeFollowWaveIdle 100252af f   c2_DemoGazeFollowWaveIdle.obj
 0001:0002447f       _sf_opaque_get_sim_state_c2_DemoGazeFollowWaveIdle 1002547f f   c2_DemoGazeFollowWaveIdle.obj
 0001:00024491       _sf_opaque_set_sim_state_c2_DemoGazeFollowWaveIdle 10025491 f   c2_DemoGazeFollowWaveIdle.obj
 0001:000244a4       _sf_opaque_terminate_c2_DemoGazeFollowWaveIdle 100254a4 f   c2_DemoGazeFollowWaveIdle.obj
 0001:00024532       _sf_opaque_init_subchart_simstructs 10025532 f   c2_DemoGazeFollowWaveIdle.obj
 0001:00024542       _mdlProcessParameters_c2_DemoGazeFollowWaveIdle 10025542 f   c2_DemoGazeFollowWaveIdle.obj
 0001:000245d9       _mdlSetWorkWidths_c2_DemoGazeFollowWaveIdle 100255d9 f   c2_DemoGazeFollowWaveIdle.obj
 0001:000249c5       _mdlRTW_c2_DemoGazeFollowWaveIdle 100259c5 f   c2_DemoGazeFollowWaveIdle.obj
 0001:000249f3       _mdlStart_c2_DemoGazeFollowWaveIdle 100259f3 f   c2_DemoGazeFollowWaveIdle.obj
 0001:00024c70       _c4_info_helper            10025c70 f   c4_DemoGazeFollowWaveIdle.obj
 0001:000297f0       _c4_emlrt_marshallOut      1002a7f0 f   c4_DemoGazeFollowWaveIdle.obj
 0001:00029850       _c4_b_emlrt_marshallOut    1002a850 f   c4_DemoGazeFollowWaveIdle.obj
 0001:000298d0       _c4_activate_secsc4_DemoGazeFollowWaveIdle 1002a8d0 f   c4_DemoGazeFollowWaveIdle.obj
 0001:00029960       _c4_increment_counters_secsc4_DemoGazeFollowWaveIdle 1002a960 f   c4_DemoGazeFollowWaveIdle.obj
 0001:000299c0       _c4_reset_counters_secsc4_DemoGazeFollowWaveIdle 1002a9c0 f   c4_DemoGazeFollowWaveIdle.obj
 0001:00029a00       _c4_deactivate_secsc4_DemoGazeFollowWaveIdle 1002aa00 f   c4_DemoGazeFollowWaveIdle.obj
 0001:00029ac0       _c4_c4_DemoGazeFollowWaveIdle 1002aac0 f   c4_DemoGazeFollowWaveIdle.obj
 0001:0002aca0       _c4_enter_atomic_stateRandomPose 1002bca0 f   c4_DemoGazeFollowWaveIdle.obj
 0001:0002ae90       _c4_enter_atomic_statePoseChance 1002be90 f   c4_DemoGazeFollowWaveIdle.obj
 0001:0002b0c0       _c4_statePoseChance        1002c0c0 f   c4_DemoGazeFollowWaveIdle.obj
 0001:0002c880       _c4_enter_atomic_stateBoredPose 1002d880 f   c4_DemoGazeFollowWaveIdle.obj
 0001:0002cce0       _c4_rand                   1002dce0 f   c4_DemoGazeFollowWaveIdle.obj
 0001:0002cd00       _c4_eml_rand               1002dd00 f   c4_DemoGazeFollowWaveIdle.obj
 0001:0002d0b0       _c4_eml_rand_mt19937ar     1002e0b0 f   c4_DemoGazeFollowWaveIdle.obj
 0001:0002d110       _c4_b_sf_marshallOut       1002e110 f   c4_DemoGazeFollowWaveIdle.obj
 0001:0002d190       _c4_b_sf_marshallIn        1002e190 f   c4_DemoGazeFollowWaveIdle.obj
 0001:0002d210       _c4_d_emlrt_marshallIn     1002e210 f   c4_DemoGazeFollowWaveIdle.obj
 0001:0002d260       _c4_c_sf_marshallOut       1002e260 f   c4_DemoGazeFollowWaveIdle.obj
 0001:0002d2e0       _c4_c_sf_marshallIn        1002e2e0 f   c4_DemoGazeFollowWaveIdle.obj
 0001:0002d360       _c4_e_emlrt_marshallIn     1002e360 f   c4_DemoGazeFollowWaveIdle.obj
 0001:0002d400       _c4_enter_atomic_c4_DemoGazeFollowWaveIdle 1002e400 f   c4_DemoGazeFollowWaveIdle.obj
 0001:0002d4b0       _c4_enter_internal_c4_DemoGazeFollowWaveIdle 1002e4b0 f   c4_DemoGazeFollowWaveIdle.obj
 0001:0002e210       _c4_d_sf_marshallOut       1002f210 f   c4_DemoGazeFollowWaveIdle.obj
 0001:0002e340       _c4_d_sf_marshallIn        1002f340 f   c4_DemoGazeFollowWaveIdle.obj
 0001:0002e430       _c4_g_emlrt_marshallIn     1002f430 f   c4_DemoGazeFollowWaveIdle.obj
 0001:0002e4c0       _c4_lb_sf_marshallOut      1002f4c0 f   c4_DemoGazeFollowWaveIdle.obj
 0001:0002e580       _c4_exit_internal_c4_DemoGazeFollowWaveIdle 1002f580 f   c4_DemoGazeFollowWaveIdle.obj
 0001:0002eae0       _c4_initc4_DemoGazeFollowWaveIdle 1002fae0 f   c4_DemoGazeFollowWaveIdle.obj
 0001:0002ec80       _c4_idlePoseBradTablec4_DemoGazeFollowWaveIdle 1002fc80 f   c4_DemoGazeFollowWaveIdle.obj
 0001:000336a0       _c4_encStr2Arr             100346a0 f   c4_DemoGazeFollowWaveIdle.obj
 0001:00033c30       _c4_b_encStr2Arr           10034c30 f   c4_DemoGazeFollowWaveIdle.obj
 0001:000341b0       _c4_c_encStr2Arr           100351b0 f   c4_DemoGazeFollowWaveIdle.obj
 0001:00034730       _c4_d_encStr2Arr           10035730 f   c4_DemoGazeFollowWaveIdle.obj
 0001:00034cc0       _c4_e_encStr2Arr           10035cc0 f   c4_DemoGazeFollowWaveIdle.obj
 0001:00035250       _c4_f_encStr2Arr           10036250 f   c4_DemoGazeFollowWaveIdle.obj
 0001:000357e0       _c4_g_encStr2Arr           100367e0 f   c4_DemoGazeFollowWaveIdle.obj
 0001:00035d70       _c4_h_encStr2Arr           10036d70 f   c4_DemoGazeFollowWaveIdle.obj
 0001:00036300       _c4_i_encStr2Arr           10037300 f   c4_DemoGazeFollowWaveIdle.obj
 0001:00036880       _c4_j_encStr2Arr           10037880 f   c4_DemoGazeFollowWaveIdle.obj
 0001:00036e00       _c4_k_encStr2Arr           10037e00 f   c4_DemoGazeFollowWaveIdle.obj
 0001:00037390       _c4_l_encStr2Arr           10038390 f   c4_DemoGazeFollowWaveIdle.obj
 0001:00037910       _c4_m_encStr2Arr           10038910 f   c4_DemoGazeFollowWaveIdle.obj
 0001:00037e90       _c4_n_encStr2Arr           10038e90 f   c4_DemoGazeFollowWaveIdle.obj
 0001:00038420       _c4_o_encStr2Arr           10039420 f   c4_DemoGazeFollowWaveIdle.obj
 0001:000389b0       _c4_p_encStr2Arr           100399b0 f   c4_DemoGazeFollowWaveIdle.obj
 0001:00038f40       _c4_q_encStr2Arr           10039f40 f   c4_DemoGazeFollowWaveIdle.obj
 0001:000394d0       _c4_r_encStr2Arr           1003a4d0 f   c4_DemoGazeFollowWaveIdle.obj
 0001:00039a50       _c4_sf_marshallOut         1003aa50 f   c4_DemoGazeFollowWaveIdle.obj
 0001:00039b80       _c4_sf_marshallIn          1003ab80 f   c4_DemoGazeFollowWaveIdle.obj
 0001:00039c60       _c4_b_emlrt_marshallIn     1003ac60 f   c4_DemoGazeFollowWaveIdle.obj
 0001:00039d10       _c4_e_sf_marshallOut       1003ad10 f   c4_DemoGazeFollowWaveIdle.obj
 0001:00039e20       _c4_f_sf_marshallOut       1003ae20 f   c4_DemoGazeFollowWaveIdle.obj
 0001:00039f50       _c4_g_sf_marshallOut       1003af50 f   c4_DemoGazeFollowWaveIdle.obj
 0001:0003a060       _c4_h_sf_marshallOut       1003b060 f   c4_DemoGazeFollowWaveIdle.obj
 0001:0003a190       _c4_i_sf_marshallOut       1003b190 f   c4_DemoGazeFollowWaveIdle.obj
 0001:0003a290       _c4_j_sf_marshallOut       1003b290 f   c4_DemoGazeFollowWaveIdle.obj
 0001:0003a3c0       _c4_k_sf_marshallOut       1003b3c0 f   c4_DemoGazeFollowWaveIdle.obj
 0001:0003a4f0       _c4_l_sf_marshallOut       1003b4f0 f   c4_DemoGazeFollowWaveIdle.obj
 0001:0003a620       _c4_m_sf_marshallOut       1003b620 f   c4_DemoGazeFollowWaveIdle.obj
 0001:0003a730       _c4_n_sf_marshallOut       1003b730 f   c4_DemoGazeFollowWaveIdle.obj
 0001:0003a860       _c4_o_sf_marshallOut       1003b860 f   c4_DemoGazeFollowWaveIdle.obj
 0001:0003a970       _c4_p_sf_marshallOut       1003b970 f   c4_DemoGazeFollowWaveIdle.obj
 0001:0003aaa0       _c4_q_sf_marshallOut       1003baa0 f   c4_DemoGazeFollowWaveIdle.obj
 0001:0003abd0       _c4_r_sf_marshallOut       1003bbd0 f   c4_DemoGazeFollowWaveIdle.obj
 0001:0003ad00       _c4_s_sf_marshallOut       1003bd00 f   c4_DemoGazeFollowWaveIdle.obj
 0001:0003ae10       _c4_t_sf_marshallOut       1003be10 f   c4_DemoGazeFollowWaveIdle.obj
 0001:0003af40       _c4_u_sf_marshallOut       1003bf40 f   c4_DemoGazeFollowWaveIdle.obj
 0001:0003b050       _c4_v_sf_marshallOut       1003c050 f   c4_DemoGazeFollowWaveIdle.obj
 0001:0003b180       _c4_w_sf_marshallOut       1003c180 f   c4_DemoGazeFollowWaveIdle.obj
 0001:0003b290       _c4_x_sf_marshallOut       1003c290 f   c4_DemoGazeFollowWaveIdle.obj
 0001:0003b3a0       _c4_y_sf_marshallOut       1003c3a0 f   c4_DemoGazeFollowWaveIdle.obj
 0001:0003b4b0       _c4_ab_sf_marshallOut      1003c4b0 f   c4_DemoGazeFollowWaveIdle.obj
 0001:0003b5e0       _c4_insertQueueLowc4_DemoGazeFollowWaveIdle 1003c5e0 f   c4_DemoGazeFollowWaveIdle.obj
 0001:0003c490       _c4_kb_sf_marshallOut      1003d490 f   c4_DemoGazeFollowWaveIdle.obj
 0001:0003c660       _c4_f_sf_marshallIn        1003d660 f   c4_DemoGazeFollowWaveIdle.obj
 0001:0003c7a0       _c4_j_emlrt_marshallIn     1003d7a0 f   c4_DemoGazeFollowWaveIdle.obj
 0001:0003c9a0       _c4_walkInvadingTablec4_DemoGazeFollowWaveIdle 1003d9a0 f   c4_DemoGazeFollowWaveIdle.obj
 0001:0003dfa0       _c4_s_encStr2Arr           1003efa0 f   c4_DemoGazeFollowWaveIdle.obj
 0001:0003e520       _c4_t_encStr2Arr           1003f520 f   c4_DemoGazeFollowWaveIdle.obj
 0001:0003eab0       _c4_u_encStr2Arr           1003fab0 f   c4_DemoGazeFollowWaveIdle.obj
 0001:0003f040       _c4_bb_sf_marshallOut      10040040 f   c4_DemoGazeFollowWaveIdle.obj
 0001:0003f0e0       _c4_e_sf_marshallIn        100400e0 f   c4_DemoGazeFollowWaveIdle.obj
 0001:0003f190       _c4_h_emlrt_marshallIn     10040190 f   c4_DemoGazeFollowWaveIdle.obj
 0001:0003f220       _c4_cb_sf_marshallOut      10040220 f   c4_DemoGazeFollowWaveIdle.obj
 0001:0003f350       _c4_db_sf_marshallOut      10040350 f   c4_DemoGazeFollowWaveIdle.obj
 0001:0003f480       _c4_eb_sf_marshallOut      10040480 f   c4_DemoGazeFollowWaveIdle.obj
 0001:0003f5b0       _c4_fb_sf_marshallOut      100405b0 f   c4_DemoGazeFollowWaveIdle.obj
 0001:0003f6e0       _c4_gb_sf_marshallOut      100406e0 f   c4_DemoGazeFollowWaveIdle.obj
 0001:0003f800       _c4_hb_sf_marshallOut      10040800 f   c4_DemoGazeFollowWaveIdle.obj
 0001:0003f930       _c4_ib_sf_marshallOut      10040930 f   c4_DemoGazeFollowWaveIdle.obj
 0001:0003fa50       _c4_jb_sf_marshallOut      10040a50 f   c4_DemoGazeFollowWaveIdle.obj
 0001:0003fb80       _c4_updateDataWrittenToVector 10040b80 f   c4_DemoGazeFollowWaveIdle.obj
 0001:0003fbd0       _c4_errorIfDataNotWrittenToFcn 10040bd0 f   c4_DemoGazeFollowWaveIdle.obj
 0001:0003fc50       _c4_b_twister_state_vector 10040c50 f   c4_DemoGazeFollowWaveIdle.obj
 0001:0003fe30       _c4_c_eml_rand_mt19937ar   10040e30 f   c4_DemoGazeFollowWaveIdle.obj
 0001:00040830       _c4_eml_error              10041830 f   c4_DemoGazeFollowWaveIdle.obj
 0001:000408f0       _c4_get_BOREDOM_THRESHOLD  100418f0 f   c4_DemoGazeFollowWaveIdle.obj
 0001:00040980       _c4_get_FEAR               10041980 f   c4_DemoGazeFollowWaveIdle.obj
 0001:00040a10       _c4_get_FRUST              10041a10 f   c4_DemoGazeFollowWaveIdle.obj
 0001:00040aa0       _c4_set_P                  10041aa0 f   c4_DemoGazeFollowWaveIdle.obj
 0001:00040b30       _c4_set_STATE_BEFORE       10041b30 f   c4_DemoGazeFollowWaveIdle.obj
 0001:00040bc0       _c4_get_STATE_GO           10041bc0 f   c4_DemoGazeFollowWaveIdle.obj
 0001:00040c50       _c4_set_STATE_GO           10041c50 f   c4_DemoGazeFollowWaveIdle.obj
 0001:00040ce0       _c4_get_STATE_OVER         10041ce0 f   c4_DemoGazeFollowWaveIdle.obj
 0001:00040d70       _c4_set_STATE_OVER         10041d70 f   c4_DemoGazeFollowWaveIdle.obj
 0001:00040e00       _c4_get_STATE_READY        10041e00 f   c4_DemoGazeFollowWaveIdle.obj
 0001:00040e90       _c4_set_STATE_READY        10041e90 f   c4_DemoGazeFollowWaveIdle.obj
 0001:00040f20       _c4_get_bmlsL              10041f20 f   c4_DemoGazeFollowWaveIdle.obj
 0001:00040fb0       _c4_set_bmlsL              10041fb0 f   c4_DemoGazeFollowWaveIdle.obj
 0001:00041040       _c4_get_boredom            10042040 f   c4_DemoGazeFollowWaveIdle.obj
 0001:000410d0       _c4_get_changeFlag         100420d0 f   c4_DemoGazeFollowWaveIdle.obj
 0001:00041160       _c4_get_interest           10042160 f   c4_DemoGazeFollowWaveIdle.obj
 0001:000411f0       _c4_set_interest           100421f0 f   c4_DemoGazeFollowWaveIdle.obj
 0001:00041280       _c4_get_randPoseChance     10042280 f   c4_DemoGazeFollowWaveIdle.obj
 0001:00041310       _c4_set_randPoseChance     10042310 f   c4_DemoGazeFollowWaveIdle.obj
 0001:000413a0       _c4_get_randSlowPose       100423a0 f   c4_DemoGazeFollowWaveIdle.obj
 0001:00041430       _c4_set_randSlowPose       10042430 f   c4_DemoGazeFollowWaveIdle.obj
 0001:00041de0       _get_sim_state_c4_DemoGazeFollowWaveIdle 10042de0 f   c4_DemoGazeFollowWaveIdle.obj
 0001:00042580       _sf_get_sim_state_info_c4_DemoGazeFollowWaveIdle 10043580 f   c4_DemoGazeFollowWaveIdle.obj
 0001:00042700       _set_sim_state_c4_DemoGazeFollowWaveIdle 10043700 f   c4_DemoGazeFollowWaveIdle.obj
 0001:00042b60       _c4_update_debugger_state_c4_DemoGazeFollowWaveIdle 10043b60 f   c4_DemoGazeFollowWaveIdle.obj
 0001:00042fa0       _c4_emlrt_marshallIn       10043fa0 f   c4_DemoGazeFollowWaveIdle.obj
 0001:00042ff0       _c4_c_emlrt_marshallIn     10043ff0 f   c4_DemoGazeFollowWaveIdle.obj
 0001:00043040       _c4_f_emlrt_marshallIn     10044040 f   c4_DemoGazeFollowWaveIdle.obj
 0001:00043090       _c4_i_emlrt_marshallIn     10044090 f   c4_DemoGazeFollowWaveIdle.obj
 0001:000430e0       _c4_m_emlrt_marshallIn     100440e0 f   c4_DemoGazeFollowWaveIdle.obj
 0001:00043130       _c4_n_emlrt_marshallIn     10044130 f   c4_DemoGazeFollowWaveIdle.obj
 0001:00043180       _c4_o_emlrt_marshallIn     10044180 f   c4_DemoGazeFollowWaveIdle.obj
 0001:000431d0       _c4_p_emlrt_marshallIn     100441d0 f   c4_DemoGazeFollowWaveIdle.obj
 0001:00043250       _c4_q_emlrt_marshallIn     10044250 f   c4_DemoGazeFollowWaveIdle.obj
 0001:000432a0       _c4_r_emlrt_marshallIn     100442a0 f   c4_DemoGazeFollowWaveIdle.obj
 0001:00043320       _c4_s_emlrt_marshallIn     10044320 f   c4_DemoGazeFollowWaveIdle.obj
 0001:00043370       _c4_t_emlrt_marshallIn     10044370 f   c4_DemoGazeFollowWaveIdle.obj
 0001:00043440       _c4_u_emlrt_marshallIn     10044440 f   c4_DemoGazeFollowWaveIdle.obj
 0001:00043490       _c4_v_emlrt_marshallIn     10044490 f   c4_DemoGazeFollowWaveIdle.obj
 0001:00043530       _c4_w_emlrt_marshallIn     10044530 f   c4_DemoGazeFollowWaveIdle.obj
 0001:00043590       _c4_x_emlrt_marshallIn     10044590 f   c4_DemoGazeFollowWaveIdle.obj
 0001:00043630       _mdlProcessParameters_c4_DemoGazeFollowWaveIdle 10044630 f   c4_DemoGazeFollowWaveIdle.obj
 0001:000436e0       _initialize_params_c4_DemoGazeFollowWaveIdle 100446e0 f   c4_DemoGazeFollowWaveIdle.obj
 0001:000436f0       _mdlSetWorkWidths_c4_DemoGazeFollowWaveIdle 100446f0 f   c4_DemoGazeFollowWaveIdle.obj
 0001:00043ab0       _sf_get_instance_specialization 10044ab0 f   c4_DemoGazeFollowWaveIdle.obj
 0001:00043ac0       _mdlStart_c4_DemoGazeFollowWaveIdle 10044ac0 f   c4_DemoGazeFollowWaveIdle.obj
 0001:00043c60       _init_dsm_address_info     10044c60 f   c4_DemoGazeFollowWaveIdle.obj
 0001:00044770       _chart_debug_initialization 10045770 f   c4_DemoGazeFollowWaveIdle.obj
 0001:000480b0       _init_script_number_translation 100490b0 f   c4_DemoGazeFollowWaveIdle.obj
 0001:000480f0       _sf_opaque_initialize_c4_DemoGazeFollowWaveIdle 100490f0 f   c4_DemoGazeFollowWaveIdle.obj
 0001:00048120       _initialize_c4_DemoGazeFollowWaveIdle 10049120 f   c4_DemoGazeFollowWaveIdle.obj
 0001:00048130       _sf_opaque_enable_c4_DemoGazeFollowWaveIdle 10049130 f   c4_DemoGazeFollowWaveIdle.obj
 0001:00048150       _enable_c4_DemoGazeFollowWaveIdle 10049150 f   c4_DemoGazeFollowWaveIdle.obj
 0001:00048160       _sf_opaque_disable_c4_DemoGazeFollowWaveIdle 10049160 f   c4_DemoGazeFollowWaveIdle.obj
 0001:00048180       _disable_c4_DemoGazeFollowWaveIdle 10049180 f   c4_DemoGazeFollowWaveIdle.obj
 0001:00048190       _sf_opaque_gateway_c4_DemoGazeFollowWaveIdle 10049190 f   c4_DemoGazeFollowWaveIdle.obj
 0001:000481b0       _sf_gateway_c4_DemoGazeFollowWaveIdle 100491b0 f   c4_DemoGazeFollowWaveIdle.obj
 0001:000481d0       _c4_set_sim_state_side_effects_c4_DemoGazeFollowWaveIdle 100491d0 f   c4_DemoGazeFollowWaveIdle.obj
 0001:00048310       _sf_opaque_get_sim_state_c4_DemoGazeFollowWaveIdle 10049310 f   c4_DemoGazeFollowWaveIdle.obj
 0001:00048320       _sf_opaque_set_sim_state_c4_DemoGazeFollowWaveIdle 10049320 f   c4_DemoGazeFollowWaveIdle.obj
 0001:00048330       _sf_opaque_terminate_c4_DemoGazeFollowWaveIdle 10049330 f   c4_DemoGazeFollowWaveIdle.obj
 0001:000483c0       _finalize_c4_DemoGazeFollowWaveIdle 100493c0 f   c4_DemoGazeFollowWaveIdle.obj
 0001:000483e0       _sf_opaque_init_subchart_simstructs 100493e0 f   c4_DemoGazeFollowWaveIdle.obj
 0001:00048400       _initSimStructsc4_DemoGazeFollowWaveIdle 10049400 f   c4_DemoGazeFollowWaveIdle.obj
 0001:00048410       _mdlRTW_c4_DemoGazeFollowWaveIdle 10049410 f   c4_DemoGazeFollowWaveIdle.obj
 0001:000484a0       _c5_info_helper            100494a0 f   c5_DemoGazeFollowWaveIdle.obj
 0001:0004d220       _c5_emlrt_marshallOut      1004e220 f   c5_DemoGazeFollowWaveIdle.obj
 0001:0004d280       _c5_b_emlrt_marshallOut    1004e280 f   c5_DemoGazeFollowWaveIdle.obj
 0001:0004d300       _c5_activate_secsc5_DemoGazeFollowWaveIdle 1004e300 f   c5_DemoGazeFollowWaveIdle.obj
 0001:0004d390       _c5_increment_counters_secsc5_DemoGazeFollowWaveIdle 1004e390 f   c5_DemoGazeFollowWaveIdle.obj
 0001:0004d430       _c5_reset_counters_secsc5_DemoGazeFollowWaveIdle 1004e430 f   c5_DemoGazeFollowWaveIdle.obj
 0001:0004d470       _c5_deactivate_secsc5_DemoGazeFollowWaveIdle 1004e470 f   c5_DemoGazeFollowWaveIdle.obj
 0001:0004d530       _c5_c5_DemoGazeFollowWaveIdle 1004e530 f   c5_DemoGazeFollowWaveIdle.obj
 0001:0004d620       _c5_stateGame              1004e620 f   c5_DemoGazeFollowWaveIdle.obj
 0001:0004fc90       _c5_stateSt1               10050c90 f   c5_DemoGazeFollowWaveIdle.obj
 0001:000507a0       _c5_stateStart             100517a0 f   c5_DemoGazeFollowWaveIdle.obj
 0001:00050eb0       _c5_stateInit              10051eb0 f   c5_DemoGazeFollowWaveIdle.obj
 0001:00051600       _c5_enter_atomic_stateReady 10052600 f   c5_DemoGazeFollowWaveIdle.obj
 0001:00051880       _c5_stateReady             10052880 f   c5_DemoGazeFollowWaveIdle.obj
 0001:00051ff0       _c5_statePoseReady         10052ff0 f   c5_DemoGazeFollowWaveIdle.obj
 0001:000525d0       _c5_stateGo                100535d0 f   c5_DemoGazeFollowWaveIdle.obj
 0001:00052aa0       _c5_stateReadUserHand      10053aa0 f   c5_DemoGazeFollowWaveIdle.obj
 0001:00053190       _c5_stateShowHands         10054190 f   c5_DemoGazeFollowWaveIdle.obj
 0001:00053580       _c5_stateUserWin           10054580 f   c5_DemoGazeFollowWaveIdle.obj
 0001:00053890       _c5_stateShowResult        10054890 f   c5_DemoGazeFollowWaveIdle.obj
 0001:00053c10       _c5_statePlayHand          10054c10 f   c5_DemoGazeFollowWaveIdle.obj
 0001:000559e0       _c5_enter_atomic_statePoseRock 100569e0 f   c5_DemoGazeFollowWaveIdle.obj
 0001:00055e20       _c5_enter_atomic_statePosePaper 10056e20 f   c5_DemoGazeFollowWaveIdle.obj
 0001:00056270       _c5_stateGameOver          10057270 f   c5_DemoGazeFollowWaveIdle.obj
 0001:00057a40       _c5_encStr2Arr             10058a40 f   c5_DemoGazeFollowWaveIdle.obj
 0001:00057f20       _c5_rand                   10058f20 f   c5_DemoGazeFollowWaveIdle.obj
 0001:00057f40       _c5_eml_rand               10058f40 f   c5_DemoGazeFollowWaveIdle.obj
 0001:00058230       _c5_eml_rand_mt19937ar     10059230 f   c5_DemoGazeFollowWaveIdle.obj
 0001:00058290       _c5_c_sf_marshallOut       10059290 f   c5_DemoGazeFollowWaveIdle.obj
 0001:00058310       _c5_c_sf_marshallIn        10059310 f   c5_DemoGazeFollowWaveIdle.obj
 0001:00058390       _c5_e_emlrt_marshallIn     10059390 f   c5_DemoGazeFollowWaveIdle.obj
 0001:000583e0       _c5_d_sf_marshallOut       100593e0 f   c5_DemoGazeFollowWaveIdle.obj
 0001:00058510       _c5_d_sf_marshallIn        10059510 f   c5_DemoGazeFollowWaveIdle.obj
 0001:00058600       _c5_f_emlrt_marshallIn     10059600 f   c5_DemoGazeFollowWaveIdle.obj
 0001:00058690       _c5_e_sf_marshallOut       10059690 f   c5_DemoGazeFollowWaveIdle.obj
 0001:00058710       _c5_f_sf_marshallOut       10059710 f   c5_DemoGazeFollowWaveIdle.obj
 0001:00058790       _c5_e_sf_marshallIn        10059790 f   c5_DemoGazeFollowWaveIdle.obj
 0001:00058810       _c5_g_emlrt_marshallIn     10059810 f   c5_DemoGazeFollowWaveIdle.obj
 0001:000588c0       _c5_enter_atomic_c5_DemoGazeFollowWaveIdle 100598c0 f   c5_DemoGazeFollowWaveIdle.obj
 0001:00058970       _c5_enter_internal_c5_DemoGazeFollowWaveIdle 10059970 f   c5_DemoGazeFollowWaveIdle.obj
 0001:00059920       _c5_exit_internal_c5_DemoGazeFollowWaveIdle 1005a920 f   c5_DemoGazeFollowWaveIdle.obj
 0001:0005adf0       _c5_initc5_DemoGazeFollowWaveIdle 1005bdf0 f   c5_DemoGazeFollowWaveIdle.obj
 0001:0005b120       _c5_insertQueuec5_DemoGazeFollowWaveIdle 1005c120 f   c5_DemoGazeFollowWaveIdle.obj
 0001:0005be00       _c5_sf_marshallOut         1005ce00 f   c5_DemoGazeFollowWaveIdle.obj
 0001:0005bfb0       _c5_sf_marshallIn          1005cfb0 f   c5_DemoGazeFollowWaveIdle.obj
 0001:0005c0e0       _c5_b_emlrt_marshallIn     1005d0e0 f   c5_DemoGazeFollowWaveIdle.obj
 0001:0005c180       _c5_b_sf_marshallOut       1005d180 f   c5_DemoGazeFollowWaveIdle.obj
 0001:0005c2b0       _c5_b_sf_marshallIn        1005d2b0 f   c5_DemoGazeFollowWaveIdle.obj
 0001:0005c3a0       _c5_c_emlrt_marshallIn     1005d3a0 f   c5_DemoGazeFollowWaveIdle.obj
 0001:0005c430       _c5_insertQueueLowc5_DemoGazeFollowWaveIdle 1005d430 f   c5_DemoGazeFollowWaveIdle.obj
 0001:0005d0f0       _c5_rockPoseTablec5_DemoGazeFollowWaveIdle 1005e0f0 f   c5_DemoGazeFollowWaveIdle.obj
 0001:0005e330       _c5_b_encStr2Arr           1005f330 f   c5_DemoGazeFollowWaveIdle.obj
 0001:0005e8a0       _c5_c_encStr2Arr           1005f8a0 f   c5_DemoGazeFollowWaveIdle.obj
 0001:0005ee30       _c5_g_sf_marshallOut       1005fe30 f   c5_DemoGazeFollowWaveIdle.obj
 0001:0005ef50       _c5_h_sf_marshallOut       1005ff50 f   c5_DemoGazeFollowWaveIdle.obj
 0001:0005f070       _c5_i_sf_marshallOut       10060070 f   c5_DemoGazeFollowWaveIdle.obj
 0001:0005f180       _c5_j_sf_marshallOut       10060180 f   c5_DemoGazeFollowWaveIdle.obj
 0001:0005f290       _c5_paperPoseBradTablec5_DemoGazeFollowWaveIdle 10060290 f   c5_DemoGazeFollowWaveIdle.obj
 0001:000604e0       _c5_d_encStr2Arr           100614e0 f   c5_DemoGazeFollowWaveIdle.obj
 0001:00060a70       _c5_e_encStr2Arr           10061a70 f   c5_DemoGazeFollowWaveIdle.obj
 0001:00060fe0       _c5_k_sf_marshallOut       10061fe0 f   c5_DemoGazeFollowWaveIdle.obj
 0001:00061100       _c5_l_sf_marshallOut       10062100 f   c5_DemoGazeFollowWaveIdle.obj
 0001:00061210       _c5_m_sf_marshallOut       10062210 f   c5_DemoGazeFollowWaveIdle.obj
 0001:00061330       _c5_n_sf_marshallOut       10062330 f   c5_DemoGazeFollowWaveIdle.obj
 0001:00061450       _c5_scissorsPoseBradTablec5_DemoGazeFollowWaveIdle 10062450 f   c5_DemoGazeFollowWaveIdle.obj
 0001:000620e0       _c5_f_encStr2Arr           100630e0 f   c5_DemoGazeFollowWaveIdle.obj
 0001:00062670       _c5_g_encStr2Arr           10063670 f   c5_DemoGazeFollowWaveIdle.obj
 0001:00062c00       _c5_o_sf_marshallOut       10063c00 f   c5_DemoGazeFollowWaveIdle.obj
 0001:00062d10       _c5_p_sf_marshallOut       10063d10 f   c5_DemoGazeFollowWaveIdle.obj
 0001:00062e30       _c5_q_sf_marshallOut       10063e30 f   c5_DemoGazeFollowWaveIdle.obj
 0001:00062f10       _c5_r_sf_marshallOut       10063f10 f   c5_DemoGazeFollowWaveIdle.obj
 0001:00063020       _c5_idlePoseBradTablec5_DemoGazeFollowWaveIdle 10064020 f   c5_DemoGazeFollowWaveIdle.obj
 0001:00066e00       _c5_k_encStr2Arr           10067e00 f   c5_DemoGazeFollowWaveIdle.obj
 0001:00067390       _c5_l_encStr2Arr           10068390 f   c5_DemoGazeFollowWaveIdle.obj
 0001:00067910       _c5_m_encStr2Arr           10068910 f   c5_DemoGazeFollowWaveIdle.obj
 0001:00067ea0       _c5_n_encStr2Arr           10068ea0 f   c5_DemoGazeFollowWaveIdle.obj
 0001:00068430       _c5_o_encStr2Arr           10069430 f   c5_DemoGazeFollowWaveIdle.obj
 0001:000689b0       _c5_p_encStr2Arr           100699b0 f   c5_DemoGazeFollowWaveIdle.obj
 0001:00068f30       _c5_q_encStr2Arr           10069f30 f   c5_DemoGazeFollowWaveIdle.obj
 0001:000694c0       _c5_r_encStr2Arr           1006a4c0 f   c5_DemoGazeFollowWaveIdle.obj
 0001:00069a40       _c5_s_encStr2Arr           1006aa40 f   c5_DemoGazeFollowWaveIdle.obj
 0001:00069fd0       _c5_t_encStr2Arr           1006afd0 f   c5_DemoGazeFollowWaveIdle.obj
 0001:0006a560       _c5_u_encStr2Arr           1006b560 f   c5_DemoGazeFollowWaveIdle.obj
 0001:0006aaf0       _c5_w_sf_marshallOut       1006baf0 f   c5_DemoGazeFollowWaveIdle.obj
 0001:0006abd0       _c5_x_sf_marshallOut       1006bbd0 f   c5_DemoGazeFollowWaveIdle.obj
 0001:0006acf0       _c5_y_sf_marshallOut       1006bcf0 f   c5_DemoGazeFollowWaveIdle.obj
 0001:0006ae00       _c5_ab_sf_marshallOut      1006be00 f   c5_DemoGazeFollowWaveIdle.obj
 0001:0006af10       _c5_bb_sf_marshallOut      1006bf10 f   c5_DemoGazeFollowWaveIdle.obj
 0001:0006aff0       _c5_cb_sf_marshallOut      1006bff0 f   c5_DemoGazeFollowWaveIdle.obj
 0001:0006b100       _c5_db_sf_marshallOut      1006c100 f   c5_DemoGazeFollowWaveIdle.obj
 0001:0006b1e0       _c5_eb_sf_marshallOut      1006c1e0 f   c5_DemoGazeFollowWaveIdle.obj
 0001:0006b300       _c5_fb_sf_marshallOut      1006c300 f   c5_DemoGazeFollowWaveIdle.obj
 0001:0006b400       _c5_gb_sf_marshallOut      1006c400 f   c5_DemoGazeFollowWaveIdle.obj
 0001:0006b520       _c5_hb_sf_marshallOut      1006c520 f   c5_DemoGazeFollowWaveIdle.obj
 0001:0006b620       _c5_ib_sf_marshallOut      1006c620 f   c5_DemoGazeFollowWaveIdle.obj
 0001:0006b730       _c5_jb_sf_marshallOut      1006c730 f   c5_DemoGazeFollowWaveIdle.obj
 0001:0006b810       _c5_kb_sf_marshallOut      1006c810 f   c5_DemoGazeFollowWaveIdle.obj
 0001:0006b930       _c5_lb_sf_marshallOut      1006c930 f   c5_DemoGazeFollowWaveIdle.obj
 0001:0006ba10       _c5_mb_sf_marshallOut      1006ca10 f   c5_DemoGazeFollowWaveIdle.obj
 0001:0006bb30       _c5_initialPoseTablec5_DemoGazeFollowWaveIdle 1006cb30 f   c5_DemoGazeFollowWaveIdle.obj
 0001:0006d0c0       _c5_v_encStr2Arr           1006e0c0 f   c5_DemoGazeFollowWaveIdle.obj
 0001:0006d650       _c5_w_encStr2Arr           1006e650 f   c5_DemoGazeFollowWaveIdle.obj
 0001:0006dbe0       _c5_x_encStr2Arr           1006ebe0 f   c5_DemoGazeFollowWaveIdle.obj
 0001:0006e140       _c5_nb_sf_marshallOut      1006f140 f   c5_DemoGazeFollowWaveIdle.obj
 0001:0006e220       _c5_ob_sf_marshallOut      1006f220 f   c5_DemoGazeFollowWaveIdle.obj
 0001:0006e340       _c5_pb_sf_marshallOut      1006f340 f   c5_DemoGazeFollowWaveIdle.obj
 0001:0006e460       _c5_qb_sf_marshallOut      1006f460 f   c5_DemoGazeFollowWaveIdle.obj
 0001:0006e570       _c5_sendSBM                1006f570 f   c5_DemoGazeFollowWaveIdle.obj
 0001:0006e590       _c5_b_sendSBM              1006f590 f   c5_DemoGazeFollowWaveIdle.obj
 0001:0006e5b0       _c5_isequal                1006f5b0 f   c5_DemoGazeFollowWaveIdle.obj
 0001:0006e790       _c5_handPoseSBTablec5_DemoGazeFollowWaveIdle 1006f790 f   c5_DemoGazeFollowWaveIdle.obj
 0001:0006fb20       _c5_h_encStr2Arr           10070b20 f   c5_DemoGazeFollowWaveIdle.obj
 0001:000700a0       _c5_i_encStr2Arr           100710a0 f   c5_DemoGazeFollowWaveIdle.obj
 0001:00070630       _c5_j_encStr2Arr           10071630 f   c5_DemoGazeFollowWaveIdle.obj
 0001:00070bc0       _c5_s_sf_marshallOut       10071bc0 f   c5_DemoGazeFollowWaveIdle.obj
 0001:00070ce0       _c5_t_sf_marshallOut       10071ce0 f   c5_DemoGazeFollowWaveIdle.obj
 0001:00070e00       _c5_u_sf_marshallOut       10071e00 f   c5_DemoGazeFollowWaveIdle.obj
 0001:00070f10       _c5_v_sf_marshallOut       10071f10 f   c5_DemoGazeFollowWaveIdle.obj
 0001:00071400       _c5_sendSBMc5_DemoGazeFollowWaveIdle 10072400 f   c5_DemoGazeFollowWaveIdle.obj
 0001:000716f0       _c5_updateDataWrittenToVector 100726f0 f   c5_DemoGazeFollowWaveIdle.obj
 0001:00071740       _c5_errorIfDataNotWrittenToFcn 10072740 f   c5_DemoGazeFollowWaveIdle.obj
 0001:000717c0       _c5_b_twister_state_vector 100727c0 f   c5_DemoGazeFollowWaveIdle.obj
 0001:000719a0       _c5_c_eml_rand_mt19937ar   100729a0 f   c5_DemoGazeFollowWaveIdle.obj
 0001:000723a0       _c5_eml_error              100733a0 f   c5_DemoGazeFollowWaveIdle.obj
 0001:00072460       _c5_get_BML                10073460 f   c5_DemoGazeFollowWaveIdle.obj
 0001:000724f0       _c5_set_BML                100734f0 f   c5_DemoGazeFollowWaveIdle.obj
 0001:00072580       _c5_get_BML2               10073580 f   c5_DemoGazeFollowWaveIdle.obj
 0001:00072610       _c5_set_BML2               10073610 f   c5_DemoGazeFollowWaveIdle.obj
 0001:000726a0       _c5_set_BORED              100736a0 f   c5_DemoGazeFollowWaveIdle.obj
 0001:00072730       _c5_get_BOREDOM_THRESHOLD  10073730 f   c5_DemoGazeFollowWaveIdle.obj
 0001:000727c0       _c5_set_BOREDOM_THRESHOLD  100737c0 f   c5_DemoGazeFollowWaveIdle.obj
 0001:00072850       _c5_set_CONTEMPT           10073850 f   c5_DemoGazeFollowWaveIdle.obj
 0001:000728e0       _c5_set_EXCITE             100738e0 f   c5_DemoGazeFollowWaveIdle.obj
 0001:00072970       _c5_set_FEAR               10073970 f   c5_DemoGazeFollowWaveIdle.obj
 0001:00072a00       _c5_set_FRUST              10073a00 f   c5_DemoGazeFollowWaveIdle.obj
 0001:00072a90       _c5_get_GAZE_GUI           10073a90 f   c5_DemoGazeFollowWaveIdle.obj
 0001:00072b20       _c5_set_GAZE_GUI           10073b20 f   c5_DemoGazeFollowWaveIdle.obj
 0001:00072bb0       _c5_set_GAZE_SOFTEYE       10073bb0 f   c5_DemoGazeFollowWaveIdle.obj
 0001:00072c40       _c5_get_GAZE_USER_HAND     10073c40 f   c5_DemoGazeFollowWaveIdle.obj
 0001:00072cd0       _c5_set_GAZE_USER_HAND     10073cd0 f   c5_DemoGazeFollowWaveIdle.obj
 0001:00072d60       _c5_get_GAZE_WIN           10073d60 f   c5_DemoGazeFollowWaveIdle.obj
 0001:00072df0       _c5_set_GAZE_WIN           10073df0 f   c5_DemoGazeFollowWaveIdle.obj
 0001:00072e80       _c5_set_HAPPY              10073e80 f   c5_DemoGazeFollowWaveIdle.obj
 0001:00072f10       _c5_set_IDLE               10073f10 f   c5_DemoGazeFollowWaveIdle.obj
 0001:00072fa0       _c5_set_P                  10073fa0 f   c5_DemoGazeFollowWaveIdle.obj
 0001:00073030       _c5_set_SAD                10074030 f   c5_DemoGazeFollowWaveIdle.obj
 0001:000730c0       _c5_set_STATE_BEFORE       100740c0 f   c5_DemoGazeFollowWaveIdle.obj
 0001:00073150       _c5_get_STATE_GO           10074150 f   c5_DemoGazeFollowWaveIdle.obj
 0001:000731e0       _c5_set_STATE_GO           100741e0 f   c5_DemoGazeFollowWaveIdle.obj
 0001:00073270       _c5_get_STATE_HAND         10074270 f   c5_DemoGazeFollowWaveIdle.obj
 0001:00073300       _c5_set_STATE_HAND         10074300 f   c5_DemoGazeFollowWaveIdle.obj
 0001:00073390       _c5_get_STATE_OVER         10074390 f   c5_DemoGazeFollowWaveIdle.obj
 0001:00073420       _c5_set_STATE_OVER         10074420 f   c5_DemoGazeFollowWaveIdle.obj
 0001:000734b0       _c5_get_STATE_READY        100744b0 f   c5_DemoGazeFollowWaveIdle.obj
 0001:00073540       _c5_set_STATE_READY        10074540 f   c5_DemoGazeFollowWaveIdle.obj
 0001:000735d0       _c5_get_STATE_RESULT       100745d0 f   c5_DemoGazeFollowWaveIdle.obj
 0001:00073660       _c5_set_STATE_RESULT       10074660 f   c5_DemoGazeFollowWaveIdle.obj
 0001:000736f0       _c5_get_STATE_WAIT         100746f0 f   c5_DemoGazeFollowWaveIdle.obj
 0001:00073780       _c5_set_STATE_WAIT         10074780 f   c5_DemoGazeFollowWaveIdle.obj
 0001:00073810       _c5_set_avert              10074810 f   c5_DemoGazeFollowWaveIdle.obj
 0001:000738a0       _c5_get_bHand              100748a0 f   c5_DemoGazeFollowWaveIdle.obj
 0001:00073930       _c5_set_bHand              10074930 f   c5_DemoGazeFollowWaveIdle.obj
 0001:000739c0       _c5_get_bmlsH              100749c0 f   c5_DemoGazeFollowWaveIdle.obj
 0001:00073a50       _c5_set_bmlsH              10074a50 f   c5_DemoGazeFollowWaveIdle.obj
 0001:00073ae0       _c5_get_bmlsL              10074ae0 f   c5_DemoGazeFollowWaveIdle.obj
 0001:00073b70       _c5_set_bmlsL              10074b70 f   c5_DemoGazeFollowWaveIdle.obj
 0001:00073c00       _c5_get_boredom            10074c00 f   c5_DemoGazeFollowWaveIdle.obj
 0001:00073c90       _c5_set_boredom            10074c90 f   c5_DemoGazeFollowWaveIdle.obj
 0001:00073d20       _c5_get_diff               10074d20 f   c5_DemoGazeFollowWaveIdle.obj
 0001:00073db0       _c5_set_diff               10074db0 f   c5_DemoGazeFollowWaveIdle.obj
 0001:00073e40       _c5_set_gazing             10074e40 f   c5_DemoGazeFollowWaveIdle.obj
 0001:00073ed0       _c5_get_n                  10074ed0 f   c5_DemoGazeFollowWaveIdle.obj
 0001:00073f60       _c5_set_n                  10074f60 f   c5_DemoGazeFollowWaveIdle.obj
 0001:00073ff0       _c5_get_pa                 10074ff0 f   c5_DemoGazeFollowWaveIdle.obj
 0001:00074080       _c5_set_pa                 10075080 f   c5_DemoGazeFollowWaveIdle.obj
 0001:00074110       _c5_get_r                  10075110 f   c5_DemoGazeFollowWaveIdle.obj
 0001:000741a0       _c5_set_r                  100751a0 f   c5_DemoGazeFollowWaveIdle.obj
 0001:00074230       _c5_set_randAvertGazeChance 10075230 f   c5_DemoGazeFollowWaveIdle.obj
 0001:000742c0       _c5_set_randPoseChance     100752c0 f   c5_DemoGazeFollowWaveIdle.obj
 0001:00074350       _c5_set_randSmile          10075350 f   c5_DemoGazeFollowWaveIdle.obj
 0001:000743e0       _c5_get_s                  100753e0 f   c5_DemoGazeFollowWaveIdle.obj
 0001:00074470       _c5_set_s                  10075470 f   c5_DemoGazeFollowWaveIdle.obj
 0001:00074500       _c5_get_t                  10075500 f   c5_DemoGazeFollowWaveIdle.obj
 0001:00074590       _c5_set_t                  10075590 f   c5_DemoGazeFollowWaveIdle.obj
 0001:00074620       _c5_get_temp               10075620 f   c5_DemoGazeFollowWaveIdle.obj
 0001:000746b0       _c5_set_temp               100756b0 f   c5_DemoGazeFollowWaveIdle.obj
 0001:00074740       _c5_get_uHand              10075740 f   c5_DemoGazeFollowWaveIdle.obj
 0001:000747d0       _c5_set_uHand              100757d0 f   c5_DemoGazeFollowWaveIdle.obj
 0001:000756d0       _get_sim_state_c5_DemoGazeFollowWaveIdle 100766d0 f   c5_DemoGazeFollowWaveIdle.obj
 0001:00076420       _sf_get_sim_state_info_c5_DemoGazeFollowWaveIdle 10077420 f   c5_DemoGazeFollowWaveIdle.obj
 0001:000765b0       _set_sim_state_c5_DemoGazeFollowWaveIdle 100775b0 f   c5_DemoGazeFollowWaveIdle.obj
 0001:00076cb0       _c5_update_debugger_state_c5_DemoGazeFollowWaveIdle 10077cb0 f   c5_DemoGazeFollowWaveIdle.obj
 0001:00078100       _c5_emlrt_marshallIn       10079100 f   c5_DemoGazeFollowWaveIdle.obj
 0001:00078150       _c5_d_emlrt_marshallIn     10079150 f   c5_DemoGazeFollowWaveIdle.obj
 0001:000781a0       _c5_j_emlrt_marshallIn     100791a0 f   c5_DemoGazeFollowWaveIdle.obj
 0001:000781f0       _c5_k_emlrt_marshallIn     100791f0 f   c5_DemoGazeFollowWaveIdle.obj
 0001:00078240       _c5_l_emlrt_marshallIn     10079240 f   c5_DemoGazeFollowWaveIdle.obj
 0001:00078290       _c5_m_emlrt_marshallIn     10079290 f   c5_DemoGazeFollowWaveIdle.obj
 0001:00078310       _c5_n_emlrt_marshallIn     10079310 f   c5_DemoGazeFollowWaveIdle.obj
 0001:00078360       _c5_o_emlrt_marshallIn     10079360 f   c5_DemoGazeFollowWaveIdle.obj
 0001:000783e0       _c5_p_emlrt_marshallIn     100793e0 f   c5_DemoGazeFollowWaveIdle.obj
 0001:00078430       _c5_q_emlrt_marshallIn     10079430 f   c5_DemoGazeFollowWaveIdle.obj
 0001:000784f0       _c5_r_emlrt_marshallIn     100794f0 f   c5_DemoGazeFollowWaveIdle.obj
 0001:00078540       _c5_s_emlrt_marshallIn     10079540 f   c5_DemoGazeFollowWaveIdle.obj
 0001:000785e0       _c5_t_emlrt_marshallIn     100795e0 f   c5_DemoGazeFollowWaveIdle.obj
 0001:00078630       _c5_u_emlrt_marshallIn     10079630 f   c5_DemoGazeFollowWaveIdle.obj
 0001:00078680       _c5_v_emlrt_marshallIn     10079680 f   c5_DemoGazeFollowWaveIdle.obj
 0001:000786e0       _c5_w_emlrt_marshallIn     100796e0 f   c5_DemoGazeFollowWaveIdle.obj
 0001:00078780       _mdlProcessParameters_c5_DemoGazeFollowWaveIdle 10079780 f   c5_DemoGazeFollowWaveIdle.obj
 0001:00078830       _initialize_params_c5_DemoGazeFollowWaveIdle 10079830 f   c5_DemoGazeFollowWaveIdle.obj
 0001:00078840       _mdlSetWorkWidths_c5_DemoGazeFollowWaveIdle 10079840 f   c5_DemoGazeFollowWaveIdle.obj
 0001:00078c20       _sf_get_instance_specialization 10079c20 f   c5_DemoGazeFollowWaveIdle.obj
 0001:00078c30       _mdlStart_c5_DemoGazeFollowWaveIdle 10079c30 f   c5_DemoGazeFollowWaveIdle.obj
 0001:00078dd0       _init_dsm_address_info     10079dd0 f   c5_DemoGazeFollowWaveIdle.obj
 0001:0007a340       _chart_debug_initialization 1007b340 f   c5_DemoGazeFollowWaveIdle.obj
 0001:00082420       _init_script_number_translation 10083420 f   c5_DemoGazeFollowWaveIdle.obj
 0001:00082460       _c5_ub_sf_marshallOut      10083460 f   c5_DemoGazeFollowWaveIdle.obj
 0001:00082580       _sf_opaque_initialize_c5_DemoGazeFollowWaveIdle 10083580 f   c5_DemoGazeFollowWaveIdle.obj
 0001:000825b0       _initialize_c5_DemoGazeFollowWaveIdle 100835b0 f   c5_DemoGazeFollowWaveIdle.obj
 0001:000825c0       _sf_opaque_enable_c5_DemoGazeFollowWaveIdle 100835c0 f   c5_DemoGazeFollowWaveIdle.obj
 0001:000825e0       _enable_c5_DemoGazeFollowWaveIdle 100835e0 f   c5_DemoGazeFollowWaveIdle.obj
 0001:000825f0       _sf_opaque_disable_c5_DemoGazeFollowWaveIdle 100835f0 f   c5_DemoGazeFollowWaveIdle.obj
 0001:00082610       _disable_c5_DemoGazeFollowWaveIdle 10083610 f   c5_DemoGazeFollowWaveIdle.obj
 0001:00082620       _sf_opaque_gateway_c5_DemoGazeFollowWaveIdle 10083620 f   c5_DemoGazeFollowWaveIdle.obj
 0001:00082640       _sf_gateway_c5_DemoGazeFollowWaveIdle 10083640 f   c5_DemoGazeFollowWaveIdle.obj
 0001:00082660       _c5_set_sim_state_side_effects_c5_DemoGazeFollowWaveIdle 10083660 f   c5_DemoGazeFollowWaveIdle.obj
 0001:00082ce0       _sf_opaque_get_sim_state_c5_DemoGazeFollowWaveIdle 10083ce0 f   c5_DemoGazeFollowWaveIdle.obj
 0001:00082cf0       _sf_opaque_set_sim_state_c5_DemoGazeFollowWaveIdle 10083cf0 f   c5_DemoGazeFollowWaveIdle.obj
 0001:00082d00       _sf_opaque_terminate_c5_DemoGazeFollowWaveIdle 10083d00 f   c5_DemoGazeFollowWaveIdle.obj
 0001:00082d90       _finalize_c5_DemoGazeFollowWaveIdle 10083d90 f   c5_DemoGazeFollowWaveIdle.obj
 0001:00082db0       _sf_opaque_init_subchart_simstructs 10083db0 f   c5_DemoGazeFollowWaveIdle.obj
 0001:00082dd0       _initSimStructsc5_DemoGazeFollowWaveIdle 10083dd0 f   c5_DemoGazeFollowWaveIdle.obj
 0001:00082de0       _mdlRTW_c5_DemoGazeFollowWaveIdle 10083de0 f   c5_DemoGazeFollowWaveIdle.obj
 0001:00082ea0       _c8_info_helper            10083ea0 f   c8_DemoGazeFollowWaveIdle.obj
 0001:00083810       _c8_emlrt_marshallOut      10084810 f   c8_DemoGazeFollowWaveIdle.obj
 0001:00083870       _c8_b_emlrt_marshallOut    10084870 f   c8_DemoGazeFollowWaveIdle.obj
 0001:000838f0       _c8_activate_secsc8_DemoGazeFollowWaveIdle 100848f0 f   c8_DemoGazeFollowWaveIdle.obj
 0001:00083980       _c8_increment_counters_secsc8_DemoGazeFollowWaveIdle 10084980 f   c8_DemoGazeFollowWaveIdle.obj
 0001:000839e0       _c8_reset_counters_secsc8_DemoGazeFollowWaveIdle 100849e0 f   c8_DemoGazeFollowWaveIdle.obj
 0001:00083a20       _c8_deactivate_secsc8_DemoGazeFollowWaveIdle 10084a20 f   c8_DemoGazeFollowWaveIdle.obj
 0001:00083ae0       _c8_c8_DemoGazeFollowWaveIdle 10084ae0 f   c8_DemoGazeFollowWaveIdle.obj
 0001:00085cf0       _c8_stateInit              10086cf0 f   c8_DemoGazeFollowWaveIdle.obj
 0001:000866d0       _c8_checkUserCoord         100876d0 f   c8_DemoGazeFollowWaveIdle.obj
 0001:00088870       _c8_enter_atomic_stateWalkBack 10089870 f   c8_DemoGazeFollowWaveIdle.obj
 0001:00088cf0       _c8_enter_atomic_browUp    10089cf0 f   c8_DemoGazeFollowWaveIdle.obj
 0001:00089110       _c8_enter_atomic_idle      1008a110 f   c8_DemoGazeFollowWaveIdle.obj
 0001:00089530       _c8_enter_atomic_leanFW    1008a530 f   c8_DemoGazeFollowWaveIdle.obj
 0001:00089930       _c8_enter_atomic_leanNeutral 1008a930 f   c8_DemoGazeFollowWaveIdle.obj
 0001:00089cf0       _c8_leanNeutral            1008acf0 f   c8_DemoGazeFollowWaveIdle.obj
 0001:0008a460       _c8_c_sf_marshallOut       1008b460 f   c8_DemoGazeFollowWaveIdle.obj
 0001:0008a4e0       _c8_c_sf_marshallIn        1008b4e0 f   c8_DemoGazeFollowWaveIdle.obj
 0001:0008a560       _c8_e_emlrt_marshallIn     1008b560 f   c8_DemoGazeFollowWaveIdle.obj
 0001:0008a5b0       _c8_f_sf_marshallOut       1008b5b0 f   c8_DemoGazeFollowWaveIdle.obj
 0001:0008a630       _c8_e_sf_marshallIn        1008b630 f   c8_DemoGazeFollowWaveIdle.obj
 0001:0008a6b0       _c8_h_emlrt_marshallIn     1008b6b0 f   c8_DemoGazeFollowWaveIdle.obj
 0001:0008a750       _c8_enter_atomic_c8_DemoGazeFollowWaveIdle 1008b750 f   c8_DemoGazeFollowWaveIdle.obj
 0001:0008a800       _c8_enter_internal_c8_DemoGazeFollowWaveIdle 1008b800 f   c8_DemoGazeFollowWaveIdle.obj
 0001:0008bab0       _c8_d_sf_marshallOut       1008cab0 f   c8_DemoGazeFollowWaveIdle.obj
 0001:0008bbe0       _c8_d_sf_marshallIn        1008cbe0 f   c8_DemoGazeFollowWaveIdle.obj
 0001:0008bcb0       _c8_g_emlrt_marshallIn     1008ccb0 f   c8_DemoGazeFollowWaveIdle.obj
 0001:0008bd40       _c8_e_sf_marshallOut       1008cd40 f   c8_DemoGazeFollowWaveIdle.obj
 0001:0008be00       _c8_exit_internal_c8_DemoGazeFollowWaveIdle 1008ce00 f   c8_DemoGazeFollowWaveIdle.obj
 0001:0008c7a0       _c8_initc8_DemoGazeFollowWaveIdle 1008d7a0 f   c8_DemoGazeFollowWaveIdle.obj
 0001:0008c970       _c8_walkInvadingTablec8_DemoGazeFollowWaveIdle 1008d970 f   c8_DemoGazeFollowWaveIdle.obj
 0001:0008ebe0       _c8_encStr2Arr             1008fbe0 f   c8_DemoGazeFollowWaveIdle.obj
 0001:0008f150       _c8_b_encStr2Arr           10090150 f   c8_DemoGazeFollowWaveIdle.obj
 0001:0008f6e0       _c8_c_encStr2Arr           100906e0 f   c8_DemoGazeFollowWaveIdle.obj
 0001:0008fc60       _c8_d_encStr2Arr           10090c60 f   c8_DemoGazeFollowWaveIdle.obj
 0001:000901f0       _c8_e_encStr2Arr           100911f0 f   c8_DemoGazeFollowWaveIdle.obj
 0001:00090770       _c8_f_encStr2Arr           10091770 f   c8_DemoGazeFollowWaveIdle.obj
 0001:00090d00       _c8_g_encStr2Arr           10091d00 f   c8_DemoGazeFollowWaveIdle.obj
 0001:00091280       _c8_b_sf_marshallOut       10092280 f   c8_DemoGazeFollowWaveIdle.obj
 0001:000913b0       _c8_b_sf_marshallIn        100923b0 f   c8_DemoGazeFollowWaveIdle.obj
 0001:00091480       _c8_c_emlrt_marshallIn     10092480 f   c8_DemoGazeFollowWaveIdle.obj
 0001:00091510       _c8_g_sf_marshallOut       10092510 f   c8_DemoGazeFollowWaveIdle.obj
 0001:00091640       _c8_h_sf_marshallOut       10092640 f   c8_DemoGazeFollowWaveIdle.obj
 0001:00091770       _c8_i_sf_marshallOut       10092770 f   c8_DemoGazeFollowWaveIdle.obj
 0001:000918a0       _c8_j_sf_marshallOut       100928a0 f   c8_DemoGazeFollowWaveIdle.obj
 0001:000919d0       _c8_k_sf_marshallOut       100929d0 f   c8_DemoGazeFollowWaveIdle.obj
 0001:00091b00       _c8_l_sf_marshallOut       10092b00 f   c8_DemoGazeFollowWaveIdle.obj
 0001:00091c30       _c8_m_sf_marshallOut       10092c30 f   c8_DemoGazeFollowWaveIdle.obj
 0001:00091d50       _c8_n_sf_marshallOut       10092d50 f   c8_DemoGazeFollowWaveIdle.obj
 0001:00091e80       _c8_o_sf_marshallOut       10092e80 f   c8_DemoGazeFollowWaveIdle.obj
 0001:00091fb0       _c8_p_sf_marshallOut       10092fb0 f   c8_DemoGazeFollowWaveIdle.obj
 0001:000920e0       _c8_q_sf_marshallOut       100930e0 f   c8_DemoGazeFollowWaveIdle.obj
 0001:000921f0       _c8_r_sf_marshallOut       100931f0 f   c8_DemoGazeFollowWaveIdle.obj
 0001:00092320       _c8_s_sf_marshallOut       10093320 f   c8_DemoGazeFollowWaveIdle.obj
 0001:00092450       _c8_t_sf_marshallOut       10093450 f   c8_DemoGazeFollowWaveIdle.obj
 0001:00092580       _c8_insertQueuec8_DemoGazeFollowWaveIdle 10093580 f   c8_DemoGazeFollowWaveIdle.obj
 0001:000932a0       _c8_sf_marshallOut         100942a0 f   c8_DemoGazeFollowWaveIdle.obj
 0001:00093470       _c8_sf_marshallIn          10094470 f   c8_DemoGazeFollowWaveIdle.obj
 0001:000935a0       _c8_b_emlrt_marshallIn     100945a0 f   c8_DemoGazeFollowWaveIdle.obj
 0001:00093640       _c8_isequal                10094640 f   c8_DemoGazeFollowWaveIdle.obj
 0001:00093990       _c8_insertQueueLowc8_DemoGazeFollowWaveIdle 10094990 f   c8_DemoGazeFollowWaveIdle.obj
 0001:00094700       _c8_updateDataWrittenToVector 10095700 f   c8_DemoGazeFollowWaveIdle.obj
 0001:00094750       _c8_errorIfDataNotWrittenToFcn 10095750 f   c8_DemoGazeFollowWaveIdle.obj
 0001:000947d0       _c8_set_P                  100957d0 f   c8_DemoGazeFollowWaveIdle.obj
 0001:00094860       _c8_get_STATE_READY        10095860 f   c8_DemoGazeFollowWaveIdle.obj
 0001:000948f0       _c8_get_avert              100958f0 f   c8_DemoGazeFollowWaveIdle.obj
 0001:00094980       _c8_set_bmlsL              10095980 f   c8_DemoGazeFollowWaveIdle.obj
 0001:00094a10       _c8_get_bmlsM              10095a10 f   c8_DemoGazeFollowWaveIdle.obj
 0001:00094aa0       _c8_set_bmlsM              10095aa0 f   c8_DemoGazeFollowWaveIdle.obj
 0001:00095f60       _get_sim_state_c8_DemoGazeFollowWaveIdle 10096f60 f   c8_DemoGazeFollowWaveIdle.obj
 0001:00096790       _sf_get_sim_state_info_c8_DemoGazeFollowWaveIdle 10097790 f   c8_DemoGazeFollowWaveIdle.obj
 0001:00096910       _set_sim_state_c8_DemoGazeFollowWaveIdle 10097910 f   c8_DemoGazeFollowWaveIdle.obj
 0001:00096e90       _c8_update_debugger_state_c8_DemoGazeFollowWaveIdle 10097e90 f   c8_DemoGazeFollowWaveIdle.obj
 0001:00097780       _c8_emlrt_marshallIn       10098780 f   c8_DemoGazeFollowWaveIdle.obj
 0001:000977d0       _c8_d_emlrt_marshallIn     100987d0 f   c8_DemoGazeFollowWaveIdle.obj
 0001:00097820       _c8_f_emlrt_marshallIn     10098820 f   c8_DemoGazeFollowWaveIdle.obj
 0001:00097870       _c8_k_emlrt_marshallIn     10098870 f   c8_DemoGazeFollowWaveIdle.obj
 0001:000978c0       _c8_l_emlrt_marshallIn     100988c0 f   c8_DemoGazeFollowWaveIdle.obj
 0001:00097910       _c8_m_emlrt_marshallIn     10098910 f   c8_DemoGazeFollowWaveIdle.obj
 0001:00097960       _c8_n_emlrt_marshallIn     10098960 f   c8_DemoGazeFollowWaveIdle.obj
 0001:00097a10       _c8_o_emlrt_marshallIn     10098a10 f   c8_DemoGazeFollowWaveIdle.obj
 0001:00097a70       _c8_p_emlrt_marshallIn     10098a70 f   c8_DemoGazeFollowWaveIdle.obj
 0001:00097b10       _mdlProcessParameters_c8_DemoGazeFollowWaveIdle 10098b10 f   c8_DemoGazeFollowWaveIdle.obj
 0001:00097bc0       _initialize_params_c8_DemoGazeFollowWaveIdle 10098bc0 f   c8_DemoGazeFollowWaveIdle.obj
 0001:00097bd0       _mdlSetWorkWidths_c8_DemoGazeFollowWaveIdle 10098bd0 f   c8_DemoGazeFollowWaveIdle.obj
 0001:00097fc0       _sf_get_instance_specialization 10098fc0 f   c8_DemoGazeFollowWaveIdle.obj
 0001:00097fd0       _mdlStart_c8_DemoGazeFollowWaveIdle 10098fd0 f   c8_DemoGazeFollowWaveIdle.obj
 0001:00098170       _init_dsm_address_info     10099170 f   c8_DemoGazeFollowWaveIdle.obj
 0001:00098640       _chart_debug_initialization 10099640 f   c8_DemoGazeFollowWaveIdle.obj
 0001:0009c300       _init_script_number_translation 1009d300 f   c8_DemoGazeFollowWaveIdle.obj
 0001:0009c340       _c8_x_sf_marshallOut       1009d340 f   c8_DemoGazeFollowWaveIdle.obj
 0001:0009c4b0       _c8_i_sf_marshallIn        1009d4b0 f   c8_DemoGazeFollowWaveIdle.obj
 0001:0009c5b0       _sf_opaque_initialize_c8_DemoGazeFollowWaveIdle 1009d5b0 f   c8_DemoGazeFollowWaveIdle.obj
 0001:0009c5e0       _initialize_c8_DemoGazeFollowWaveIdle 1009d5e0 f   c8_DemoGazeFollowWaveIdle.obj
 0001:0009c5f0       _sf_opaque_enable_c8_DemoGazeFollowWaveIdle 1009d5f0 f   c8_DemoGazeFollowWaveIdle.obj
 0001:0009c610       _enable_c8_DemoGazeFollowWaveIdle 1009d610 f   c8_DemoGazeFollowWaveIdle.obj
 0001:0009c620       _sf_opaque_disable_c8_DemoGazeFollowWaveIdle 1009d620 f   c8_DemoGazeFollowWaveIdle.obj
 0001:0009c640       _disable_c8_DemoGazeFollowWaveIdle 1009d640 f   c8_DemoGazeFollowWaveIdle.obj
 0001:0009c650       _sf_opaque_gateway_c8_DemoGazeFollowWaveIdle 1009d650 f   c8_DemoGazeFollowWaveIdle.obj
 0001:0009c670       _sf_gateway_c8_DemoGazeFollowWaveIdle 1009d670 f   c8_DemoGazeFollowWaveIdle.obj
 0001:0009c690       _c8_set_sim_state_side_effects_c8_DemoGazeFollowWaveIdle 1009d690 f   c8_DemoGazeFollowWaveIdle.obj
 0001:0009c960       _sf_opaque_get_sim_state_c8_DemoGazeFollowWaveIdle 1009d960 f   c8_DemoGazeFollowWaveIdle.obj
 0001:0009c970       _sf_opaque_set_sim_state_c8_DemoGazeFollowWaveIdle 1009d970 f   c8_DemoGazeFollowWaveIdle.obj
 0001:0009c980       _sf_opaque_terminate_c8_DemoGazeFollowWaveIdle 1009d980 f   c8_DemoGazeFollowWaveIdle.obj
 0001:0009ca10       _finalize_c8_DemoGazeFollowWaveIdle 1009da10 f   c8_DemoGazeFollowWaveIdle.obj
 0001:0009ca30       _sf_opaque_init_subchart_simstructs 1009da30 f   c8_DemoGazeFollowWaveIdle.obj
 0001:0009ca50       _initSimStructsc8_DemoGazeFollowWaveIdle 1009da50 f   c8_DemoGazeFollowWaveIdle.obj
 0001:0009ca60       _mdlRTW_c8_DemoGazeFollowWaveIdle 1009da60 f   c8_DemoGazeFollowWaveIdle.obj
 0001:0009cb00       _c9_info_helper            1009db00 f   c9_DemoGazeFollowWaveIdle.obj
 0001:000a3c00       _c9_emlrt_marshallOut      100a4c00 f   c9_DemoGazeFollowWaveIdle.obj
 0001:000a3c60       _c9_b_emlrt_marshallOut    100a4c60 f   c9_DemoGazeFollowWaveIdle.obj
 0001:000a3ce0       _c9_activate_secsc9_DemoGazeFollowWaveIdle 100a4ce0 f   c9_DemoGazeFollowWaveIdle.obj
 0001:000a3d70       _c9_increment_counters_secsc9_DemoGazeFollowWaveIdle 100a4d70 f   c9_DemoGazeFollowWaveIdle.obj
 0001:000a3e10       _c9_reset_counters_secsc9_DemoGazeFollowWaveIdle 100a4e10 f   c9_DemoGazeFollowWaveIdle.obj
 0001:000a3e50       _c9_deactivate_secsc9_DemoGazeFollowWaveIdle 100a4e50 f   c9_DemoGazeFollowWaveIdle.obj
 0001:000a3f10       _c9_c9_DemoGazeFollowWaveIdle 100a4f10 f   c9_DemoGazeFollowWaveIdle.obj
 0001:000a55a0       _c9_stateGazeIde           100a65a0 f   c9_DemoGazeFollowWaveIdle.obj
 0001:000a7a40       _c9_enter_atomic_stateRandGen 100a8a40 f   c9_DemoGazeFollowWaveIdle.obj
 0001:000a7e60       _c9_stateRandGen           100a8e60 f   c9_DemoGazeFollowWaveIdle.obj
 0001:000a9130       _c9_enter_atomic_stateCheckMutCont 100aa130 f   c9_DemoGazeFollowWaveIdle.obj
 0001:000a9380       _c9_stateCheckMutCont      100aa380 f   c9_DemoGazeFollowWaveIdle.obj
 0001:000aa1e0       _c9_enter_atomic_stateAvertGaze 100ab1e0 f   c9_DemoGazeFollowWaveIdle.obj
 0001:000aa9a0       _c9_stateCheckAvertCont    100ab9a0 f   c9_DemoGazeFollowWaveIdle.obj
 0001:000ac390       _c9_enter_atomic_stateMutualGaze 100ad390 f   c9_DemoGazeFollowWaveIdle.obj
 0001:000ac860       _c9_stateMutualGaze        100ad860 f   c9_DemoGazeFollowWaveIdle.obj
 0001:000acb90       _c9_enter_atomic_stateAvertHead 100adb90 f   c9_DemoGazeFollowWaveIdle.obj
 0001:000ad060       _c9_enter_atomic_stateGazingGUI 100ae060 f   c9_DemoGazeFollowWaveIdle.obj
 0001:000ad460       _c9_enter_atomic_stateGazingUserHand 100ae460 f   c9_DemoGazeFollowWaveIdle.obj
 0001:000ad8d0       _c9_enter_atomic_stateWinSmile 100ae8d0 f   c9_DemoGazeFollowWaveIdle.obj
 0001:000adab0       _c9_enter_atomic_stateNeckBack 100aeab0 f   c9_DemoGazeFollowWaveIdle.obj
 0001:000adcc0       _c9_enter_atomic_stateBrowUp 100aecc0 f   c9_DemoGazeFollowWaveIdle.obj
 0001:000adf00       _c9_enter_atomic_stateGazeSoftEye 100aef00 f   c9_DemoGazeFollowWaveIdle.obj
 0001:000ae110       _c9_rand                   100af110 f   c9_DemoGazeFollowWaveIdle.obj
 0001:000ae1f0       _c9_eml_rand_mt19937ar     100af1f0 f   c9_DemoGazeFollowWaveIdle.obj
 0001:000ae250       _c9_randi                  100af250 f   c9_DemoGazeFollowWaveIdle.obj
 0001:000ae290       _c9_b_randi                100af290 f   c9_DemoGazeFollowWaveIdle.obj
 0001:000ae2e0       _c9_b_eml_error            100af2e0 f   c9_DemoGazeFollowWaveIdle.obj
 0001:000ae410       _c9_c_randi                100af410 f   c9_DemoGazeFollowWaveIdle.obj
 0001:000ae460       _c9_b_sf_marshallOut       100af460 f   c9_DemoGazeFollowWaveIdle.obj
 0001:000ae4e0       _c9_b_sf_marshallIn        100af4e0 f   c9_DemoGazeFollowWaveIdle.obj
 0001:000ae560       _c9_f_emlrt_marshallIn     100af560 f   c9_DemoGazeFollowWaveIdle.obj
 0001:000ae5b0       _c9_c_sf_marshallOut       100af5b0 f   c9_DemoGazeFollowWaveIdle.obj
 0001:000ae630       _c9_c_sf_marshallIn        100af630 f   c9_DemoGazeFollowWaveIdle.obj
 0001:000ae6b0       _c9_g_emlrt_marshallIn     100af6b0 f   c9_DemoGazeFollowWaveIdle.obj
 0001:000ae750       _c9_enter_atomic_c9_DemoGazeFollowWaveIdle 100af750 f   c9_DemoGazeFollowWaveIdle.obj
 0001:000ae800       _c9_enter_internal_c9_DemoGazeFollowWaveIdle 100af800 f   c9_DemoGazeFollowWaveIdle.obj
 0001:000afa90       _c9_d_sf_marshallOut       100b0a90 f   c9_DemoGazeFollowWaveIdle.obj
 0001:000afbb0       _c9_d_sf_marshallIn        100b0bb0 f   c9_DemoGazeFollowWaveIdle.obj
 0001:000afc70       _c9_i_emlrt_marshallIn     100b0c70 f   c9_DemoGazeFollowWaveIdle.obj
 0001:000afd10       _c9_mc_sf_marshallOut      100b0d10 f   c9_DemoGazeFollowWaveIdle.obj
 0001:000afdd0       _c9_exit_internal_c9_DemoGazeFollowWaveIdle 100b0dd0 f   c9_DemoGazeFollowWaveIdle.obj
 0001:000b0c50       _c9_initc9_DemoGazeFollowWaveIdle 100b1c50 f   c9_DemoGazeFollowWaveIdle.obj
 0001:000b0f00       _c9_idleGazeTablec9_DemoGazeFollowWaveIdle 100b1f00 f   c9_DemoGazeFollowWaveIdle.obj
 0001:000b5d00       _c9_encStr2Arr             100b6d00 f   c9_DemoGazeFollowWaveIdle.obj
 0001:000b6260       _c9_b_encStr2Arr           100b7260 f   c9_DemoGazeFollowWaveIdle.obj
 0001:000b67e0       _c9_c_encStr2Arr           100b77e0 f   c9_DemoGazeFollowWaveIdle.obj
 0001:000b6d40       _c9_d_encStr2Arr           100b7d40 f   c9_DemoGazeFollowWaveIdle.obj
 0001:000b7290       _c9_e_encStr2Arr           100b8290 f   c9_DemoGazeFollowWaveIdle.obj
 0001:000b7810       _c9_f_encStr2Arr           100b8810 f   c9_DemoGazeFollowWaveIdle.obj
 0001:000b7d60       _c9_g_encStr2Arr           100b8d60 f   c9_DemoGazeFollowWaveIdle.obj
 0001:000b82c0       _c9_h_encStr2Arr           100b92c0 f   c9_DemoGazeFollowWaveIdle.obj
 0001:000b8830       _c9_i_encStr2Arr           100b9830 f   c9_DemoGazeFollowWaveIdle.obj
 0001:000b8d90       _c9_j_encStr2Arr           100b9d90 f   c9_DemoGazeFollowWaveIdle.obj
 0001:000b9310       _c9_k_encStr2Arr           100ba310 f   c9_DemoGazeFollowWaveIdle.obj
 0001:000b9890       _c9_l_encStr2Arr           100ba890 f   c9_DemoGazeFollowWaveIdle.obj
 0001:000b9df0       _c9_m_encStr2Arr           100badf0 f   c9_DemoGazeFollowWaveIdle.obj
 0001:000ba350       _c9_n_encStr2Arr           100bb350 f   c9_DemoGazeFollowWaveIdle.obj
 0001:000ba8c0       _c9_o_encStr2Arr           100bb8c0 f   c9_DemoGazeFollowWaveIdle.obj
 0001:000bae30       _c9_p_encStr2Arr           100bbe30 f   c9_DemoGazeFollowWaveIdle.obj
 0001:000bb3a0       _c9_q_encStr2Arr           100bc3a0 f   c9_DemoGazeFollowWaveIdle.obj
 0001:000bb910       _c9_r_encStr2Arr           100bc910 f   c9_DemoGazeFollowWaveIdle.obj
 0001:000bbe80       _c9_s_encStr2Arr           100bce80 f   c9_DemoGazeFollowWaveIdle.obj
 0001:000bc3f0       _c9_t_encStr2Arr           100bd3f0 f   c9_DemoGazeFollowWaveIdle.obj
 0001:000bc950       _c9_u_encStr2Arr           100bd950 f   c9_DemoGazeFollowWaveIdle.obj
 0001:000bceb0       _c9_v_encStr2Arr           100bdeb0 f   c9_DemoGazeFollowWaveIdle.obj
 0001:000bd420       _c9_w_encStr2Arr           100be420 f   c9_DemoGazeFollowWaveIdle.obj
 0001:000bd9a0       _c9_sf_marshallOut         100be9a0 f   c9_DemoGazeFollowWaveIdle.obj
 0001:000bdad0       _c9_sf_marshallIn          100bead0 f   c9_DemoGazeFollowWaveIdle.obj
 0001:000bdb90       _c9_d_emlrt_marshallIn     100beb90 f   c9_DemoGazeFollowWaveIdle.obj
 0001:000bdc40       _c9_e_sf_marshallOut       100bec40 f   c9_DemoGazeFollowWaveIdle.obj
 0001:000bdd50       _c9_f_sf_marshallOut       100bed50 f   c9_DemoGazeFollowWaveIdle.obj
 0001:000bde80       _c9_g_sf_marshallOut       100bee80 f   c9_DemoGazeFollowWaveIdle.obj
 0001:000bdfb0       _c9_h_sf_marshallOut       100befb0 f   c9_DemoGazeFollowWaveIdle.obj
 0001:000be0e0       _c9_i_sf_marshallOut       100bf0e0 f   c9_DemoGazeFollowWaveIdle.obj
 0001:000be200       _c9_j_sf_marshallOut       100bf200 f   c9_DemoGazeFollowWaveIdle.obj
 0001:000be330       _c9_k_sf_marshallOut       100bf330 f   c9_DemoGazeFollowWaveIdle.obj
 0001:000be460       _c9_l_sf_marshallOut       100bf460 f   c9_DemoGazeFollowWaveIdle.obj
 0001:000be590       _c9_m_sf_marshallOut       100bf590 f   c9_DemoGazeFollowWaveIdle.obj
 0001:000be6c0       _c9_n_sf_marshallOut       100bf6c0 f   c9_DemoGazeFollowWaveIdle.obj
 0001:000be7f0       _c9_o_sf_marshallOut       100bf7f0 f   c9_DemoGazeFollowWaveIdle.obj
 0001:000be920       _c9_p_sf_marshallOut       100bf920 f   c9_DemoGazeFollowWaveIdle.obj
 0001:000bea30       _c9_q_sf_marshallOut       100bfa30 f   c9_DemoGazeFollowWaveIdle.obj
 0001:000beb40       _c9_r_sf_marshallOut       100bfb40 f   c9_DemoGazeFollowWaveIdle.obj
 0001:000bec70       _c9_s_sf_marshallOut       100bfc70 f   c9_DemoGazeFollowWaveIdle.obj
 0001:000beda0       _c9_t_sf_marshallOut       100bfda0 f   c9_DemoGazeFollowWaveIdle.obj
 0001:000beed0       _c9_u_sf_marshallOut       100bfed0 f   c9_DemoGazeFollowWaveIdle.obj
 0001:000bf000       _c9_v_sf_marshallOut       100c0000 f   c9_DemoGazeFollowWaveIdle.obj
 0001:000bf120       _c9_w_sf_marshallOut       100c0120 f   c9_DemoGazeFollowWaveIdle.obj
 0001:000bf250       _c9_x_sf_marshallOut       100c0250 f   c9_DemoGazeFollowWaveIdle.obj
 0001:000bf380       _c9_y_sf_marshallOut       100c0380 f   c9_DemoGazeFollowWaveIdle.obj
 0001:000bf4b0       _c9_ab_sf_marshallOut      100c04b0 f   c9_DemoGazeFollowWaveIdle.obj
 0001:000bf5e0       _c9_bb_sf_marshallOut      100c05e0 f   c9_DemoGazeFollowWaveIdle.obj
 0001:000bf710       _c9_cb_sf_marshallOut      100c0710 f   c9_DemoGazeFollowWaveIdle.obj
 0001:000bf840       _c9_db_sf_marshallOut      100c0840 f   c9_DemoGazeFollowWaveIdle.obj
 0001:000bf970       _c9_eb_sf_marshallOut      100c0970 f   c9_DemoGazeFollowWaveIdle.obj
 0001:000bfaa0       _c9_fb_sf_marshallOut      100c0aa0 f   c9_DemoGazeFollowWaveIdle.obj
 0001:000bfbd0       _c9_gb_sf_marshallOut      100c0bd0 f   c9_DemoGazeFollowWaveIdle.obj
 0001:000bfd00       _c9_hb_sf_marshallOut      100c0d00 f   c9_DemoGazeFollowWaveIdle.obj
 0001:000bfe20       _c9_ib_sf_marshallOut      100c0e20 f   c9_DemoGazeFollowWaveIdle.obj
 0001:000bff30       _c9_jb_sf_marshallOut      100c0f30 f   c9_DemoGazeFollowWaveIdle.obj
 0001:000c0060       _c9_kb_sf_marshallOut      100c1060 f   c9_DemoGazeFollowWaveIdle.obj
 0001:000c0190       _c9_lb_sf_marshallOut      100c1190 f   c9_DemoGazeFollowWaveIdle.obj
 0001:000c02c0       _c9_mb_sf_marshallOut      100c12c0 f   c9_DemoGazeFollowWaveIdle.obj
 0001:000c03f0       _c9_nb_sf_marshallOut      100c13f0 f   c9_DemoGazeFollowWaveIdle.obj
 0001:000c0520       _c9_ob_sf_marshallOut      100c1520 f   c9_DemoGazeFollowWaveIdle.obj
 0001:000c0650       _c9_pb_sf_marshallOut      100c1650 f   c9_DemoGazeFollowWaveIdle.obj
 0001:000c0780       _c9_qb_sf_marshallOut      100c1780 f   c9_DemoGazeFollowWaveIdle.obj
 0001:000c08b0       _c9_successTablec9_DemoGazeFollowWaveIdle 100c18b0 f   c9_DemoGazeFollowWaveIdle.obj
 0001:000c1ad0       _c9_fb_encStr2Arr          100c2ad0 f   c9_DemoGazeFollowWaveIdle.obj
 0001:000c2030       _c9_gb_encStr2Arr          100c3030 f   c9_DemoGazeFollowWaveIdle.obj
 0001:000c2590       _c9_ac_sf_marshallOut      100c3590 f   c9_DemoGazeFollowWaveIdle.obj
 0001:000c26c0       _c9_bc_sf_marshallOut      100c36c0 f   c9_DemoGazeFollowWaveIdle.obj
 0001:000c27f0       _c9_cc_sf_marshallOut      100c37f0 f   c9_DemoGazeFollowWaveIdle.obj
 0001:000c2920       _c9_dc_sf_marshallOut      100c3920 f   c9_DemoGazeFollowWaveIdle.obj
 0001:000c2a30       _c9_idleGazeFunctionc9_DemoGazeFollowWaveIdle 100c3a30 f   c9_DemoGazeFollowWaveIdle.obj
 0001:000c55f0       _c9_jb_encStr2Arr          100c65f0 f   c9_DemoGazeFollowWaveIdle.obj
 0001:000c5ce0       _c9_emlrt_marshallIn       100c6ce0 f   c9_DemoGazeFollowWaveIdle.obj
 0001:000c5d30       _c9_b_emlrt_marshallIn     100c6d30 f   c9_DemoGazeFollowWaveIdle.obj
 0001:000c5eb0       _c9_ic_sf_marshallOut      100c6eb0 f   c9_DemoGazeFollowWaveIdle.obj
 0001:000c6030       _c9_e_sf_marshallIn        100c7030 f   c9_DemoGazeFollowWaveIdle.obj
 0001:000c6150       _c9_j_emlrt_marshallIn     100c7150 f   c9_DemoGazeFollowWaveIdle.obj
 0001:000c62d0       _c9_jc_sf_marshallOut      100c72d0 f   c9_DemoGazeFollowWaveIdle.obj
 0001:000c6400       _c9_f_sf_marshallIn        100c7400 f   c9_DemoGazeFollowWaveIdle.obj
 0001:000c64e0       _c9_k_emlrt_marshallIn     100c74e0 f   c9_DemoGazeFollowWaveIdle.obj
 0001:000c65f0       _c9_kc_sf_marshallOut      100c75f0 f   c9_DemoGazeFollowWaveIdle.obj
 0001:000c6750       _c9_g_sf_marshallIn        100c7750 f   c9_DemoGazeFollowWaveIdle.obj
 0001:000c6850       _c9_l_emlrt_marshallIn     100c7850 f   c9_DemoGazeFollowWaveIdle.obj
 0001:000c6940       _c9_insertQueueLowc9_DemoGazeFollowWaveIdle 100c7940 f   c9_DemoGazeFollowWaveIdle.obj
 0001:000c7580       _c9_lc_sf_marshallOut      100c8580 f   c9_DemoGazeFollowWaveIdle.obj
 0001:000c7750       _c9_h_sf_marshallIn        100c8750 f   c9_DemoGazeFollowWaveIdle.obj
 0001:000c7850       _c9_n_emlrt_marshallIn     100c8850 f   c9_DemoGazeFollowWaveIdle.obj
 0001:000c7940       _c9_gazeFollowUserMovec9_DemoGazeFollowWaveIdle 100c8940 f   c9_DemoGazeFollowWaveIdle.obj
 0001:000c8b30       _c9_hb_encStr2Arr          100c9b30 f   c9_DemoGazeFollowWaveIdle.obj
 0001:000c90a0       _c9_ib_encStr2Arr          100ca0a0 f   c9_DemoGazeFollowWaveIdle.obj
 0001:000c9620       _c9_ec_sf_marshallOut      100ca620 f   c9_DemoGazeFollowWaveIdle.obj
 0001:000c9750       _c9_fc_sf_marshallOut      100ca750 f   c9_DemoGazeFollowWaveIdle.obj
 0001:000c9880       _c9_gc_sf_marshallOut      100ca880 f   c9_DemoGazeFollowWaveIdle.obj
 0001:000c9960       _c9_hc_sf_marshallOut      100ca960 f   c9_DemoGazeFollowWaveIdle.obj
 0001:000c9b20       _c9_idleGazeInterestedTablec9_DemoGazeFollowWaveIdle 100cab20 f   c9_DemoGazeFollowWaveIdle.obj
 0001:000cbd80       _c9_x_encStr2Arr           100ccd80 f   c9_DemoGazeFollowWaveIdle.obj
 0001:000cc2e0       _c9_y_encStr2Arr           100cd2e0 f   c9_DemoGazeFollowWaveIdle.obj
 0001:000cc830       _c9_ab_encStr2Arr          100cd830 f   c9_DemoGazeFollowWaveIdle.obj
 0001:000ccdb0       _c9_bb_encStr2Arr          100cddb0 f   c9_DemoGazeFollowWaveIdle.obj
 0001:000cd320       _c9_cb_encStr2Arr          100ce320 f   c9_DemoGazeFollowWaveIdle.obj
 0001:000cd890       _c9_db_encStr2Arr          100ce890 f   c9_DemoGazeFollowWaveIdle.obj
 0001:000cdde0       _c9_eb_encStr2Arr          100cede0 f   c9_DemoGazeFollowWaveIdle.obj
 0001:000ce340       _c9_rb_sf_marshallOut      100cf340 f   c9_DemoGazeFollowWaveIdle.obj
 0001:000ce460       _c9_sb_sf_marshallOut      100cf460 f   c9_DemoGazeFollowWaveIdle.obj
 0001:000ce590       _c9_tb_sf_marshallOut      100cf590 f   c9_DemoGazeFollowWaveIdle.obj
 0001:000ce6b0       _c9_ub_sf_marshallOut      100cf6b0 f   c9_DemoGazeFollowWaveIdle.obj
 0001:000ce7e0       _c9_vb_sf_marshallOut      100cf7e0 f   c9_DemoGazeFollowWaveIdle.obj
 0001:000ce900       _c9_wb_sf_marshallOut      100cf900 f   c9_DemoGazeFollowWaveIdle.obj
 0001:000cea30       _c9_xb_sf_marshallOut      100cfa30 f   c9_DemoGazeFollowWaveIdle.obj
 0001:000ceb60       _c9_yb_sf_marshallOut      100cfb60 f   c9_DemoGazeFollowWaveIdle.obj
 0001:000cedf0       _c9_updateDataWrittenToVector 100cfdf0 f   c9_DemoGazeFollowWaveIdle.obj
 0001:000cee40       _c9_errorIfDataNotWrittenToFcn 100cfe40 f   c9_DemoGazeFollowWaveIdle.obj
 0001:000ceec0       _c9_b_twister_state_vector 100cfec0 f   c9_DemoGazeFollowWaveIdle.obj
 0001:000cefc0       _c9_c_eml_rand_mt19937ar   100cffc0 f   c9_DemoGazeFollowWaveIdle.obj
 0001:000cf4e0       _c9_eml_error              100d04e0 f   c9_DemoGazeFollowWaveIdle.obj
 0001:000cf5a0       _c9_set_BML                100d05a0 f   c9_DemoGazeFollowWaveIdle.obj
 0001:000cf630       _c9_get_BOREDOM_THRESHOLD  100d0630 f   c9_DemoGazeFollowWaveIdle.obj
 0001:000cf6c0       _c9_get_GAZE_GUI           100d06c0 f   c9_DemoGazeFollowWaveIdle.obj
 0001:000cf750       _c9_set_GAZE_GUI           100d0750 f   c9_DemoGazeFollowWaveIdle.obj
 0001:000cf7e0       _c9_get_GAZE_SOFTEYE       100d07e0 f   c9_DemoGazeFollowWaveIdle.obj
 0001:000cf870       _c9_set_GAZE_SOFTEYE       100d0870 f   c9_DemoGazeFollowWaveIdle.obj
 0001:000cf900       _c9_get_GAZE_USER_HAND     100d0900 f   c9_DemoGazeFollowWaveIdle.obj
 0001:000cf990       _c9_set_GAZE_USER_HAND     100d0990 f   c9_DemoGazeFollowWaveIdle.obj
 0001:000cfa20       _c9_get_GAZE_WIN           100d0a20 f   c9_DemoGazeFollowWaveIdle.obj
 0001:000cfab0       _c9_set_GAZE_WIN           100d0ab0 f   c9_DemoGazeFollowWaveIdle.obj
 0001:000cfb40       _c9_set_P                  100d0b40 f   c9_DemoGazeFollowWaveIdle.obj
 0001:000cfbd0       _c9_set_STATE_BEFORE       100d0bd0 f   c9_DemoGazeFollowWaveIdle.obj
 0001:000cfc60       _c9_get_STATE_GO           100d0c60 f   c9_DemoGazeFollowWaveIdle.obj
 0001:000cfcf0       _c9_set_STATE_GO           100d0cf0 f   c9_DemoGazeFollowWaveIdle.obj
 0001:000cfd80       _c9_get_STATE_OVER         100d0d80 f   c9_DemoGazeFollowWaveIdle.obj
 0001:000cfe10       _c9_set_STATE_OVER         100d0e10 f   c9_DemoGazeFollowWaveIdle.obj
 0001:000cfea0       _c9_get_STATE_READY        100d0ea0 f   c9_DemoGazeFollowWaveIdle.obj
 0001:000cff30       _c9_set_STATE_READY        100d0f30 f   c9_DemoGazeFollowWaveIdle.obj
 0001:000cffc0       _c9_get_avert              100d0fc0 f   c9_DemoGazeFollowWaveIdle.obj
 0001:000d0050       _c9_set_avert              100d1050 f   c9_DemoGazeFollowWaveIdle.obj
 0001:000d00e0       _c9_get_bmlsL              100d10e0 f   c9_DemoGazeFollowWaveIdle.obj
 0001:000d0170       _c9_set_bmlsL              100d1170 f   c9_DemoGazeFollowWaveIdle.obj
 0001:000d0200       _c9_get_boredom            100d1200 f   c9_DemoGazeFollowWaveIdle.obj
 0001:000d0290       _c9_get_changeFlag         100d1290 f   c9_DemoGazeFollowWaveIdle.obj
 0001:000d0320       _c9_get_gazing             100d1320 f   c9_DemoGazeFollowWaveIdle.obj
 0001:000d03b0       _c9_set_gazing             100d13b0 f   c9_DemoGazeFollowWaveIdle.obj
 0001:000d0440       _c9_get_interest           100d1440 f   c9_DemoGazeFollowWaveIdle.obj
 0001:000d04d0       _c9_set_interest           100d14d0 f   c9_DemoGazeFollowWaveIdle.obj
 0001:000d1c40       _get_sim_state_c9_DemoGazeFollowWaveIdle 100d2c40 f   c9_DemoGazeFollowWaveIdle.obj
 0001:000d2dc0       _sf_get_sim_state_info_c9_DemoGazeFollowWaveIdle 100d3dc0 f   c9_DemoGazeFollowWaveIdle.obj
 0001:000d2f50       _set_sim_state_c9_DemoGazeFollowWaveIdle 100d3f50 f   c9_DemoGazeFollowWaveIdle.obj
 0001:000d38a0       _c9_update_debugger_state_c9_DemoGazeFollowWaveIdle 100d48a0 f   c9_DemoGazeFollowWaveIdle.obj
 0001:000d4640       _c9_c_emlrt_marshallIn     100d5640 f   c9_DemoGazeFollowWaveIdle.obj
 0001:000d4690       _c9_e_emlrt_marshallIn     100d5690 f   c9_DemoGazeFollowWaveIdle.obj
 0001:000d46e0       _c9_h_emlrt_marshallIn     100d56e0 f   c9_DemoGazeFollowWaveIdle.obj
 0001:000d4730       _c9_m_emlrt_marshallIn     100d5730 f   c9_DemoGazeFollowWaveIdle.obj
 0001:000d4780       _c9_q_emlrt_marshallIn     100d5780 f   c9_DemoGazeFollowWaveIdle.obj
 0001:000d47d0       _c9_r_emlrt_marshallIn     100d57d0 f   c9_DemoGazeFollowWaveIdle.obj
 0001:000d4820       _c9_s_emlrt_marshallIn     100d5820 f   c9_DemoGazeFollowWaveIdle.obj
 0001:000d4870       _c9_t_emlrt_marshallIn     100d5870 f   c9_DemoGazeFollowWaveIdle.obj
 0001:000d4900       _c9_u_emlrt_marshallIn     100d5900 f   c9_DemoGazeFollowWaveIdle.obj
 0001:000d4950       _c9_v_emlrt_marshallIn     100d5950 f   c9_DemoGazeFollowWaveIdle.obj
 0001:000d49e0       _c9_w_emlrt_marshallIn     100d59e0 f   c9_DemoGazeFollowWaveIdle.obj
 0001:000d4a30       _c9_x_emlrt_marshallIn     100d5a30 f   c9_DemoGazeFollowWaveIdle.obj
 0001:000d4ab0       _c9_y_emlrt_marshallIn     100d5ab0 f   c9_DemoGazeFollowWaveIdle.obj
 0001:000d4b00       _c9_ab_emlrt_marshallIn    100d5b00 f   c9_DemoGazeFollowWaveIdle.obj
 0001:000d4b80       _c9_bb_emlrt_marshallIn    100d5b80 f   c9_DemoGazeFollowWaveIdle.obj
 0001:000d4bd0       _c9_cb_emlrt_marshallIn    100d5bd0 f   c9_DemoGazeFollowWaveIdle.obj
 0001:000d4c90       _c9_db_emlrt_marshallIn    100d5c90 f   c9_DemoGazeFollowWaveIdle.obj
 0001:000d4ce0       _c9_eb_emlrt_marshallIn    100d5ce0 f   c9_DemoGazeFollowWaveIdle.obj
 0001:000d4d80       _c9_fb_emlrt_marshallIn    100d5d80 f   c9_DemoGazeFollowWaveIdle.obj
 0001:000d4dd0       _c9_gb_emlrt_marshallIn    100d5dd0 f   c9_DemoGazeFollowWaveIdle.obj
 0001:000d4e20       _c9_hb_emlrt_marshallIn    100d5e20 f   c9_DemoGazeFollowWaveIdle.obj
 0001:000d4e80       _c9_ib_emlrt_marshallIn    100d5e80 f   c9_DemoGazeFollowWaveIdle.obj
 0001:000d4f20       _mdlProcessParameters_c9_DemoGazeFollowWaveIdle 100d5f20 f   c9_DemoGazeFollowWaveIdle.obj
 0001:000d4fd0       _initialize_params_c9_DemoGazeFollowWaveIdle 100d5fd0 f   c9_DemoGazeFollowWaveIdle.obj
 0001:000d4fe0       _mdlSetWorkWidths_c9_DemoGazeFollowWaveIdle 100d5fe0 f   c9_DemoGazeFollowWaveIdle.obj
 0001:000d5300       _sf_get_instance_specialization 100d6300 f   c9_DemoGazeFollowWaveIdle.obj
 0001:000d5310       _mdlStart_c9_DemoGazeFollowWaveIdle 100d6310 f   c9_DemoGazeFollowWaveIdle.obj
 0001:000d54b0       _init_dsm_address_info     100d64b0 f   c9_DemoGazeFollowWaveIdle.obj
 0001:000d5fc0       _chart_debug_initialization 100d6fc0 f   c9_DemoGazeFollowWaveIdle.obj
 0001:000dd160       _init_script_number_translation 100de160 f   c9_DemoGazeFollowWaveIdle.obj
 0001:000dd1c0       _c9_qc_sf_marshallOut      100de1c0 f   c9_DemoGazeFollowWaveIdle.obj
 0001:000dd2a0       _c9_l_sf_marshallIn        100de2a0 f   c9_DemoGazeFollowWaveIdle.obj
 0001:000dd350       _c9_rc_sf_marshallOut      100de350 f   c9_DemoGazeFollowWaveIdle.obj
 0001:000dd430       _c9_m_sf_marshallIn        100de430 f   c9_DemoGazeFollowWaveIdle.obj
 0001:000dd4e0       _sf_opaque_initialize_c9_DemoGazeFollowWaveIdle 100de4e0 f   c9_DemoGazeFollowWaveIdle.obj
 0001:000dd510       _initialize_c9_DemoGazeFollowWaveIdle 100de510 f   c9_DemoGazeFollowWaveIdle.obj
 0001:000dd520       _sf_opaque_enable_c9_DemoGazeFollowWaveIdle 100de520 f   c9_DemoGazeFollowWaveIdle.obj
 0001:000dd540       _enable_c9_DemoGazeFollowWaveIdle 100de540 f   c9_DemoGazeFollowWaveIdle.obj
 0001:000dd550       _sf_opaque_disable_c9_DemoGazeFollowWaveIdle 100de550 f   c9_DemoGazeFollowWaveIdle.obj
 0001:000dd570       _disable_c9_DemoGazeFollowWaveIdle 100de570 f   c9_DemoGazeFollowWaveIdle.obj
 0001:000dd580       _sf_opaque_gateway_c9_DemoGazeFollowWaveIdle 100de580 f   c9_DemoGazeFollowWaveIdle.obj
 0001:000dd5a0       _sf_gateway_c9_DemoGazeFollowWaveIdle 100de5a0 f   c9_DemoGazeFollowWaveIdle.obj
 0001:000dd5c0       _c9_set_sim_state_side_effects_c9_DemoGazeFollowWaveIdle 100de5c0 f   c9_DemoGazeFollowWaveIdle.obj
 0001:000dda70       _sf_opaque_get_sim_state_c9_DemoGazeFollowWaveIdle 100dea70 f   c9_DemoGazeFollowWaveIdle.obj
 0001:000dda80       _sf_opaque_set_sim_state_c9_DemoGazeFollowWaveIdle 100dea80 f   c9_DemoGazeFollowWaveIdle.obj
 0001:000dda90       _sf_opaque_terminate_c9_DemoGazeFollowWaveIdle 100dea90 f   c9_DemoGazeFollowWaveIdle.obj
 0001:000ddb20       _finalize_c9_DemoGazeFollowWaveIdle 100deb20 f   c9_DemoGazeFollowWaveIdle.obj
 0001:000ddb40       _sf_opaque_init_subchart_simstructs 100deb40 f   c9_DemoGazeFollowWaveIdle.obj
 0001:000ddb60       _initSimStructsc9_DemoGazeFollowWaveIdle 100deb60 f   c9_DemoGazeFollowWaveIdle.obj
 0001:000ddb70       _mdlRTW_c9_DemoGazeFollowWaveIdle 100deb70 f   c9_DemoGazeFollowWaveIdle.obj
 0001:000ddba0       _initialize_c10_DemoGazeFollowWaveIdle 100deba0 f   c10_DemoGazeFollowWaveIdle.obj
 0001:000ddba5       _initialize_params_c10_DemoGazeFollowWaveIdle 100deba5 f   c10_DemoGazeFollowWaveIdle.obj
 0001:000ddbaa       _enable_c10_DemoGazeFollowWaveIdle 100debaa f   c10_DemoGazeFollowWaveIdle.obj
 0001:000ddbaf       _disable_c10_DemoGazeFollowWaveIdle 100debaf f   c10_DemoGazeFollowWaveIdle.obj
 0001:000ddbb4       _c10_update_debugger_state_c10_DemoGazeFollowWaveIdle 100debb4 f   c10_DemoGazeFollowWaveIdle.obj
 0001:000ddf64       _get_sim_state_c10_DemoGazeFollowWaveIdle 100def64 f   c10_DemoGazeFollowWaveIdle.obj
 0001:000de123       _set_sim_state_c10_DemoGazeFollowWaveIdle 100df123 f   c10_DemoGazeFollowWaveIdle.obj
 0001:000de286       _c10_set_sim_state_side_effects_c10_DemoGazeFollowWaveIdle 100df286 f   c10_DemoGazeFollowWaveIdle.obj
 0001:000de38e       _finalize_c10_DemoGazeFollowWaveIdle 100df38e f   c10_DemoGazeFollowWaveIdle.obj
 0001:000de3a7       _sf_gateway_c10_DemoGazeFollowWaveIdle 100df3a7 f   c10_DemoGazeFollowWaveIdle.obj
 0001:000de3b7       _c10_enter_atomic_c10_DemoGazeFollowWaveIdle 100df3b7 f   c10_DemoGazeFollowWaveIdle.obj
 0001:000de453       _c10_enter_internal_c10_DemoGazeFollowWaveIdle 100df453 f   c10_DemoGazeFollowWaveIdle.obj
 0001:000de659       _c10_c10_DemoGazeFollowWaveIdle 100df659 f   c10_DemoGazeFollowWaveIdle.obj
 0001:000df8a3       _c10_exit_internal_c10_DemoGazeFollowWaveIdle 100e08a3 f   c10_DemoGazeFollowWaveIdle.obj
 0001:000dfbe7       _c10_initc10_DemoGazeFollowWaveIdle 100e0be7 f   c10_DemoGazeFollowWaveIdle.obj
 0001:000dfc7a       _initSimStructsc10_DemoGazeFollowWaveIdle 100e0c7a f   c10_DemoGazeFollowWaveIdle.obj
 0001:000dfc7f       _init_script_number_translation 100e0c7f f   c10_DemoGazeFollowWaveIdle.obj
 0001:000dfc84       _c10_sf_marshallOut        100e0c84 f   c10_DemoGazeFollowWaveIdle.obj
 0001:000dfcfb       _c10_emlrt_marshallIn      100e0cfb f   c10_DemoGazeFollowWaveIdle.obj
 0001:000dfd49       _c10_b_emlrt_marshallIn    100e0d49 f   c10_DemoGazeFollowWaveIdle.obj
 0001:000dfd93       _c10_sf_marshallIn         100e0d93 f   c10_DemoGazeFollowWaveIdle.obj
 0001:000dfe11       _c10_b_sf_marshallOut      100e0e11 f   c10_DemoGazeFollowWaveIdle.obj
 0001:000dfe8a       _c10_c_emlrt_marshallIn    100e0e8a f   c10_DemoGazeFollowWaveIdle.obj
 0001:000dfed5       _c10_b_sf_marshallIn       100e0ed5 f   c10_DemoGazeFollowWaveIdle.obj
 0001:000dff96       _c10_activate_secsc10_DemoGazeFollowWaveIdle 100e0f96 f   c10_DemoGazeFollowWaveIdle.obj
 0001:000dffed       _c10_deactivate_secsc10_DemoGazeFollowWaveIdle 100e0fed f   c10_DemoGazeFollowWaveIdle.obj
 0001:000e0037       _c10_increment_counters_secsc10_DemoGazeFollowWaveIdle 100e1037 f   c10_DemoGazeFollowWaveIdle.obj
 0001:000e005b       _c10_reset_counters_secsc10_DemoGazeFollowWaveIdle 100e105b f   c10_DemoGazeFollowWaveIdle.obj
 0001:000e0410       _c10_c_sf_marshallOut      100e1410 f   c10_DemoGazeFollowWaveIdle.obj
 0001:000e0489       _c10_d_emlrt_marshallIn    100e1489 f   c10_DemoGazeFollowWaveIdle.obj
 0001:000e04d4       _c10_c_sf_marshallIn       100e14d4 f   c10_DemoGazeFollowWaveIdle.obj
 0001:000e0550       _c10_d_sf_marshallOut      100e1550 f   c10_DemoGazeFollowWaveIdle.obj
 0001:000e05c7       _c10_e_emlrt_marshallIn    100e15c7 f   c10_DemoGazeFollowWaveIdle.obj
 0001:000e0610       _c10_d_sf_marshallIn       100e1610 f   c10_DemoGazeFollowWaveIdle.obj
 0001:000e0688       _c10_e_sf_marshallOut      100e1688 f   c10_DemoGazeFollowWaveIdle.obj
 0001:000e0701       _c10_f_emlrt_marshallIn    100e1701 f   c10_DemoGazeFollowWaveIdle.obj
 0001:000e074e       _c10_g_emlrt_marshallIn    100e174e f   c10_DemoGazeFollowWaveIdle.obj
 0001:000e0799       _c10_e_sf_marshallIn       100e1799 f   c10_DemoGazeFollowWaveIdle.obj
 0001:000e0815       _c10_h_emlrt_marshallIn    100e1815 f   c10_DemoGazeFollowWaveIdle.obj
 0001:000e085d       _c10_i_emlrt_marshallIn    100e185d f   c10_DemoGazeFollowWaveIdle.obj
 0001:000e08a6       _c10_j_emlrt_marshallIn    100e18a6 f   c10_DemoGazeFollowWaveIdle.obj
 0001:000e0908       _c10_k_emlrt_marshallIn    100e1908 f   c10_DemoGazeFollowWaveIdle.obj
 0001:000e0948       _c10_updateDataWrittenToVector 100e1948 f   c10_DemoGazeFollowWaveIdle.obj
 0001:000e0987       _c10_errorIfDataNotWrittenToFcn 100e1987 f   c10_DemoGazeFollowWaveIdle.obj
 0001:000e09ed       _c10_get_changeFlag        100e19ed f   c10_DemoGazeFollowWaveIdle.obj
 0001:000e0a71       _c10_set_changeFlag        100e1a71 f   c10_DemoGazeFollowWaveIdle.obj
 0001:000e0af8       _c10_access_changeFlag     100e1af8 f   c10_DemoGazeFollowWaveIdle.obj
 0001:000e0bc6       _init_dsm_address_info     100e1bc6 f   c10_DemoGazeFollowWaveIdle.obj
 0001:000e0fd9       _sf_get_sim_state_info_c10_DemoGazeFollowWaveIdle 100e1fd9 f   c10_DemoGazeFollowWaveIdle.obj
 0001:000e1073       _chart_debug_initialization 100e2073 f   c10_DemoGazeFollowWaveIdle.obj
 0001:000e1a96       _sf_get_instance_specialization 100e2a96 f   c10_DemoGazeFollowWaveIdle.obj
 0001:000e1a9d       _sf_opaque_initialize_c10_DemoGazeFollowWaveIdle 100e2a9d f   c10_DemoGazeFollowWaveIdle.obj
 0001:000e1ace       _sf_opaque_enable_c10_DemoGazeFollowWaveIdle 100e2ace f   c10_DemoGazeFollowWaveIdle.obj
 0001:000e1ade       _sf_opaque_disable_c10_DemoGazeFollowWaveIdle 100e2ade f   c10_DemoGazeFollowWaveIdle.obj
 0001:000e1aee       _sf_opaque_gateway_c10_DemoGazeFollowWaveIdle 100e2aee f   c10_DemoGazeFollowWaveIdle.obj
 0001:000e1cbe       _sf_opaque_get_sim_state_c10_DemoGazeFollowWaveIdle 100e2cbe f   c10_DemoGazeFollowWaveIdle.obj
 0001:000e1cc5       _sf_opaque_set_sim_state_c10_DemoGazeFollowWaveIdle 100e2cc5 f   c10_DemoGazeFollowWaveIdle.obj
 0001:000e1cca       _sf_opaque_terminate_c10_DemoGazeFollowWaveIdle 100e2cca f   c10_DemoGazeFollowWaveIdle.obj
 0001:000e1d58       _sf_opaque_init_subchart_simstructs 100e2d58 f   c10_DemoGazeFollowWaveIdle.obj
 0001:000e1d68       _mdlProcessParameters_c10_DemoGazeFollowWaveIdle 100e2d68 f   c10_DemoGazeFollowWaveIdle.obj
 0001:000e1dff       _mdlSetWorkWidths_c10_DemoGazeFollowWaveIdle 100e2dff f   c10_DemoGazeFollowWaveIdle.obj
 0001:000e2138       _mdlRTW_c10_DemoGazeFollowWaveIdle 100e3138 f   c10_DemoGazeFollowWaveIdle.obj
 0001:000e2166       _mdlStart_c10_DemoGazeFollowWaveIdle 100e3166 f   c10_DemoGazeFollowWaveIdle.obj
 0001:000e23e0       _c11_info_helper           100e33e0 f   c11_DemoGazeFollowWaveIdle.obj
 0001:000e2d50       _c11_emlrt_marshallOut     100e3d50 f   c11_DemoGazeFollowWaveIdle.obj
 0001:000e2db0       _c11_b_emlrt_marshallOut   100e3db0 f   c11_DemoGazeFollowWaveIdle.obj
 0001:000e2e30       _c11_activate_secsc11_DemoGazeFollowWaveIdle 100e3e30 f   c11_DemoGazeFollowWaveIdle.obj
 0001:000e2ec0       _c11_increment_counters_secsc11_DemoGazeFollowWaveIdle 100e3ec0 f   c11_DemoGazeFollowWaveIdle.obj
 0001:000e2f20       _c11_reset_counters_secsc11_DemoGazeFollowWaveIdle 100e3f20 f   c11_DemoGazeFollowWaveIdle.obj
 0001:000e2f60       _c11_deactivate_secsc11_DemoGazeFollowWaveIdle 100e3f60 f   c11_DemoGazeFollowWaveIdle.obj
 0001:000e3020       _c11_c11_DemoGazeFollowWaveIdle 100e4020 f   c11_DemoGazeFollowWaveIdle.obj
 0001:000e4340       _c11_gazeCamera            100e5340 f   c11_DemoGazeFollowWaveIdle.obj
 0001:000e4fa0       _c11_c_sf_marshallOut      100e5fa0 f   c11_DemoGazeFollowWaveIdle.obj
 0001:000e5020       _c11_c_sf_marshallIn       100e6020 f   c11_DemoGazeFollowWaveIdle.obj
 0001:000e50a0       _c11_f_emlrt_marshallIn    100e60a0 f   c11_DemoGazeFollowWaveIdle.obj
 0001:000e50f0       _c11_f_sf_marshallOut      100e60f0 f   c11_DemoGazeFollowWaveIdle.obj
 0001:000e5170       _c11_e_sf_marshallIn       100e6170 f   c11_DemoGazeFollowWaveIdle.obj
 0001:000e51f0       _c11_i_emlrt_marshallIn    100e61f0 f   c11_DemoGazeFollowWaveIdle.obj
 0001:000e5290       _c11_enter_atomic_c11_DemoGazeFollowWaveIdle 100e6290 f   c11_DemoGazeFollowWaveIdle.obj
 0001:000e5340       _c11_enter_internal_c11_DemoGazeFollowWaveIdle 100e6340 f   c11_DemoGazeFollowWaveIdle.obj
 0001:000e5f70       _c11_d_sf_marshallOut      100e6f70 f   c11_DemoGazeFollowWaveIdle.obj
 0001:000e6070       _c11_d_sf_marshallIn       100e7070 f   c11_DemoGazeFollowWaveIdle.obj
 0001:000e6160       _c11_h_emlrt_marshallIn    100e7160 f   c11_DemoGazeFollowWaveIdle.obj
 0001:000e61f0       _c11_e_sf_marshallOut      100e71f0 f   c11_DemoGazeFollowWaveIdle.obj
 0001:000e62b0       _c11_exit_internal_c11_DemoGazeFollowWaveIdle 100e72b0 f   c11_DemoGazeFollowWaveIdle.obj
 0001:000e6810       _c11_initc11_DemoGazeFollowWaveIdle 100e7810 f   c11_DemoGazeFollowWaveIdle.obj
 0001:000e6980       _c11_insertQueuec11_DemoGazeFollowWaveIdle 100e7980 f   c11_DemoGazeFollowWaveIdle.obj
 0001:000e77c0       _c11_sf_marshallOut        100e87c0 f   c11_DemoGazeFollowWaveIdle.obj
 0001:000e7950       _c11_sf_marshallIn         100e8950 f   c11_DemoGazeFollowWaveIdle.obj
 0001:000e7a70       _c11_b_emlrt_marshallIn    100e8a70 f   c11_DemoGazeFollowWaveIdle.obj
 0001:000e7b10       _c11_b_sf_marshallOut      100e8b10 f   c11_DemoGazeFollowWaveIdle.obj
 0001:000e7c10       _c11_b_sf_marshallIn       100e8c10 f   c11_DemoGazeFollowWaveIdle.obj
 0001:000e7d00       _c11_d_emlrt_marshallIn    100e8d00 f   c11_DemoGazeFollowWaveIdle.obj
 0001:000e7db0       _c11_smileTablec11_DemoGazeFollowWaveIdle 100e8db0 f   c11_DemoGazeFollowWaveIdle.obj
 0001:000e8c90       _c11_encStr2Arr            100e9c90 f   c11_DemoGazeFollowWaveIdle.obj
 0001:000e9220       _c11_g_sf_marshallOut      100ea220 f   c11_DemoGazeFollowWaveIdle.obj
 0001:000e9330       _c11_h_sf_marshallOut      100ea330 f   c11_DemoGazeFollowWaveIdle.obj
 0001:000e9430       _c11_i_sf_marshallOut      100ea430 f   c11_DemoGazeFollowWaveIdle.obj
 0001:000e9520       _c11_j_sf_marshallOut      100ea520 f   c11_DemoGazeFollowWaveIdle.obj
 0001:000e9750       _c11_updateDataWrittenToVector 100ea750 f   c11_DemoGazeFollowWaveIdle.obj
 0001:000e97a0       _c11_errorIfDataNotWrittenToFcn 100ea7a0 f   c11_DemoGazeFollowWaveIdle.obj
 0001:000e9820       _c11_set_P                 100ea820 f   c11_DemoGazeFollowWaveIdle.obj
 0001:000e98b0       _c11_get_STATE_GO          100ea8b0 f   c11_DemoGazeFollowWaveIdle.obj
 0001:000e9940       _c11_get_STATE_READY       100ea940 f   c11_DemoGazeFollowWaveIdle.obj
 0001:000e99d0       _c11_set_avert             100ea9d0 f   c11_DemoGazeFollowWaveIdle.obj
 0001:000e9a60       _c11_get_bmlsM             100eaa60 f   c11_DemoGazeFollowWaveIdle.obj
 0001:000e9af0       _c11_set_bmlsM             100eaaf0 f   c11_DemoGazeFollowWaveIdle.obj
 0001:000ea590       _get_sim_state_c11_DemoGazeFollowWaveIdle 100eb590 f   c11_DemoGazeFollowWaveIdle.obj
 0001:000eaaf0       _sf_get_sim_state_info_c11_DemoGazeFollowWaveIdle 100ebaf0 f   c11_DemoGazeFollowWaveIdle.obj
 0001:000eac70       _set_sim_state_c11_DemoGazeFollowWaveIdle 100ebc70 f   c11_DemoGazeFollowWaveIdle.obj
 0001:000eafd0       _c11_update_debugger_state_c11_DemoGazeFollowWaveIdle 100ebfd0 f   c11_DemoGazeFollowWaveIdle.obj
 0001:000eb410       _c11_emlrt_marshallIn      100ec410 f   c11_DemoGazeFollowWaveIdle.obj
 0001:000eb460       _c11_c_emlrt_marshallIn    100ec460 f   c11_DemoGazeFollowWaveIdle.obj
 0001:000eb4b0       _c11_e_emlrt_marshallIn    100ec4b0 f   c11_DemoGazeFollowWaveIdle.obj
 0001:000eb500       _c11_g_emlrt_marshallIn    100ec500 f   c11_DemoGazeFollowWaveIdle.obj
 0001:000eb550       _c11_l_emlrt_marshallIn    100ec550 f   c11_DemoGazeFollowWaveIdle.obj
 0001:000eb5a0       _c11_m_emlrt_marshallIn    100ec5a0 f   c11_DemoGazeFollowWaveIdle.obj
 0001:000eb5f0       _c11_n_emlrt_marshallIn    100ec5f0 f   c11_DemoGazeFollowWaveIdle.obj
 0001:000eb640       _c11_o_emlrt_marshallIn    100ec640 f   c11_DemoGazeFollowWaveIdle.obj
 0001:000eb690       _c11_p_emlrt_marshallIn    100ec690 f   c11_DemoGazeFollowWaveIdle.obj
 0001:000eb6f0       _c11_q_emlrt_marshallIn    100ec6f0 f   c11_DemoGazeFollowWaveIdle.obj
 0001:000eb790       _mdlProcessParameters_c11_DemoGazeFollowWaveIdle 100ec790 f   c11_DemoGazeFollowWaveIdle.obj
 0001:000eb840       _initialize_params_c11_DemoGazeFollowWaveIdle 100ec840 f   c11_DemoGazeFollowWaveIdle.obj
 0001:000eb850       _mdlSetWorkWidths_c11_DemoGazeFollowWaveIdle 100ec850 f   c11_DemoGazeFollowWaveIdle.obj
 0001:000ebbf0       _sf_get_instance_specialization 100ecbf0 f   c11_DemoGazeFollowWaveIdle.obj
 0001:000ebc00       _mdlStart_c11_DemoGazeFollowWaveIdle 100ecc00 f   c11_DemoGazeFollowWaveIdle.obj
 0001:000ebda0       _init_dsm_address_info     100ecda0 f   c11_DemoGazeFollowWaveIdle.obj
 0001:000ec270       _chart_debug_initialization 100ed270 f   c11_DemoGazeFollowWaveIdle.obj
 0001:000ee1f0       _init_script_number_translation 100ef1f0 f   c11_DemoGazeFollowWaveIdle.obj
 0001:000ee230       _sf_opaque_initialize_c11_DemoGazeFollowWaveIdle 100ef230 f   c11_DemoGazeFollowWaveIdle.obj
 0001:000ee260       _initialize_c11_DemoGazeFollowWaveIdle 100ef260 f   c11_DemoGazeFollowWaveIdle.obj
 0001:000ee270       _sf_opaque_enable_c11_DemoGazeFollowWaveIdle 100ef270 f   c11_DemoGazeFollowWaveIdle.obj
 0001:000ee290       _enable_c11_DemoGazeFollowWaveIdle 100ef290 f   c11_DemoGazeFollowWaveIdle.obj
 0001:000ee2a0       _sf_opaque_disable_c11_DemoGazeFollowWaveIdle 100ef2a0 f   c11_DemoGazeFollowWaveIdle.obj
 0001:000ee2c0       _disable_c11_DemoGazeFollowWaveIdle 100ef2c0 f   c11_DemoGazeFollowWaveIdle.obj
 0001:000ee2d0       _sf_opaque_gateway_c11_DemoGazeFollowWaveIdle 100ef2d0 f   c11_DemoGazeFollowWaveIdle.obj
 0001:000ee2f0       _sf_gateway_c11_DemoGazeFollowWaveIdle 100ef2f0 f   c11_DemoGazeFollowWaveIdle.obj
 0001:000ee310       _c11_set_sim_state_side_effects_c11_DemoGazeFollowWaveIdle 100ef310 f   c11_DemoGazeFollowWaveIdle.obj
 0001:000ee450       _sf_opaque_get_sim_state_c11_DemoGazeFollowWaveIdle 100ef450 f   c11_DemoGazeFollowWaveIdle.obj
 0001:000ee460       _sf_opaque_set_sim_state_c11_DemoGazeFollowWaveIdle 100ef460 f   c11_DemoGazeFollowWaveIdle.obj
 0001:000ee470       _sf_opaque_terminate_c11_DemoGazeFollowWaveIdle 100ef470 f   c11_DemoGazeFollowWaveIdle.obj
 0001:000ee500       _finalize_c11_DemoGazeFollowWaveIdle 100ef500 f   c11_DemoGazeFollowWaveIdle.obj
 0001:000ee520       _sf_opaque_init_subchart_simstructs 100ef520 f   c11_DemoGazeFollowWaveIdle.obj
 0001:000ee540       _initSimStructsc11_DemoGazeFollowWaveIdle 100ef540 f   c11_DemoGazeFollowWaveIdle.obj
 0001:000ee550       _mdlRTW_c11_DemoGazeFollowWaveIdle 100ef550 f   c11_DemoGazeFollowWaveIdle.obj
 0001:000ee5f0       _c17_info_helper           100ef5f0 f   c17_DemoGazeFollowWaveIdle.obj
 0001:000eeba0       _c17_emlrt_marshallOut     100efba0 f   c17_DemoGazeFollowWaveIdle.obj
 0001:000eec00       _c17_b_emlrt_marshallOut   100efc00 f   c17_DemoGazeFollowWaveIdle.obj
 0001:000f00f0       _get_sim_state_c17_DemoGazeFollowWaveIdle 100f10f0 f   c17_DemoGazeFollowWaveIdle.obj
 0001:000f0270       _sf_get_sim_state_info_c17_DemoGazeFollowWaveIdle 100f1270 f   c17_DemoGazeFollowWaveIdle.obj
 0001:000f03f0       _set_sim_state_c17_DemoGazeFollowWaveIdle 100f13f0 f   c17_DemoGazeFollowWaveIdle.obj
 0001:000f0520       _c17_update_debugger_state_c17_DemoGazeFollowWaveIdle 100f1520 f   c17_DemoGazeFollowWaveIdle.obj
 0001:000f0530       _c17_emlrt_marshallIn      100f1530 f   c17_DemoGazeFollowWaveIdle.obj
 0001:000f0580       _c17_b_emlrt_marshallIn    100f1580 f   c17_DemoGazeFollowWaveIdle.obj
 0001:000f0620       _c17_e_emlrt_marshallIn    100f1620 f   c17_DemoGazeFollowWaveIdle.obj
 0001:000f0670       _c17_f_emlrt_marshallIn    100f1670 f   c17_DemoGazeFollowWaveIdle.obj
 0001:000f0720       _mdlProcessParameters_c17_DemoGazeFollowWaveIdle 100f1720 f   c17_DemoGazeFollowWaveIdle.obj
 0001:000f07d0       _initialize_params_c17_DemoGazeFollowWaveIdle 100f17d0 f   c17_DemoGazeFollowWaveIdle.obj
 0001:000f07e0       _mdlSetWorkWidths_c17_DemoGazeFollowWaveIdle 100f17e0 f   c17_DemoGazeFollowWaveIdle.obj
 0001:000f0d80       _sf_get_instance_specialization 100f1d80 f   c17_DemoGazeFollowWaveIdle.obj
 0001:000f0d90       _mdlStart_c17_DemoGazeFollowWaveIdle 100f1d90 f   c17_DemoGazeFollowWaveIdle.obj
 0001:000f0f30       _init_dsm_address_info     100f1f30 f   c17_DemoGazeFollowWaveIdle.obj
 0001:000f0f40       _chart_debug_initialization 100f1f40 f   c17_DemoGazeFollowWaveIdle.obj
 0001:000f1f10       _init_script_number_translation 100f2f10 f   c17_DemoGazeFollowWaveIdle.obj
 0001:000f1f20       _c17_sf_marshallOut        100f2f20 f   c17_DemoGazeFollowWaveIdle.obj
 0001:000f2020       _c17_sf_marshallIn         100f3020 f   c17_DemoGazeFollowWaveIdle.obj
 0001:000f20e0       _c17_b_sf_marshallOut      100f30e0 f   c17_DemoGazeFollowWaveIdle.obj
 0001:000f2160       _sf_opaque_initialize_c17_DemoGazeFollowWaveIdle 100f3160 f   c17_DemoGazeFollowWaveIdle.obj
 0001:000f2190       _initialize_c17_DemoGazeFollowWaveIdle 100f3190 f   c17_DemoGazeFollowWaveIdle.obj
 0001:000f21c0       _sf_opaque_enable_c17_DemoGazeFollowWaveIdle 100f31c0 f   c17_DemoGazeFollowWaveIdle.obj
 0001:000f21e0       _enable_c17_DemoGazeFollowWaveIdle 100f31e0 f   c17_DemoGazeFollowWaveIdle.obj
 0001:000f2200       _sf_opaque_disable_c17_DemoGazeFollowWaveIdle 100f3200 f   c17_DemoGazeFollowWaveIdle.obj
 0001:000f2220       _disable_c17_DemoGazeFollowWaveIdle 100f3220 f   c17_DemoGazeFollowWaveIdle.obj
 0001:000f2240       _sf_opaque_gateway_c17_DemoGazeFollowWaveIdle 100f3240 f   c17_DemoGazeFollowWaveIdle.obj
 0001:000f2260       _sf_gateway_c17_DemoGazeFollowWaveIdle 100f3260 f   c17_DemoGazeFollowWaveIdle.obj
 0001:000f3650       _c17_b_sf_marshallIn       100f4650 f   c17_DemoGazeFollowWaveIdle.obj
 0001:000f36d0       _c17_c_emlrt_marshallIn    100f46d0 f   c17_DemoGazeFollowWaveIdle.obj
 0001:000f3720       _sf_opaque_get_sim_state_c17_DemoGazeFollowWaveIdle 100f4720 f   c17_DemoGazeFollowWaveIdle.obj
 0001:000f3740       _sf_opaque_set_sim_state_c17_DemoGazeFollowWaveIdle 100f4740 f   c17_DemoGazeFollowWaveIdle.obj
 0001:000f3760       _sf_opaque_terminate_c17_DemoGazeFollowWaveIdle 100f4760 f   c17_DemoGazeFollowWaveIdle.obj
 0001:000f37f0       _finalize_c17_DemoGazeFollowWaveIdle 100f47f0 f   c17_DemoGazeFollowWaveIdle.obj
 0001:000f3800       _sf_opaque_init_subchart_simstructs 100f4800 f   c17_DemoGazeFollowWaveIdle.obj
 0001:000f3820       _initSimStructsc17_DemoGazeFollowWaveIdle 100f4820 f   c17_DemoGazeFollowWaveIdle.obj
 0001:000f3830       _mdlRTW_c17_DemoGazeFollowWaveIdle 100f4830 f   c17_DemoGazeFollowWaveIdle.obj
 0001:000f38e0       _c20_info_helper           100f48e0 f   c20_DemoGazeFollowWaveIdle.obj
 0001:000f4610       _c20_emlrt_marshallOut     100f5610 f   c20_DemoGazeFollowWaveIdle.obj
 0001:000f4670       _c20_b_emlrt_marshallOut   100f5670 f   c20_DemoGazeFollowWaveIdle.obj
 0001:000f46f0       _c20_activate_secsc20_DemoGazeFollowWaveIdle 100f56f0 f   c20_DemoGazeFollowWaveIdle.obj
 0001:000f4780       _c20_increment_counters_secsc20_DemoGazeFollowWaveIdle 100f5780 f   c20_DemoGazeFollowWaveIdle.obj
 0001:000f47e0       _c20_reset_counters_secsc20_DemoGazeFollowWaveIdle 100f57e0 f   c20_DemoGazeFollowWaveIdle.obj
 0001:000f4820       _c20_deactivate_secsc20_DemoGazeFollowWaveIdle 100f5820 f   c20_DemoGazeFollowWaveIdle.obj
 0001:000f48e0       _c20_c20_DemoGazeFollowWaveIdle 100f58e0 f   c20_DemoGazeFollowWaveIdle.obj
 0001:000f60e0       _c20_gazeCamera            100f70e0 f   c20_DemoGazeFollowWaveIdle.obj
 0001:000f6810       _c20_wave                  100f7810 f   c20_DemoGazeFollowWaveIdle.obj
 0001:000f89c0       _c20_enter_atomic_gazeCamera 100f99c0 f   c20_DemoGazeFollowWaveIdle.obj
 0001:000f8e30       _c20_enter_atomic_gazeCamera1 100f9e30 f   c20_DemoGazeFollowWaveIdle.obj
 0001:000f9290       _c20_gazeCamera1           100fa290 f   c20_DemoGazeFollowWaveIdle.obj
 0001:000f9a20       _c20_enter_atomic_waveLeftHand 100faa20 f   c20_DemoGazeFollowWaveIdle.obj
 0001:000f9e60       _c20_enter_atomic_waveBothHands 100fae60 f   c20_DemoGazeFollowWaveIdle.obj
 0001:000fa2d0       _c20_enter_atomic_gazeCamera2 100fb2d0 f   c20_DemoGazeFollowWaveIdle.obj
 0001:000fa730       _c20_b_sf_marshallOut      100fb730 f   c20_DemoGazeFollowWaveIdle.obj
 0001:000fa7b0       _c20_b_sf_marshallIn       100fb7b0 f   c20_DemoGazeFollowWaveIdle.obj
 0001:000fa830       _c20_d_emlrt_marshallIn    100fb830 f   c20_DemoGazeFollowWaveIdle.obj
 0001:000fa880       _c20_c_sf_marshallOut      100fb880 f   c20_DemoGazeFollowWaveIdle.obj
 0001:000fa900       _c20_c_sf_marshallIn       100fb900 f   c20_DemoGazeFollowWaveIdle.obj
 0001:000fa980       _c20_e_emlrt_marshallIn    100fb980 f   c20_DemoGazeFollowWaveIdle.obj
 0001:000faa20       _c20_enter_atomic_c20_DemoGazeFollowWaveIdle 100fba20 f   c20_DemoGazeFollowWaveIdle.obj
 0001:000faad0       _c20_enter_internal_c20_DemoGazeFollowWaveIdle 100fbad0 f   c20_DemoGazeFollowWaveIdle.obj
 0001:000fb7f0       _c20_d_sf_marshallOut      100fc7f0 f   c20_DemoGazeFollowWaveIdle.obj
 0001:000fb920       _c20_d_sf_marshallIn       100fc920 f   c20_DemoGazeFollowWaveIdle.obj
 0001:000fb9f0       _c20_g_emlrt_marshallIn    100fc9f0 f   c20_DemoGazeFollowWaveIdle.obj
 0001:000fba80       _c20_p_sf_marshallOut      100fca80 f   c20_DemoGazeFollowWaveIdle.obj
 0001:000fbb40       _c20_exit_internal_c20_DemoGazeFollowWaveIdle 100fcb40 f   c20_DemoGazeFollowWaveIdle.obj
 0001:000fc270       _c20_initc20_DemoGazeFollowWaveIdle 100fd270 f   c20_DemoGazeFollowWaveIdle.obj
 0001:000fc430       _c20_wavePoseBradTablec20_DemoGazeFollowWaveIdle 100fd430 f   c20_DemoGazeFollowWaveIdle.obj
 0001:000fdff0       _c20_encStr2Arr            100feff0 f   c20_DemoGazeFollowWaveIdle.obj
 0001:000fe530       _c20_b_encStr2Arr          100ff530 f   c20_DemoGazeFollowWaveIdle.obj
 0001:000fea90       _c20_c_encStr2Arr          100ffa90 f   c20_DemoGazeFollowWaveIdle.obj
 0001:000fefe0       _c20_d_encStr2Arr          100fffe0 f   c20_DemoGazeFollowWaveIdle.obj
 0001:000ff530       _c20_sf_marshallOut        10100530 f   c20_DemoGazeFollowWaveIdle.obj
 0001:000ff660       _c20_sf_marshallIn         10100660 f   c20_DemoGazeFollowWaveIdle.obj
 0001:000ff730       _c20_b_emlrt_marshallIn    10100730 f   c20_DemoGazeFollowWaveIdle.obj
 0001:000ff7c0       _c20_e_sf_marshallOut      101007c0 f   c20_DemoGazeFollowWaveIdle.obj
 0001:000ff8d0       _c20_f_sf_marshallOut      101008d0 f   c20_DemoGazeFollowWaveIdle.obj
 0001:000ffa00       _c20_g_sf_marshallOut      10100a00 f   c20_DemoGazeFollowWaveIdle.obj
 0001:000ffb10       _c20_h_sf_marshallOut      10100b10 f   c20_DemoGazeFollowWaveIdle.obj
 0001:000ffc40       _c20_i_sf_marshallOut      10100c40 f   c20_DemoGazeFollowWaveIdle.obj
 0001:000ffd50       _c20_j_sf_marshallOut      10100d50 f   c20_DemoGazeFollowWaveIdle.obj
 0001:000ffe80       _c20_k_sf_marshallOut      10100e80 f   c20_DemoGazeFollowWaveIdle.obj
 0001:000fff90       _c20_l_sf_marshallOut      10100f90 f   c20_DemoGazeFollowWaveIdle.obj
 0001:001000c0       _c20_m_sf_marshallOut      101010c0 f   c20_DemoGazeFollowWaveIdle.obj
 0001:001001d0       _c20_n_sf_marshallOut      101011d0 f   c20_DemoGazeFollowWaveIdle.obj
 0001:00100300       _c20_insertQueuec20_DemoGazeFollowWaveIdle 10101300 f   c20_DemoGazeFollowWaveIdle.obj
 0001:00101390       _c20_o_sf_marshallOut      10102390 f   c20_DemoGazeFollowWaveIdle.obj
 0001:00101540       _c20_e_sf_marshallIn       10102540 f   c20_DemoGazeFollowWaveIdle.obj
 0001:00101640       _c20_i_emlrt_marshallIn    10102640 f   c20_DemoGazeFollowWaveIdle.obj
 0001:00101810       _c20_updateDataWrittenToVector 10102810 f   c20_DemoGazeFollowWaveIdle.obj
 0001:00101860       _c20_errorIfDataNotWrittenToFcn 10102860 f   c20_DemoGazeFollowWaveIdle.obj
 0001:001018e0       _c20_set_P                 101028e0 f   c20_DemoGazeFollowWaveIdle.obj
 0001:00101970       _c20_set_STATE_BEFORE      10102970 f   c20_DemoGazeFollowWaveIdle.obj
 0001:00101a00       _c20_get_STATE_OVER        10102a00 f   c20_DemoGazeFollowWaveIdle.obj
 0001:00101a90       _c20_set_STATE_OVER        10102a90 f   c20_DemoGazeFollowWaveIdle.obj
 0001:00101b20       _c20_get_avert             10102b20 f   c20_DemoGazeFollowWaveIdle.obj
 0001:00101bb0       _c20_set_avert             10102bb0 f   c20_DemoGazeFollowWaveIdle.obj
 0001:00101c40       _c20_get_bmlsM             10102c40 f   c20_DemoGazeFollowWaveIdle.obj
 0001:00101cd0       _c20_set_bmlsM             10102cd0 f   c20_DemoGazeFollowWaveIdle.obj
 0001:00102880       _get_sim_state_c20_DemoGazeFollowWaveIdle 10103880 f   c20_DemoGazeFollowWaveIdle.obj
 0001:00102e20       _sf_get_sim_state_info_c20_DemoGazeFollowWaveIdle 10103e20 f   c20_DemoGazeFollowWaveIdle.obj
 0001:00102fa0       _set_sim_state_c20_DemoGazeFollowWaveIdle 10103fa0 f   c20_DemoGazeFollowWaveIdle.obj
 0001:00103300       _c20_update_debugger_state_c20_DemoGazeFollowWaveIdle 10104300 f   c20_DemoGazeFollowWaveIdle.obj
 0001:00103940       _c20_emlrt_marshallIn      10104940 f   c20_DemoGazeFollowWaveIdle.obj
 0001:00103990       _c20_c_emlrt_marshallIn    10104990 f   c20_DemoGazeFollowWaveIdle.obj
 0001:001039e0       _c20_f_emlrt_marshallIn    101049e0 f   c20_DemoGazeFollowWaveIdle.obj
 0001:00103a30       _c20_h_emlrt_marshallIn    10104a30 f   c20_DemoGazeFollowWaveIdle.obj
 0001:00103a80       _c20_l_emlrt_marshallIn    10104a80 f   c20_DemoGazeFollowWaveIdle.obj
 0001:00103ad0       _c20_m_emlrt_marshallIn    10104ad0 f   c20_DemoGazeFollowWaveIdle.obj
 0001:00103b20       _c20_n_emlrt_marshallIn    10104b20 f   c20_DemoGazeFollowWaveIdle.obj
 0001:00103b80       _c20_o_emlrt_marshallIn    10104b80 f   c20_DemoGazeFollowWaveIdle.obj
 0001:00103c20       _mdlProcessParameters_c20_DemoGazeFollowWaveIdle 10104c20 f   c20_DemoGazeFollowWaveIdle.obj
 0001:00103cd0       _initialize_params_c20_DemoGazeFollowWaveIdle 10104cd0 f   c20_DemoGazeFollowWaveIdle.obj
 0001:00103ce0       _mdlSetWorkWidths_c20_DemoGazeFollowWaveIdle 10104ce0 f   c20_DemoGazeFollowWaveIdle.obj
 0001:00104080       _sf_get_instance_specialization 10105080 f   c20_DemoGazeFollowWaveIdle.obj
 0001:00104090       _mdlStart_c20_DemoGazeFollowWaveIdle 10105090 f   c20_DemoGazeFollowWaveIdle.obj
 0001:00104230       _init_dsm_address_info     10105230 f   c20_DemoGazeFollowWaveIdle.obj
 0001:00104600       _chart_debug_initialization 10105600 f   c20_DemoGazeFollowWaveIdle.obj
 0001:00107010       _init_script_number_translation 10108010 f   c20_DemoGazeFollowWaveIdle.obj
 0001:00107050       _sf_opaque_initialize_c20_DemoGazeFollowWaveIdle 10108050 f   c20_DemoGazeFollowWaveIdle.obj
 0001:00107080       _initialize_c20_DemoGazeFollowWaveIdle 10108080 f   c20_DemoGazeFollowWaveIdle.obj
 0001:00107090       _sf_opaque_enable_c20_DemoGazeFollowWaveIdle 10108090 f   c20_DemoGazeFollowWaveIdle.obj
 0001:001070b0       _enable_c20_DemoGazeFollowWaveIdle 101080b0 f   c20_DemoGazeFollowWaveIdle.obj
 0001:001070c0       _sf_opaque_disable_c20_DemoGazeFollowWaveIdle 101080c0 f   c20_DemoGazeFollowWaveIdle.obj
 0001:001070e0       _disable_c20_DemoGazeFollowWaveIdle 101080e0 f   c20_DemoGazeFollowWaveIdle.obj
 0001:001070f0       _sf_opaque_gateway_c20_DemoGazeFollowWaveIdle 101080f0 f   c20_DemoGazeFollowWaveIdle.obj
 0001:00107110       _sf_gateway_c20_DemoGazeFollowWaveIdle 10108110 f   c20_DemoGazeFollowWaveIdle.obj
 0001:00107130       _c20_set_sim_state_side_effects_c20_DemoGazeFollowWaveIdle 10108130 f   c20_DemoGazeFollowWaveIdle.obj
 0001:001073d0       _sf_opaque_get_sim_state_c20_DemoGazeFollowWaveIdle 101083d0 f   c20_DemoGazeFollowWaveIdle.obj
 0001:001073e0       _sf_opaque_set_sim_state_c20_DemoGazeFollowWaveIdle 101083e0 f   c20_DemoGazeFollowWaveIdle.obj
 0001:001073f0       _sf_opaque_terminate_c20_DemoGazeFollowWaveIdle 101083f0 f   c20_DemoGazeFollowWaveIdle.obj
 0001:00107480       _finalize_c20_DemoGazeFollowWaveIdle 10108480 f   c20_DemoGazeFollowWaveIdle.obj
 0001:001074a0       _sf_opaque_init_subchart_simstructs 101084a0 f   c20_DemoGazeFollowWaveIdle.obj
 0001:001074c0       _initSimStructsc20_DemoGazeFollowWaveIdle 101084c0 f   c20_DemoGazeFollowWaveIdle.obj
 0001:001074d0       _mdlRTW_c20_DemoGazeFollowWaveIdle 101084d0 f   c20_DemoGazeFollowWaveIdle.obj
 0001:00107c10       _getChartInfoFromSimStruct 10108c10 f   DemoGazeFollowWaveIdle_sfun_registry.obj
 0001:00108d10       __ssFatalError             10109d10 f   DemoGazeFollowWaveIdle_sfun_registry.obj
 0001:0010b070       _ProcessMexSfunctionCmdLineCall 1010c070 f   DemoGazeFollowWaveIdle_sfun_registry.obj
 0001:0010b190       _sf_debug_api_wrapper      1010c190 f   DemoGazeFollowWaveIdle_sfun_registry.obj
 0001:0010b1c0       _mdlStart                  1010c1c0 f   DemoGazeFollowWaveIdle_sfun_registry.obj
 0001:0010b1e0       _mdl_start_processing      1010c1e0 f   DemoGazeFollowWaveIdle_sfun_registry.obj
 0001:0010b250       _mdlTerminate              1010c250 f   DemoGazeFollowWaveIdle_sfun_registry.obj
 0001:0010b270       _mdl_terminate_processing  1010c270 f   DemoGazeFollowWaveIdle_sfun_registry.obj
 0001:0010b2e0       _mdlInitializeSampleTimes  1010c2e0 f   DemoGazeFollowWaveIdle_sfun_registry.obj
 0001:0010b300       _mdlZeroCrossings          1010c300 f   DemoGazeFollowWaveIdle_sfun_registry.obj
 0001:0010b320       _mdl_zeroCrossings_processing 1010c320 f   DemoGazeFollowWaveIdle_sfun_registry.obj
 0001:0010b350       _mdlDerivatives            1010c350 f   DemoGazeFollowWaveIdle_sfun_registry.obj
 0001:0010b370       _mdl_derivatives_processing 1010c370 f   DemoGazeFollowWaveIdle_sfun_registry.obj
 0001:0010b3b0       _mdlInitializeConditions   1010c3b0 f   DemoGazeFollowWaveIdle_sfun_registry.obj
 0001:0010b3d0       _mdl_initialize_conditions_processing 1010c3d0 f   DemoGazeFollowWaveIdle_sfun_registry.obj
 0001:0010b410       _mdlEnable                 1010c410 f   DemoGazeFollowWaveIdle_sfun_registry.obj
 0001:0010b430       _mdl_enable_processing     1010c430 f   DemoGazeFollowWaveIdle_sfun_registry.obj
 0001:0010b460       _mdlDisable                1010c460 f   DemoGazeFollowWaveIdle_sfun_registry.obj
 0001:0010b480       _mdl_disable_processing    1010c480 f   DemoGazeFollowWaveIdle_sfun_registry.obj
 0001:0010b4b0       _mdlOutputs                1010c4b0 f   DemoGazeFollowWaveIdle_sfun_registry.obj
 0001:0010b4d0       _mdl_outputs_processing    1010c4d0 f   DemoGazeFollowWaveIdle_sfun_registry.obj
 0001:0010b5a0       _mdl_outputs_continuous_legacy 1010c5a0 f   DemoGazeFollowWaveIdle_sfun_registry.obj
 0001:0010b670       _mdlGetTimeOfNextVarHit    1010c670 f   DemoGazeFollowWaveIdle_sfun_registry.obj
 0001:0010b6b0       __ProcessMexSfunctionCmdLineCall 1010c6b0 f   DemoGazeFollowWaveIdle_sfun_registry.obj
 0001:0010bcd0       _mdlSetWorkWidths          1010ccd0 f   DemoGazeFollowWaveIdle_sfun_registry.obj
 0001:0010bcf0       _mdlProcessParameters      1010ccf0 f   DemoGazeFollowWaveIdle_sfun_registry.obj
 0001:0010bd10       _mdlInitializeSizes        1010cd10 f   DemoGazeFollowWaveIdle_sfun_registry.obj
 0001:0010bd30       _mdlExtModeExec            1010cd30 f   DemoGazeFollowWaveIdle_sfun_registry.obj
 0001:0010bd50       _mdl_ext_mode_exec_processing 1010cd50 f   DemoGazeFollowWaveIdle_sfun_registry.obj
 0001:0010bd90       _mdlRTW                    1010cd90 f   DemoGazeFollowWaveIdle_sfun_registry.obj
 0001:0010bdc0       __CreateSimStruct          1010cdc0 f   DemoGazeFollowWaveIdle_sfun_registry.obj
 0001:0010bef0       __RegNumInputPortsCB       1010cef0 f   DemoGazeFollowWaveIdle_sfun_registry.obj
 0001:0010bf50       __RegNumOutputPortsCB      1010cf50 f   DemoGazeFollowWaveIdle_sfun_registry.obj
 0001:0010c527       _pre_c_init                1010d527 f   MSVCRT:crtdll.obj
 0001:0010c77f       ___DllMainCRTStartup       1010d77f f   MSVCRT:crtdll.obj
