 ARP_02_RPSs_Bdr_GK_BIS2_sfun

 Timestamp is 559ee632 (Thu Jul 09 14:22:58 2015)

 Preferred load address is 10000000

 Start         Length     Name                   Class
 0001:00000000 000d1b14H .text                   CODE
 0002:00000000 000002b8H .idata$5                DATA
 0002:000002b8 00000004H .CRT$XCA                DATA
 0002:000002bc 00000004H .CRT$XCZ                DATA
 0002:000002c0 00000004H .CRT$XIA                DATA
 0002:000002c4 00000004H .CRT$XIAA               DATA
 0002:000002c8 00000004H .CRT$XIC                DATA
 0002:000002cc 00000004H .CRT$XIZ                DATA
 0002:000002d0 00000b10H .rdata                  DATA
 0002:00000de0 00000004H .rdata$sxdata           DATA
 0002:00000de4 00000004H .rtc$IAA                DATA
 0002:00000de8 00000004H .rtc$IZZ                DATA
 0002:00000dec 00000004H .rtc$TAA                DATA
 0002:00000df0 00000004H .rtc$TZZ                DATA
 0002:00000df8 00000064H .xdata$x                DATA
 0002:00000e5c 0000008cH .idata$2                DATA
 0002:00000ee8 00000014H .idata$3                DATA
 0002:00000efc 000002b8H .idata$4                DATA
 0002:000011b4 00000feaH .idata$6                DATA
 0002:000021a0 00000062H .edata                  DATA
 0003:00000000 00040e20H .data                   DATA
 0003:00040e20 00000560H .bss                    DATA

  Address         Publics by Value              Rva+Base       Lib:Object

 0000:00000000       __except_list              00000000     <absolute>
 0000:00000001       ___safe_se_handler_count   00000001     <absolute>
 0000:00009876       __fltused                  00009876     <absolute>
 0000:00009876       __ldused                   00009876     <absolute>
 0000:00000000       ___ImageBase               10000000     <linker-defined>
 0001:00000000       _ARP_02_RPSs_Bdr_GK_BIS2_initializer 10001000 f   ARP_02_RPSs_Bdr_GK_BIS2_sfun.obj
 0001:00000010       _ARP_02_RPSs_Bdr_GK_BIS2_terminator 10001010 f   ARP_02_RPSs_Bdr_GK_BIS2_sfun.obj
 0001:00000020       _sf_ARP_02_RPSs_Bdr_GK_BIS2_method_dispatcher 10001020 f   ARP_02_RPSs_Bdr_GK_BIS2_sfun.obj
 0001:000001b0       _sf_ARP_02_RPSs_Bdr_GK_BIS2_process_check_sum_call 100011b0 f   ARP_02_RPSs_Bdr_GK_BIS2_sfun.obj
 0001:00000650       _sf_ARP_02_RPSs_Bdr_GK_BIS2_autoinheritance_info 10001650 f   ARP_02_RPSs_Bdr_GK_BIS2_sfun.obj
 0001:00000a10       _sf_ARP_02_RPSs_Bdr_GK_BIS2_get_eml_resolved_functions_info 10001a10 f   ARP_02_RPSs_Bdr_GK_BIS2_sfun.obj
 0001:00000d10       _sf_ARP_02_RPSs_Bdr_GK_BIS2_third_party_uses_info 10001d10 f   ARP_02_RPSs_Bdr_GK_BIS2_sfun.obj
 0001:00001010       _sf_ARP_02_RPSs_Bdr_GK_BIS2_updateBuildInfo_args_info 10002010 f   ARP_02_RPSs_Bdr_GK_BIS2_sfun.obj
 0001:00001310       _ARP_02_RPSs_Bdr_GK_BIS2_debug_initialize 10002310 f   ARP_02_RPSs_Bdr_GK_BIS2_sfun.obj
 0001:00001370       _ARP_02_RPSs_Bdr_GK_BIS2_register_exported_symbols 10002370 f   ARP_02_RPSs_Bdr_GK_BIS2_sfun.obj
 0001:00001380       _load_ARP_02_RPSs_Bdr_GK_BIS2_optimization_info 10002380 f   ARP_02_RPSs_Bdr_GK_BIS2_sfun.obj
 0001:000013c0       _unload_ARP_02_RPSs_Bdr_GK_BIS2_optimization_info 100023c0 f   ARP_02_RPSs_Bdr_GK_BIS2_sfun.obj
 0001:000013f0       _sf_c1_ARP_02_RPSs_Bdr_GK_BIS2_get_eml_resolved_functions_info 100023f0 f   c1_ARP_02_RPSs_Bdr_GK_BIS2.obj
 0001:00001440       _sf_c1_ARP_02_RPSs_Bdr_GK_BIS2_get_check_sum 10002440 f   c1_ARP_02_RPSs_Bdr_GK_BIS2.obj
 0001:000014a0       _sf_c1_ARP_02_RPSs_Bdr_GK_BIS2_get_autoinheritance_info 100024a0 f   c1_ARP_02_RPSs_Bdr_GK_BIS2.obj
 0001:000052b0       _sf_c1_ARP_02_RPSs_Bdr_GK_BIS2_third_party_uses_info 100062b0 f   c1_ARP_02_RPSs_Bdr_GK_BIS2.obj
 0001:000052d0       _sf_c1_ARP_02_RPSs_Bdr_GK_BIS2_updateBuildInfo_args_info 100062d0 f   c1_ARP_02_RPSs_Bdr_GK_BIS2.obj
 0001:000052f0       _sf_internal_get_sim_state_c1_ARP_02_RPSs_Bdr_GK_BIS2 100062f0 f   c1_ARP_02_RPSs_Bdr_GK_BIS2.obj
 0001:00008b70       _sf_internal_set_sim_state_c1_ARP_02_RPSs_Bdr_GK_BIS2 10009b70 f   c1_ARP_02_RPSs_Bdr_GK_BIS2.obj
 0001:0000c1b0       _c1_ARP_02_RPSs_Bdr_GK_BIS2_method_dispatcher 1000d1b0 f   c1_ARP_02_RPSs_Bdr_GK_BIS2.obj
 0001:00016a60       _sf_c2_ARP_02_RPSs_Bdr_GK_BIS2_get_eml_resolved_functions_info 10017a60 f   c2_ARP_02_RPSs_Bdr_GK_BIS2.obj
 0001:00016d60       _sf_c2_ARP_02_RPSs_Bdr_GK_BIS2_get_check_sum 10017d60 f   c2_ARP_02_RPSs_Bdr_GK_BIS2.obj
 0001:00016dc0       _sf_c2_ARP_02_RPSs_Bdr_GK_BIS2_get_autoinheritance_info 10017dc0 f   c2_ARP_02_RPSs_Bdr_GK_BIS2.obj
 0001:000175d0       _sf_c2_ARP_02_RPSs_Bdr_GK_BIS2_third_party_uses_info 100185d0 f   c2_ARP_02_RPSs_Bdr_GK_BIS2.obj
 0001:000175f0       _sf_c2_ARP_02_RPSs_Bdr_GK_BIS2_updateBuildInfo_args_info 100185f0 f   c2_ARP_02_RPSs_Bdr_GK_BIS2.obj
 0001:00017610       _sf_internal_get_sim_state_c2_ARP_02_RPSs_Bdr_GK_BIS2 10018610 f   c2_ARP_02_RPSs_Bdr_GK_BIS2.obj
 0001:00017850       _sf_internal_set_sim_state_c2_ARP_02_RPSs_Bdr_GK_BIS2 10018850 f   c2_ARP_02_RPSs_Bdr_GK_BIS2.obj
 0001:00017a60       _c2_ARP_02_RPSs_Bdr_GK_BIS2_method_dispatcher 10018a60 f   c2_ARP_02_RPSs_Bdr_GK_BIS2.obj
 0001:00019e10       _sf_c4_ARP_02_RPSs_Bdr_GK_BIS2_get_eml_resolved_functions_info 1001ae10 f   c4_ARP_02_RPSs_Bdr_GK_BIS2.obj
 0001:0001e8b0       _sf_exported_auto_activate_c4_ARP_02_RPSs_Bdr_GK_BIS2_secs 1001f8b0 f   c4_ARP_02_RPSs_Bdr_GK_BIS2.obj
 0001:0001e940       _sf_exported_auto_incrementTemporalCounter_c4_ARP_02_RPSs_Bdr_GK_BIS2_secs 1001f940 f   c4_ARP_02_RPSs_Bdr_GK_BIS2.obj
 0001:0001e9a0       _sf_exported_auto_resetTemporalCounter_c4_ARP_02_RPSs_Bdr_GK_BIS2_secs 1001f9a0 f   c4_ARP_02_RPSs_Bdr_GK_BIS2.obj
 0001:0001e9e0       _sf_exported_auto_deactivate_c4_ARP_02_RPSs_Bdr_GK_BIS2_secs 1001f9e0 f   c4_ARP_02_RPSs_Bdr_GK_BIS2.obj
 0001:0001ea70       _sf_exported_auto_isStablec4_ARP_02_RPSs_Bdr_GK_BIS2 1001fa70 f   c4_ARP_02_RPSs_Bdr_GK_BIS2.obj
 0001:0001eaa0       _sf_exported_auto_duringc4_ARP_02_RPSs_Bdr_GK_BIS2 1001faa0 f   c4_ARP_02_RPSs_Bdr_GK_BIS2.obj
 0001:00020750       _sf_exported_auto_enterc4_ARP_02_RPSs_Bdr_GK_BIS2 10021750 f   c4_ARP_02_RPSs_Bdr_GK_BIS2.obj
 0001:00020970       _sf_exported_auto_exitc4_ARP_02_RPSs_Bdr_GK_BIS2 10021970 f   c4_ARP_02_RPSs_Bdr_GK_BIS2.obj
 0001:00020ce0       _sf_exported_auto_gatewayc4_ARP_02_RPSs_Bdr_GK_BIS2 10021ce0 f   c4_ARP_02_RPSs_Bdr_GK_BIS2.obj
 0001:00020d10       _sf_exported_auto_enablec4_ARP_02_RPSs_Bdr_GK_BIS2 10021d10 f   c4_ARP_02_RPSs_Bdr_GK_BIS2.obj
 0001:00020d40       _sf_exported_auto_disablec4_ARP_02_RPSs_Bdr_GK_BIS2 10021d40 f   c4_ARP_02_RPSs_Bdr_GK_BIS2.obj
 0001:00020d70       _sf_exported_auto_stepBuffersc4_ARP_02_RPSs_Bdr_GK_BIS2 10021d70 f   c4_ARP_02_RPSs_Bdr_GK_BIS2.obj
 0001:00020d90       _sf_exported_auto_initBuffersc4_ARP_02_RPSs_Bdr_GK_BIS2 10021d90 f   c4_ARP_02_RPSs_Bdr_GK_BIS2.obj
 0001:00020db0       _sf_exported_auto_activate_callc4_ARP_02_RPSs_Bdr_GK_BIS2 10021db0 f   c4_ARP_02_RPSs_Bdr_GK_BIS2.obj
 0001:00020de0       _sf_exported_auto_increment_call_counterc4_ARP_02_RPSs_Bdr_GK_BIS2 10021de0 f   c4_ARP_02_RPSs_Bdr_GK_BIS2.obj
 0001:00020e00       _sf_exported_auto_reset_call_counterc4_ARP_02_RPSs_Bdr_GK_BIS2 10021e00 f   c4_ARP_02_RPSs_Bdr_GK_BIS2.obj
 0001:00020e20       _sf_exported_auto_deactivate_callc4_ARP_02_RPSs_Bdr_GK_BIS2 10021e20 f   c4_ARP_02_RPSs_Bdr_GK_BIS2.obj
 0001:00020e40       _sf_exported_auto_initc4_ARP_02_RPSs_Bdr_GK_BIS2 10021e40 f   c4_ARP_02_RPSs_Bdr_GK_BIS2.obj
 0001:00020f20       _sf_exported_auto_getSimstatec4_ARP_02_RPSs_Bdr_GK_BIS2 10021f20 f   c4_ARP_02_RPSs_Bdr_GK_BIS2.obj
 0001:00020f70       _sf_exported_auto_setSimstatec4_ARP_02_RPSs_Bdr_GK_BIS2 10021f70 f   c4_ARP_02_RPSs_Bdr_GK_BIS2.obj
 0001:00020fb0       _sf_exported_auto_check_state_inconsistency_c4_ARP_02_RPSs_Bdr_GK_BIS2 10021fb0 f   c4_ARP_02_RPSs_Bdr_GK_BIS2.obj
 0001:00021000       _sf_exported_user_c4_ARP_02_RPSs_Bdr_GK_BIS2_idlePoseBradTable 10022000 f   c4_ARP_02_RPSs_Bdr_GK_BIS2.obj
 0001:0002cc70       _sf_exported_user_c4_ARP_02_RPSs_Bdr_GK_BIS2_walkInvadingTable 1002dc70 f   c4_ARP_02_RPSs_Bdr_GK_BIS2.obj
 0001:00030ba0       _sf_c4_ARP_02_RPSs_Bdr_GK_BIS2_get_check_sum 10031ba0 f   c4_ARP_02_RPSs_Bdr_GK_BIS2.obj
 0001:00030c00       _sf_c4_ARP_02_RPSs_Bdr_GK_BIS2_get_autoinheritance_info 10031c00 f   c4_ARP_02_RPSs_Bdr_GK_BIS2.obj
 0001:00031000       _sf_c4_ARP_02_RPSs_Bdr_GK_BIS2_third_party_uses_info 10032000 f   c4_ARP_02_RPSs_Bdr_GK_BIS2.obj
 0001:00031020       _sf_c4_ARP_02_RPSs_Bdr_GK_BIS2_updateBuildInfo_args_info 10032020 f   c4_ARP_02_RPSs_Bdr_GK_BIS2.obj
 0001:00031040       _sf_internal_get_sim_state_c4_ARP_02_RPSs_Bdr_GK_BIS2 10032040 f   c4_ARP_02_RPSs_Bdr_GK_BIS2.obj
 0001:000316b0       _sf_internal_set_sim_state_c4_ARP_02_RPSs_Bdr_GK_BIS2 100326b0 f   c4_ARP_02_RPSs_Bdr_GK_BIS2.obj
 0001:00032300       _c4_ARP_02_RPSs_Bdr_GK_BIS2_method_dispatcher 10033300 f   c4_ARP_02_RPSs_Bdr_GK_BIS2.obj
 0001:00036330       _sf_c5_ARP_02_RPSs_Bdr_GK_BIS2_get_eml_resolved_functions_info 10037330 f   c5_ARP_02_RPSs_Bdr_GK_BIS2.obj
 0001:0003afc0       _sf_exported_auto_activate_c5_ARP_02_RPSs_Bdr_GK_BIS2_secs 1003bfc0 f   c5_ARP_02_RPSs_Bdr_GK_BIS2.obj
 0001:0003b050       _sf_exported_auto_incrementTemporalCounter_c5_ARP_02_RPSs_Bdr_GK_BIS2_secs 1003c050 f   c5_ARP_02_RPSs_Bdr_GK_BIS2.obj
 0001:0003b100       _sf_exported_auto_resetTemporalCounter_c5_ARP_02_RPSs_Bdr_GK_BIS2_secs 1003c100 f   c5_ARP_02_RPSs_Bdr_GK_BIS2.obj
 0001:0003b140       _sf_exported_auto_deactivate_c5_ARP_02_RPSs_Bdr_GK_BIS2_secs 1003c140 f   c5_ARP_02_RPSs_Bdr_GK_BIS2.obj
 0001:0003b1d0       _sf_exported_auto_isStablec5_ARP_02_RPSs_Bdr_GK_BIS2 1003c1d0 f   c5_ARP_02_RPSs_Bdr_GK_BIS2.obj
 0001:0003b200       _sf_exported_auto_duringc5_ARP_02_RPSs_Bdr_GK_BIS2 1003c200 f   c5_ARP_02_RPSs_Bdr_GK_BIS2.obj
 0001:00045fa0       _sf_exported_auto_enterc5_ARP_02_RPSs_Bdr_GK_BIS2 10046fa0 f   c5_ARP_02_RPSs_Bdr_GK_BIS2.obj
 0001:00047270       _sf_exported_auto_exitc5_ARP_02_RPSs_Bdr_GK_BIS2 10048270 f   c5_ARP_02_RPSs_Bdr_GK_BIS2.obj
 0001:000484a0       _sf_exported_auto_gatewayc5_ARP_02_RPSs_Bdr_GK_BIS2 100494a0 f   c5_ARP_02_RPSs_Bdr_GK_BIS2.obj
 0001:000484d0       _sf_exported_auto_enablec5_ARP_02_RPSs_Bdr_GK_BIS2 100494d0 f   c5_ARP_02_RPSs_Bdr_GK_BIS2.obj
 0001:00048510       _sf_exported_auto_disablec5_ARP_02_RPSs_Bdr_GK_BIS2 10049510 f   c5_ARP_02_RPSs_Bdr_GK_BIS2.obj
 0001:00048550       _sf_exported_auto_stepBuffersc5_ARP_02_RPSs_Bdr_GK_BIS2 10049550 f   c5_ARP_02_RPSs_Bdr_GK_BIS2.obj
 0001:00048570       _sf_exported_auto_initBuffersc5_ARP_02_RPSs_Bdr_GK_BIS2 10049570 f   c5_ARP_02_RPSs_Bdr_GK_BIS2.obj
 0001:00048590       _sf_exported_auto_activate_callc5_ARP_02_RPSs_Bdr_GK_BIS2 10049590 f   c5_ARP_02_RPSs_Bdr_GK_BIS2.obj
 0001:000485c0       _sf_exported_auto_increment_call_counterc5_ARP_02_RPSs_Bdr_GK_BIS2 100495c0 f   c5_ARP_02_RPSs_Bdr_GK_BIS2.obj
 0001:000485e0       _sf_exported_auto_reset_call_counterc5_ARP_02_RPSs_Bdr_GK_BIS2 100495e0 f   c5_ARP_02_RPSs_Bdr_GK_BIS2.obj
 0001:00048600       _sf_exported_auto_deactivate_callc5_ARP_02_RPSs_Bdr_GK_BIS2 10049600 f   c5_ARP_02_RPSs_Bdr_GK_BIS2.obj
 0001:00048620       _sf_exported_auto_initc5_ARP_02_RPSs_Bdr_GK_BIS2 10049620 f   c5_ARP_02_RPSs_Bdr_GK_BIS2.obj
 0001:00048870       _sf_exported_auto_getSimstatec5_ARP_02_RPSs_Bdr_GK_BIS2 10049870 f   c5_ARP_02_RPSs_Bdr_GK_BIS2.obj
 0001:000488c0       _sf_exported_auto_setSimstatec5_ARP_02_RPSs_Bdr_GK_BIS2 100498c0 f   c5_ARP_02_RPSs_Bdr_GK_BIS2.obj
 0001:00048900       _sf_exported_auto_check_state_inconsistency_c5_ARP_02_RPSs_Bdr_GK_BIS2 10049900 f   c5_ARP_02_RPSs_Bdr_GK_BIS2.obj
 0001:00059920       _sf_exported_user_c5_ARP_02_RPSs_Bdr_GK_BIS2_handPoseSBTable 1005a920 f   c5_ARP_02_RPSs_Bdr_GK_BIS2.obj
 0001:00059960       _sf_exported_user_c5_ARP_02_RPSs_Bdr_GK_BIS2_idlePoseBradTable 1005a960 f   c5_ARP_02_RPSs_Bdr_GK_BIS2.obj
 0001:000599a0       _sf_exported_user_c5_ARP_02_RPSs_Bdr_GK_BIS2_initialPoseTable 1005a9a0 f   c5_ARP_02_RPSs_Bdr_GK_BIS2.obj
 0001:000599e0       _sf_exported_user_c5_ARP_02_RPSs_Bdr_GK_BIS2_paperPoseBradTable 1005a9e0 f   c5_ARP_02_RPSs_Bdr_GK_BIS2.obj
 0001:00059a20       _sf_exported_user_c5_ARP_02_RPSs_Bdr_GK_BIS2_rockPoseTable 1005aa20 f   c5_ARP_02_RPSs_Bdr_GK_BIS2.obj
 0001:00059a60       _sf_exported_user_c5_ARP_02_RPSs_Bdr_GK_BIS2_scissorsPoseBradTable 1005aa60 f   c5_ARP_02_RPSs_Bdr_GK_BIS2.obj
 0001:00059aa0       _sf_exported_user_c5_ARP_02_RPSs_Bdr_GK_BIS2_sendSBM 1005aaa0 f   c5_ARP_02_RPSs_Bdr_GK_BIS2.obj
 0001:0005c960       _sf_c5_ARP_02_RPSs_Bdr_GK_BIS2_get_check_sum 1005d960 f   c5_ARP_02_RPSs_Bdr_GK_BIS2.obj
 0001:0005c9c0       _sf_c5_ARP_02_RPSs_Bdr_GK_BIS2_get_autoinheritance_info 1005d9c0 f   c5_ARP_02_RPSs_Bdr_GK_BIS2.obj
 0001:0005d320       _sf_c5_ARP_02_RPSs_Bdr_GK_BIS2_third_party_uses_info 1005e320 f   c5_ARP_02_RPSs_Bdr_GK_BIS2.obj
 0001:0005d340       _sf_c5_ARP_02_RPSs_Bdr_GK_BIS2_updateBuildInfo_args_info 1005e340 f   c5_ARP_02_RPSs_Bdr_GK_BIS2.obj
 0001:0005d360       _sf_internal_get_sim_state_c5_ARP_02_RPSs_Bdr_GK_BIS2 1005e360 f   c5_ARP_02_RPSs_Bdr_GK_BIS2.obj
 0001:0005e020       _sf_internal_set_sim_state_c5_ARP_02_RPSs_Bdr_GK_BIS2 1005f020 f   c5_ARP_02_RPSs_Bdr_GK_BIS2.obj
 0001:0005ff40       _c5_ARP_02_RPSs_Bdr_GK_BIS2_method_dispatcher 10060f40 f   c5_ARP_02_RPSs_Bdr_GK_BIS2.obj
 0001:00068c90       _sf_c8_ARP_02_RPSs_Bdr_GK_BIS2_get_eml_resolved_functions_info 10069c90 f   c8_ARP_02_RPSs_Bdr_GK_BIS2.obj
 0001:00068f90       _sf_exported_auto_activate_c8_ARP_02_RPSs_Bdr_GK_BIS2_secs 10069f90 f   c8_ARP_02_RPSs_Bdr_GK_BIS2.obj
 0001:00069020       _sf_exported_auto_incrementTemporalCounter_c8_ARP_02_RPSs_Bdr_GK_BIS2_secs 1006a020 f   c8_ARP_02_RPSs_Bdr_GK_BIS2.obj
 0001:00069080       _sf_exported_auto_resetTemporalCounter_c8_ARP_02_RPSs_Bdr_GK_BIS2_secs 1006a080 f   c8_ARP_02_RPSs_Bdr_GK_BIS2.obj
 0001:000690c0       _sf_exported_auto_deactivate_c8_ARP_02_RPSs_Bdr_GK_BIS2_secs 1006a0c0 f   c8_ARP_02_RPSs_Bdr_GK_BIS2.obj
 0001:00069150       _sf_exported_auto_isStablec8_ARP_02_RPSs_Bdr_GK_BIS2 1006a150 f   c8_ARP_02_RPSs_Bdr_GK_BIS2.obj
 0001:00069180       _sf_exported_auto_duringc8_ARP_02_RPSs_Bdr_GK_BIS2 1006a180 f   c8_ARP_02_RPSs_Bdr_GK_BIS2.obj
 0001:0006e480       _sf_exported_auto_enterc8_ARP_02_RPSs_Bdr_GK_BIS2 1006f480 f   c8_ARP_02_RPSs_Bdr_GK_BIS2.obj
 0001:0006e770       _sf_exported_auto_exitc8_ARP_02_RPSs_Bdr_GK_BIS2 1006f770 f   c8_ARP_02_RPSs_Bdr_GK_BIS2.obj
 0001:0006eb80       _sf_exported_auto_gatewayc8_ARP_02_RPSs_Bdr_GK_BIS2 1006fb80 f   c8_ARP_02_RPSs_Bdr_GK_BIS2.obj
 0001:0006ebb0       _sf_exported_auto_enablec8_ARP_02_RPSs_Bdr_GK_BIS2 1006fbb0 f   c8_ARP_02_RPSs_Bdr_GK_BIS2.obj
 0001:0006ebe0       _sf_exported_auto_disablec8_ARP_02_RPSs_Bdr_GK_BIS2 1006fbe0 f   c8_ARP_02_RPSs_Bdr_GK_BIS2.obj
 0001:0006ec10       _sf_exported_auto_stepBuffersc8_ARP_02_RPSs_Bdr_GK_BIS2 1006fc10 f   c8_ARP_02_RPSs_Bdr_GK_BIS2.obj
 0001:0006ec30       _sf_exported_auto_initBuffersc8_ARP_02_RPSs_Bdr_GK_BIS2 1006fc30 f   c8_ARP_02_RPSs_Bdr_GK_BIS2.obj
 0001:0006ec50       _sf_exported_auto_activate_callc8_ARP_02_RPSs_Bdr_GK_BIS2 1006fc50 f   c8_ARP_02_RPSs_Bdr_GK_BIS2.obj
 0001:0006ec80       _sf_exported_auto_increment_call_counterc8_ARP_02_RPSs_Bdr_GK_BIS2 1006fc80 f   c8_ARP_02_RPSs_Bdr_GK_BIS2.obj
 0001:0006eca0       _sf_exported_auto_reset_call_counterc8_ARP_02_RPSs_Bdr_GK_BIS2 1006fca0 f   c8_ARP_02_RPSs_Bdr_GK_BIS2.obj
 0001:0006ecc0       _sf_exported_auto_deactivate_callc8_ARP_02_RPSs_Bdr_GK_BIS2 1006fcc0 f   c8_ARP_02_RPSs_Bdr_GK_BIS2.obj
 0001:0006ece0       _sf_exported_auto_initc8_ARP_02_RPSs_Bdr_GK_BIS2 1006fce0 f   c8_ARP_02_RPSs_Bdr_GK_BIS2.obj
 0001:0006edb0       _sf_exported_auto_getSimstatec8_ARP_02_RPSs_Bdr_GK_BIS2 1006fdb0 f   c8_ARP_02_RPSs_Bdr_GK_BIS2.obj
 0001:0006ee00       _sf_exported_auto_setSimstatec8_ARP_02_RPSs_Bdr_GK_BIS2 1006fe00 f   c8_ARP_02_RPSs_Bdr_GK_BIS2.obj
 0001:0006ee40       _sf_exported_auto_check_state_inconsistency_c8_ARP_02_RPSs_Bdr_GK_BIS2 1006fe40 f   c8_ARP_02_RPSs_Bdr_GK_BIS2.obj
 0001:00072170       _sf_exported_user_c8_ARP_02_RPSs_Bdr_GK_BIS2_walkInvadingTable 10073170 f   c8_ARP_02_RPSs_Bdr_GK_BIS2.obj
 0001:00072550       _sf_c8_ARP_02_RPSs_Bdr_GK_BIS2_get_check_sum 10073550 f   c8_ARP_02_RPSs_Bdr_GK_BIS2.obj
 0001:000725b0       _sf_c8_ARP_02_RPSs_Bdr_GK_BIS2_get_autoinheritance_info 100735b0 f   c8_ARP_02_RPSs_Bdr_GK_BIS2.obj
 0001:000728c0       _sf_c8_ARP_02_RPSs_Bdr_GK_BIS2_third_party_uses_info 100738c0 f   c8_ARP_02_RPSs_Bdr_GK_BIS2.obj
 0001:000728e0       _sf_c8_ARP_02_RPSs_Bdr_GK_BIS2_updateBuildInfo_args_info 100738e0 f   c8_ARP_02_RPSs_Bdr_GK_BIS2.obj
 0001:00072900       _sf_internal_get_sim_state_c8_ARP_02_RPSs_Bdr_GK_BIS2 10073900 f   c8_ARP_02_RPSs_Bdr_GK_BIS2.obj
 0001:00072c60       _sf_internal_set_sim_state_c8_ARP_02_RPSs_Bdr_GK_BIS2 10073c60 f   c8_ARP_02_RPSs_Bdr_GK_BIS2.obj
 0001:00073470       _c8_ARP_02_RPSs_Bdr_GK_BIS2_method_dispatcher 10074470 f   c8_ARP_02_RPSs_Bdr_GK_BIS2.obj
 0001:00075c20       _sf_c9_ARP_02_RPSs_Bdr_GK_BIS2_get_eml_resolved_functions_info 10076c20 f   c9_ARP_02_RPSs_Bdr_GK_BIS2.obj
 0001:0007cc40       _sf_exported_auto_activate_c9_ARP_02_RPSs_Bdr_GK_BIS2_secs 1007dc40 f   c9_ARP_02_RPSs_Bdr_GK_BIS2.obj
 0001:0007ccd0       _sf_exported_auto_incrementTemporalCounter_c9_ARP_02_RPSs_Bdr_GK_BIS2_secs 1007dcd0 f   c9_ARP_02_RPSs_Bdr_GK_BIS2.obj
 0001:0007cd70       _sf_exported_auto_resetTemporalCounter_c9_ARP_02_RPSs_Bdr_GK_BIS2_secs 1007dd70 f   c9_ARP_02_RPSs_Bdr_GK_BIS2.obj
 0001:0007cdb0       _sf_exported_auto_deactivate_c9_ARP_02_RPSs_Bdr_GK_BIS2_secs 1007ddb0 f   c9_ARP_02_RPSs_Bdr_GK_BIS2.obj
 0001:0007ce40       _sf_exported_auto_isStablec9_ARP_02_RPSs_Bdr_GK_BIS2 1007de40 f   c9_ARP_02_RPSs_Bdr_GK_BIS2.obj
 0001:0007ce70       _sf_exported_auto_duringc9_ARP_02_RPSs_Bdr_GK_BIS2 1007de70 f   c9_ARP_02_RPSs_Bdr_GK_BIS2.obj
 0001:000850a0       _sf_exported_auto_enterc9_ARP_02_RPSs_Bdr_GK_BIS2 100860a0 f   c9_ARP_02_RPSs_Bdr_GK_BIS2.obj
 0001:00085950       _sf_exported_auto_exitc9_ARP_02_RPSs_Bdr_GK_BIS2 10086950 f   c9_ARP_02_RPSs_Bdr_GK_BIS2.obj
 0001:000865f0       _sf_exported_auto_gatewayc9_ARP_02_RPSs_Bdr_GK_BIS2 100875f0 f   c9_ARP_02_RPSs_Bdr_GK_BIS2.obj
 0001:00086620       _sf_exported_auto_enablec9_ARP_02_RPSs_Bdr_GK_BIS2 10087620 f   c9_ARP_02_RPSs_Bdr_GK_BIS2.obj
 0001:00086650       _sf_exported_auto_disablec9_ARP_02_RPSs_Bdr_GK_BIS2 10087650 f   c9_ARP_02_RPSs_Bdr_GK_BIS2.obj
 0001:00086680       _sf_exported_auto_stepBuffersc9_ARP_02_RPSs_Bdr_GK_BIS2 10087680 f   c9_ARP_02_RPSs_Bdr_GK_BIS2.obj
 0001:000866a0       _sf_exported_auto_initBuffersc9_ARP_02_RPSs_Bdr_GK_BIS2 100876a0 f   c9_ARP_02_RPSs_Bdr_GK_BIS2.obj
 0001:000866c0       _sf_exported_auto_activate_callc9_ARP_02_RPSs_Bdr_GK_BIS2 100876c0 f   c9_ARP_02_RPSs_Bdr_GK_BIS2.obj
 0001:000866f0       _sf_exported_auto_increment_call_counterc9_ARP_02_RPSs_Bdr_GK_BIS2 100876f0 f   c9_ARP_02_RPSs_Bdr_GK_BIS2.obj
 0001:00086710       _sf_exported_auto_reset_call_counterc9_ARP_02_RPSs_Bdr_GK_BIS2 10087710 f   c9_ARP_02_RPSs_Bdr_GK_BIS2.obj
 0001:00086730       _sf_exported_auto_deactivate_callc9_ARP_02_RPSs_Bdr_GK_BIS2 10087730 f   c9_ARP_02_RPSs_Bdr_GK_BIS2.obj
 0001:00086750       _sf_exported_auto_initc9_ARP_02_RPSs_Bdr_GK_BIS2 10087750 f   c9_ARP_02_RPSs_Bdr_GK_BIS2.obj
 0001:00086930       _sf_exported_auto_getSimstatec9_ARP_02_RPSs_Bdr_GK_BIS2 10087930 f   c9_ARP_02_RPSs_Bdr_GK_BIS2.obj
 0001:00086980       _sf_exported_auto_setSimstatec9_ARP_02_RPSs_Bdr_GK_BIS2 10087980 f   c9_ARP_02_RPSs_Bdr_GK_BIS2.obj
 0001:000869c0       _sf_exported_auto_check_state_inconsistency_c9_ARP_02_RPSs_Bdr_GK_BIS2 100879c0 f   c9_ARP_02_RPSs_Bdr_GK_BIS2.obj
 0001:0009bc20       _sf_exported_user_c9_ARP_02_RPSs_Bdr_GK_BIS2_gazeFollowUserMove 1009cc20 f   c9_ARP_02_RPSs_Bdr_GK_BIS2.obj
 0001:0009dbe0       _sf_exported_user_c9_ARP_02_RPSs_Bdr_GK_BIS2_idleGazeFunction 1009ebe0 f   c9_ARP_02_RPSs_Bdr_GK_BIS2.obj
 0001:0009dc20       _sf_exported_user_c9_ARP_02_RPSs_Bdr_GK_BIS2_idleGazeInterestedTable 1009ec20 f   c9_ARP_02_RPSs_Bdr_GK_BIS2.obj
 0001:000a25a0       _sf_exported_user_c9_ARP_02_RPSs_Bdr_GK_BIS2_idleGazeTable 100a35a0 f   c9_ARP_02_RPSs_Bdr_GK_BIS2.obj
 0001:000a25e0       _sf_exported_user_c9_ARP_02_RPSs_Bdr_GK_BIS2_successTable 100a35e0 f   c9_ARP_02_RPSs_Bdr_GK_BIS2.obj
 0001:000a39a0       _sf_c9_ARP_02_RPSs_Bdr_GK_BIS2_get_check_sum 100a49a0 f   c9_ARP_02_RPSs_Bdr_GK_BIS2.obj
 0001:000a3a00       _sf_c9_ARP_02_RPSs_Bdr_GK_BIS2_get_autoinheritance_info 100a4a00 f   c9_ARP_02_RPSs_Bdr_GK_BIS2.obj
 0001:000a4c10       _sf_c9_ARP_02_RPSs_Bdr_GK_BIS2_third_party_uses_info 100a5c10 f   c9_ARP_02_RPSs_Bdr_GK_BIS2.obj
 0001:000a4c30       _sf_c9_ARP_02_RPSs_Bdr_GK_BIS2_updateBuildInfo_args_info 100a5c30 f   c9_ARP_02_RPSs_Bdr_GK_BIS2.obj
 0001:000a4c50       _sf_internal_get_sim_state_c9_ARP_02_RPSs_Bdr_GK_BIS2 100a5c50 f   c9_ARP_02_RPSs_Bdr_GK_BIS2.obj
 0001:000a5dc0       _sf_internal_set_sim_state_c9_ARP_02_RPSs_Bdr_GK_BIS2 100a6dc0 f   c9_ARP_02_RPSs_Bdr_GK_BIS2.obj
 0001:000a7b20       _c9_ARP_02_RPSs_Bdr_GK_BIS2_method_dispatcher 100a8b20 f   c9_ARP_02_RPSs_Bdr_GK_BIS2.obj
 0001:000af4d0       _sf_c10_ARP_02_RPSs_Bdr_GK_BIS2_get_eml_resolved_functions_info 100b04d0 f   c10_ARP_02_RPSs_Bdr_GK_BIS2.obj
 0001:000af7d0       _sf_exported_auto_activate_c10_ARP_02_RPSs_Bdr_GK_BIS2_secs 100b07d0 f   c10_ARP_02_RPSs_Bdr_GK_BIS2.obj
 0001:000af860       _sf_exported_auto_incrementTemporalCounter_c10_ARP_02_RPSs_Bdr_GK_BIS2_secs 100b0860 f   c10_ARP_02_RPSs_Bdr_GK_BIS2.obj
 0001:000af8c0       _sf_exported_auto_resetTemporalCounter_c10_ARP_02_RPSs_Bdr_GK_BIS2_secs 100b08c0 f   c10_ARP_02_RPSs_Bdr_GK_BIS2.obj
 0001:000af900       _sf_exported_auto_deactivate_c10_ARP_02_RPSs_Bdr_GK_BIS2_secs 100b0900 f   c10_ARP_02_RPSs_Bdr_GK_BIS2.obj
 0001:000af990       _sf_exported_auto_isStablec10_ARP_02_RPSs_Bdr_GK_BIS2 100b0990 f   c10_ARP_02_RPSs_Bdr_GK_BIS2.obj
 0001:000af9c0       _sf_exported_auto_duringc10_ARP_02_RPSs_Bdr_GK_BIS2 100b09c0 f   c10_ARP_02_RPSs_Bdr_GK_BIS2.obj
 0001:000b6290       _sf_exported_auto_enterc10_ARP_02_RPSs_Bdr_GK_BIS2 100b7290 f   c10_ARP_02_RPSs_Bdr_GK_BIS2.obj
 0001:000b6590       _sf_exported_auto_exitc10_ARP_02_RPSs_Bdr_GK_BIS2 100b7590 f   c10_ARP_02_RPSs_Bdr_GK_BIS2.obj
 0001:000b6ad0       _sf_exported_auto_gatewayc10_ARP_02_RPSs_Bdr_GK_BIS2 100b7ad0 f   c10_ARP_02_RPSs_Bdr_GK_BIS2.obj
 0001:000b6b00       _sf_exported_auto_enablec10_ARP_02_RPSs_Bdr_GK_BIS2 100b7b00 f   c10_ARP_02_RPSs_Bdr_GK_BIS2.obj
 0001:000b6b30       _sf_exported_auto_disablec10_ARP_02_RPSs_Bdr_GK_BIS2 100b7b30 f   c10_ARP_02_RPSs_Bdr_GK_BIS2.obj
 0001:000b6b60       _sf_exported_auto_stepBuffersc10_ARP_02_RPSs_Bdr_GK_BIS2 100b7b60 f   c10_ARP_02_RPSs_Bdr_GK_BIS2.obj
 0001:000b6b80       _sf_exported_auto_initBuffersc10_ARP_02_RPSs_Bdr_GK_BIS2 100b7b80 f   c10_ARP_02_RPSs_Bdr_GK_BIS2.obj
 0001:000b6ba0       _sf_exported_auto_activate_callc10_ARP_02_RPSs_Bdr_GK_BIS2 100b7ba0 f   c10_ARP_02_RPSs_Bdr_GK_BIS2.obj
 0001:000b6bd0       _sf_exported_auto_increment_call_counterc10_ARP_02_RPSs_Bdr_GK_BIS2 100b7bd0 f   c10_ARP_02_RPSs_Bdr_GK_BIS2.obj
 0001:000b6bf0       _sf_exported_auto_reset_call_counterc10_ARP_02_RPSs_Bdr_GK_BIS2 100b7bf0 f   c10_ARP_02_RPSs_Bdr_GK_BIS2.obj
 0001:000b6c10       _sf_exported_auto_deactivate_callc10_ARP_02_RPSs_Bdr_GK_BIS2 100b7c10 f   c10_ARP_02_RPSs_Bdr_GK_BIS2.obj
 0001:000b6c30       _sf_exported_auto_initc10_ARP_02_RPSs_Bdr_GK_BIS2 100b7c30 f   c10_ARP_02_RPSs_Bdr_GK_BIS2.obj
 0001:000b6d20       _sf_exported_auto_getSimstatec10_ARP_02_RPSs_Bdr_GK_BIS2 100b7d20 f   c10_ARP_02_RPSs_Bdr_GK_BIS2.obj
 0001:000b6d70       _sf_exported_auto_setSimstatec10_ARP_02_RPSs_Bdr_GK_BIS2 100b7d70 f   c10_ARP_02_RPSs_Bdr_GK_BIS2.obj
 0001:000b6db0       _sf_exported_auto_check_state_inconsistency_c10_ARP_02_RPSs_Bdr_GK_BIS2 100b7db0 f   c10_ARP_02_RPSs_Bdr_GK_BIS2.obj
 0001:000b9570       _sf_exported_user_c10_ARP_02_RPSs_Bdr_GK_BIS2_gazeFollowUserMove 100ba570 f   c10_ARP_02_RPSs_Bdr_GK_BIS2.obj
 0001:000b9950       _sf_c10_ARP_02_RPSs_Bdr_GK_BIS2_get_check_sum 100ba950 f   c10_ARP_02_RPSs_Bdr_GK_BIS2.obj
 0001:000b99b0       _sf_c10_ARP_02_RPSs_Bdr_GK_BIS2_get_autoinheritance_info 100ba9b0 f   c10_ARP_02_RPSs_Bdr_GK_BIS2.obj
 0001:000b9cc0       _sf_c10_ARP_02_RPSs_Bdr_GK_BIS2_third_party_uses_info 100bacc0 f   c10_ARP_02_RPSs_Bdr_GK_BIS2.obj
 0001:000b9ce0       _sf_c10_ARP_02_RPSs_Bdr_GK_BIS2_updateBuildInfo_args_info 100bace0 f   c10_ARP_02_RPSs_Bdr_GK_BIS2.obj
 0001:000b9d00       _sf_internal_get_sim_state_c10_ARP_02_RPSs_Bdr_GK_BIS2 100bad00 f   c10_ARP_02_RPSs_Bdr_GK_BIS2.obj
 0001:000ba060       _sf_internal_set_sim_state_c10_ARP_02_RPSs_Bdr_GK_BIS2 100bb060 f   c10_ARP_02_RPSs_Bdr_GK_BIS2.obj
 0001:000ba9c0       _c10_ARP_02_RPSs_Bdr_GK_BIS2_method_dispatcher 100bb9c0 f   c10_ARP_02_RPSs_Bdr_GK_BIS2.obj
 0001:000bd0a0       _sf_c11_ARP_02_RPSs_Bdr_GK_BIS2_get_eml_resolved_functions_info 100be0a0 f   c11_ARP_02_RPSs_Bdr_GK_BIS2.obj
 0001:000bd3a0       _sf_exported_auto_activate_c11_ARP_02_RPSs_Bdr_GK_BIS2_secs 100be3a0 f   c11_ARP_02_RPSs_Bdr_GK_BIS2.obj
 0001:000bd430       _sf_exported_auto_incrementTemporalCounter_c11_ARP_02_RPSs_Bdr_GK_BIS2_secs 100be430 f   c11_ARP_02_RPSs_Bdr_GK_BIS2.obj
 0001:000bd470       _sf_exported_auto_resetTemporalCounter_c11_ARP_02_RPSs_Bdr_GK_BIS2_secs 100be470 f   c11_ARP_02_RPSs_Bdr_GK_BIS2.obj
 0001:000bd4b0       _sf_exported_auto_deactivate_c11_ARP_02_RPSs_Bdr_GK_BIS2_secs 100be4b0 f   c11_ARP_02_RPSs_Bdr_GK_BIS2.obj
 0001:000bd540       _sf_exported_auto_isStablec11_ARP_02_RPSs_Bdr_GK_BIS2 100be540 f   c11_ARP_02_RPSs_Bdr_GK_BIS2.obj
 0001:000bd570       _sf_exported_auto_duringc11_ARP_02_RPSs_Bdr_GK_BIS2 100be570 f   c11_ARP_02_RPSs_Bdr_GK_BIS2.obj
 0001:000bf3a0       _sf_exported_auto_enterc11_ARP_02_RPSs_Bdr_GK_BIS2 100c03a0 f   c11_ARP_02_RPSs_Bdr_GK_BIS2.obj
 0001:000bf680       _sf_exported_auto_exitc11_ARP_02_RPSs_Bdr_GK_BIS2 100c0680 f   c11_ARP_02_RPSs_Bdr_GK_BIS2.obj
 0001:000bf9f0       _sf_exported_auto_gatewayc11_ARP_02_RPSs_Bdr_GK_BIS2 100c09f0 f   c11_ARP_02_RPSs_Bdr_GK_BIS2.obj
 0001:000bfa20       _sf_exported_auto_enablec11_ARP_02_RPSs_Bdr_GK_BIS2 100c0a20 f   c11_ARP_02_RPSs_Bdr_GK_BIS2.obj
 0001:000bfa50       _sf_exported_auto_disablec11_ARP_02_RPSs_Bdr_GK_BIS2 100c0a50 f   c11_ARP_02_RPSs_Bdr_GK_BIS2.obj
 0001:000bfa80       _sf_exported_auto_stepBuffersc11_ARP_02_RPSs_Bdr_GK_BIS2 100c0a80 f   c11_ARP_02_RPSs_Bdr_GK_BIS2.obj
 0001:000bfaa0       _sf_exported_auto_initBuffersc11_ARP_02_RPSs_Bdr_GK_BIS2 100c0aa0 f   c11_ARP_02_RPSs_Bdr_GK_BIS2.obj
 0001:000bfac0       _sf_exported_auto_activate_callc11_ARP_02_RPSs_Bdr_GK_BIS2 100c0ac0 f   c11_ARP_02_RPSs_Bdr_GK_BIS2.obj
 0001:000bfaf0       _sf_exported_auto_increment_call_counterc11_ARP_02_RPSs_Bdr_GK_BIS2 100c0af0 f   c11_ARP_02_RPSs_Bdr_GK_BIS2.obj
 0001:000bfb10       _sf_exported_auto_reset_call_counterc11_ARP_02_RPSs_Bdr_GK_BIS2 100c0b10 f   c11_ARP_02_RPSs_Bdr_GK_BIS2.obj
 0001:000bfb30       _sf_exported_auto_deactivate_callc11_ARP_02_RPSs_Bdr_GK_BIS2 100c0b30 f   c11_ARP_02_RPSs_Bdr_GK_BIS2.obj
 0001:000bfb50       _sf_exported_auto_initc11_ARP_02_RPSs_Bdr_GK_BIS2 100c0b50 f   c11_ARP_02_RPSs_Bdr_GK_BIS2.obj
 0001:000bfbf0       _sf_exported_auto_getSimstatec11_ARP_02_RPSs_Bdr_GK_BIS2 100c0bf0 f   c11_ARP_02_RPSs_Bdr_GK_BIS2.obj
 0001:000bfc40       _sf_exported_auto_setSimstatec11_ARP_02_RPSs_Bdr_GK_BIS2 100c0c40 f   c11_ARP_02_RPSs_Bdr_GK_BIS2.obj
 0001:000bfc80       _sf_exported_auto_check_state_inconsistency_c11_ARP_02_RPSs_Bdr_GK_BIS2 100c0c80 f   c11_ARP_02_RPSs_Bdr_GK_BIS2.obj
 0001:000c1950       _sf_exported_user_c11_ARP_02_RPSs_Bdr_GK_BIS2_smileTable 100c2950 f   c11_ARP_02_RPSs_Bdr_GK_BIS2.obj
 0001:000c1c20       _sf_c11_ARP_02_RPSs_Bdr_GK_BIS2_get_check_sum 100c2c20 f   c11_ARP_02_RPSs_Bdr_GK_BIS2.obj
 0001:000c1c80       _sf_c11_ARP_02_RPSs_Bdr_GK_BIS2_get_autoinheritance_info 100c2c80 f   c11_ARP_02_RPSs_Bdr_GK_BIS2.obj
 0001:000c1f90       _sf_c11_ARP_02_RPSs_Bdr_GK_BIS2_third_party_uses_info 100c2f90 f   c11_ARP_02_RPSs_Bdr_GK_BIS2.obj
 0001:000c1fb0       _sf_c11_ARP_02_RPSs_Bdr_GK_BIS2_updateBuildInfo_args_info 100c2fb0 f   c11_ARP_02_RPSs_Bdr_GK_BIS2.obj
 0001:000c1fd0       _sf_internal_get_sim_state_c11_ARP_02_RPSs_Bdr_GK_BIS2 100c2fd0 f   c11_ARP_02_RPSs_Bdr_GK_BIS2.obj
 0001:000c22c0       _sf_internal_set_sim_state_c11_ARP_02_RPSs_Bdr_GK_BIS2 100c32c0 f   c11_ARP_02_RPSs_Bdr_GK_BIS2.obj
 0001:000c29e0       _c11_ARP_02_RPSs_Bdr_GK_BIS2_method_dispatcher 100c39e0 f   c11_ARP_02_RPSs_Bdr_GK_BIS2.obj
 0001:000c4980       _sf_c12_ARP_02_RPSs_Bdr_GK_BIS2_get_eml_resolved_functions_info 100c5980 f   c12_ARP_02_RPSs_Bdr_GK_BIS2.obj
 0001:000c49d0       _sf_c12_ARP_02_RPSs_Bdr_GK_BIS2_get_check_sum 100c59d0 f   c12_ARP_02_RPSs_Bdr_GK_BIS2.obj
 0001:000c4a30       _sf_c12_ARP_02_RPSs_Bdr_GK_BIS2_get_autoinheritance_info 100c5a30 f   c12_ARP_02_RPSs_Bdr_GK_BIS2.obj
 0001:000c4e30       _sf_c12_ARP_02_RPSs_Bdr_GK_BIS2_third_party_uses_info 100c5e30 f   c12_ARP_02_RPSs_Bdr_GK_BIS2.obj
 0001:000c4e50       _sf_c12_ARP_02_RPSs_Bdr_GK_BIS2_updateBuildInfo_args_info 100c5e50 f   c12_ARP_02_RPSs_Bdr_GK_BIS2.obj
 0001:000c4e70       _sf_internal_get_sim_state_c12_ARP_02_RPSs_Bdr_GK_BIS2 100c5e70 f   c12_ARP_02_RPSs_Bdr_GK_BIS2.obj
 0001:000c5110       _sf_internal_set_sim_state_c12_ARP_02_RPSs_Bdr_GK_BIS2 100c6110 f   c12_ARP_02_RPSs_Bdr_GK_BIS2.obj
 0001:000c5400       _c12_ARP_02_RPSs_Bdr_GK_BIS2_method_dispatcher 100c6400 f   c12_ARP_02_RPSs_Bdr_GK_BIS2.obj
 0001:000c8320       _sf_c13_ARP_02_RPSs_Bdr_GK_BIS2_get_eml_resolved_functions_info 100c9320 f   c13_ARP_02_RPSs_Bdr_GK_BIS2.obj
 0001:000c8370       _sf_c13_ARP_02_RPSs_Bdr_GK_BIS2_get_check_sum 100c9370 f   c13_ARP_02_RPSs_Bdr_GK_BIS2.obj
 0001:000c83d0       _sf_c13_ARP_02_RPSs_Bdr_GK_BIS2_get_autoinheritance_info 100c93d0 f   c13_ARP_02_RPSs_Bdr_GK_BIS2.obj
 0001:000c86e0       _sf_c13_ARP_02_RPSs_Bdr_GK_BIS2_third_party_uses_info 100c96e0 f   c13_ARP_02_RPSs_Bdr_GK_BIS2.obj
 0001:000c8700       _sf_c13_ARP_02_RPSs_Bdr_GK_BIS2_updateBuildInfo_args_info 100c9700 f   c13_ARP_02_RPSs_Bdr_GK_BIS2.obj
 0001:000c8720       _sf_internal_get_sim_state_c13_ARP_02_RPSs_Bdr_GK_BIS2 100c9720 f   c13_ARP_02_RPSs_Bdr_GK_BIS2.obj
 0001:000c89c0       _sf_internal_set_sim_state_c13_ARP_02_RPSs_Bdr_GK_BIS2 100c99c0 f   c13_ARP_02_RPSs_Bdr_GK_BIS2.obj
 0001:000c8cb0       _c13_ARP_02_RPSs_Bdr_GK_BIS2_method_dispatcher 100c9cb0 f   c13_ARP_02_RPSs_Bdr_GK_BIS2.obj
 0001:000ca0c0       _sf_c14_ARP_02_RPSs_Bdr_GK_BIS2_get_eml_resolved_functions_info 100cb0c0 f   c14_ARP_02_RPSs_Bdr_GK_BIS2.obj
 0001:000ca110       _sf_c14_ARP_02_RPSs_Bdr_GK_BIS2_get_check_sum 100cb110 f   c14_ARP_02_RPSs_Bdr_GK_BIS2.obj
 0001:000ca170       _sf_c14_ARP_02_RPSs_Bdr_GK_BIS2_get_autoinheritance_info 100cb170 f   c14_ARP_02_RPSs_Bdr_GK_BIS2.obj
 0001:000ca480       _sf_c14_ARP_02_RPSs_Bdr_GK_BIS2_third_party_uses_info 100cb480 f   c14_ARP_02_RPSs_Bdr_GK_BIS2.obj
 0001:000ca4a0       _sf_c14_ARP_02_RPSs_Bdr_GK_BIS2_updateBuildInfo_args_info 100cb4a0 f   c14_ARP_02_RPSs_Bdr_GK_BIS2.obj
 0001:000ca4c0       _sf_internal_get_sim_state_c14_ARP_02_RPSs_Bdr_GK_BIS2 100cb4c0 f   c14_ARP_02_RPSs_Bdr_GK_BIS2.obj
 0001:000ca760       _sf_internal_set_sim_state_c14_ARP_02_RPSs_Bdr_GK_BIS2 100cb760 f   c14_ARP_02_RPSs_Bdr_GK_BIS2.obj
 0001:000caa50       _c14_ARP_02_RPSs_Bdr_GK_BIS2_method_dispatcher 100cba50 f   c14_ARP_02_RPSs_Bdr_GK_BIS2.obj
 0001:000cc200       _sf_process_check_sum_call 100cd200 f   ARP_02_RPSs_Bdr_GK_BIS2_sfun_registry.obj
 0001:000cc230       _sf_process_autoinheritance_call 100cd230 f   ARP_02_RPSs_Bdr_GK_BIS2_sfun_registry.obj
 0001:000cc370       _sf_process_get_third_party_uses_info_call 100cd370 f   ARP_02_RPSs_Bdr_GK_BIS2_sfun_registry.obj
 0001:000cc4b0       _sf_process_get_updateBuildInfo_args_info_call 100cd4b0 f   ARP_02_RPSs_Bdr_GK_BIS2_sfun_registry.obj
 0001:000cc5f0       _sf_process_get_eml_resolved_functions_info_call 100cd5f0 f   ARP_02_RPSs_Bdr_GK_BIS2_sfun_registry.obj
 0001:000cc710       _sf_mex_unlock_call        100cd710 f   ARP_02_RPSs_Bdr_GK_BIS2_sfun_registry.obj
 0001:000cc7a0       _sf_machine_global_initializer_called 100cd7a0 f   ARP_02_RPSs_Bdr_GK_BIS2_sfun_registry.obj
 0001:000cc7c0       _sf_machine_global_method_dispatcher 100cd7c0 f   ARP_02_RPSs_Bdr_GK_BIS2_sfun_registry.obj
 0001:000cc800       _sf_machine_global_terminator 100cd800 f   ARP_02_RPSs_Bdr_GK_BIS2_sfun_registry.obj
 0001:000cc840       _sf_register_machine_exported_symbols 100cd840 f   ARP_02_RPSs_Bdr_GK_BIS2_sfun_registry.obj
 0001:000cc860       _callCustomFcn             100cd860 f   ARP_02_RPSs_Bdr_GK_BIS2_sfun_registry.obj
 0001:000cc870       _sf_machine_global_initializer 100cd870 f   ARP_02_RPSs_Bdr_GK_BIS2_sfun_registry.obj
 0001:000cc8e0       _mdlGetSimState            100cd8e0 f   ARP_02_RPSs_Bdr_GK_BIS2_sfun_registry.obj
 0001:000cc940       _mdlSetSimState            100cd940 f   ARP_02_RPSs_Bdr_GK_BIS2_sfun_registry.obj
 0001:000cc970       __ssSetStateAbsTol         100cd970 f   ARP_02_RPSs_Bdr_GK_BIS2_sfun_registry.obj
 0001:000cca10       __ssGetAbsTol              100cda10 f   ARP_02_RPSs_Bdr_GK_BIS2_sfun_registry.obj
 0001:000cca60       __ssSetInputPortMatrixDimensions 100cda60 f   ARP_02_RPSs_Bdr_GK_BIS2_sfun_registry.obj
 0001:000ccb10       __ssSetOutputPortMatrixDimensions 100cdb10 f   ARP_02_RPSs_Bdr_GK_BIS2_sfun_registry.obj
 0001:000ccbc0       __ssSetInputPortVectorDimension 100cdbc0 f   ARP_02_RPSs_Bdr_GK_BIS2_sfun_registry.obj
 0001:000ccc40       __ssSetOutputPortVectorDimension 100cdc40 f   ARP_02_RPSs_Bdr_GK_BIS2_sfun_registry.obj
 0001:000cccc0       _ssIsRunTimeParamTunable   100cdcc0 f   ARP_02_RPSs_Bdr_GK_BIS2_sfun_registry.obj
 0001:000ccd20       _ssGetSFuncBlockHandle     100cdd20 f   ARP_02_RPSs_Bdr_GK_BIS2_sfun_registry.obj
 0001:000ccd70       __ssGetCurrentInputPortWidth 100cdd70 f   ARP_02_RPSs_Bdr_GK_BIS2_sfun_registry.obj
 0001:000cce40       __ssGetCurrentOutputPortWidth 100cde40 f   ARP_02_RPSs_Bdr_GK_BIS2_sfun_registry.obj
 0001:000ccf10       __ssGetCallSystemNumFcnCallDestinations 100cdf10 f   ARP_02_RPSs_Bdr_GK_BIS2_sfun_registry.obj
 0001:000ccf70       _ssWarning                 100cdf70 f   ARP_02_RPSs_Bdr_GK_BIS2_sfun_registry.obj
 0001:000cd050       _ssGetIsZeroCrossControlDisabled 100ce050 f   ARP_02_RPSs_Bdr_GK_BIS2_sfun_registry.obj
 0001:000cd0b0       _ssSetIsInputPortUsedForContZcSignal 100ce0b0 f   ARP_02_RPSs_Bdr_GK_BIS2_sfun_registry.obj
 0001:000cd100       _ssSetZcSignalIsZcElementDisc 100ce100 f   ARP_02_RPSs_Bdr_GK_BIS2_sfun_registry.obj
 0001:000cd180       _ssSetZcSignalName         100ce180 f   ARP_02_RPSs_Bdr_GK_BIS2_sfun_registry.obj
 0001:000cd1d0       _ssSetZcSignalWidth        100ce1d0 f   ARP_02_RPSs_Bdr_GK_BIS2_sfun_registry.obj
 0001:000cd220       _ssSetZcSignalZcEventType  100ce220 f   ARP_02_RPSs_Bdr_GK_BIS2_sfun_registry.obj
 0001:000cd270       _ssSetZcSignalType         100ce270 f   ARP_02_RPSs_Bdr_GK_BIS2_sfun_registry.obj
 0001:000cd2c0       _ssSetZcSignalZcTol        100ce2c0 f   ARP_02_RPSs_Bdr_GK_BIS2_sfun_registry.obj
 0001:000cd310       _ssSetZcSignalNeedsEventNotification 100ce310 f   ARP_02_RPSs_Bdr_GK_BIS2_sfun_registry.obj
 0001:000cd360       _ssCreateAndAddZcSignalInfo 100ce360 f   ARP_02_RPSs_Bdr_GK_BIS2_sfun_registry.obj
 0001:000cd3c0       _ssCloneAndAddZcSignalInfo 100ce3c0 f   ARP_02_RPSs_Bdr_GK_BIS2_sfun_registry.obj
 0001:000cd420       _ssGetNumZcSignals         100ce420 f   ARP_02_RPSs_Bdr_GK_BIS2_sfun_registry.obj
 0001:000cd480       _ssGetZcSignalVector       100ce480 f   ARP_02_RPSs_Bdr_GK_BIS2_sfun_registry.obj
 0001:000cd4e0       _ssGetZcSignalZcEvents     100ce4e0 f   ARP_02_RPSs_Bdr_GK_BIS2_sfun_registry.obj
 0001:000cd540       _ssGetZcSignalName         100ce540 f   ARP_02_RPSs_Bdr_GK_BIS2_sfun_registry.obj
 0001:000cd5a0       _ssGetZcSignalWidth        100ce5a0 f   ARP_02_RPSs_Bdr_GK_BIS2_sfun_registry.obj
 0001:000cd600       _ssGetZcSignalZcEventType  100ce600 f   ARP_02_RPSs_Bdr_GK_BIS2_sfun_registry.obj
 0001:000cd660       _ssGetZcSignalType         100ce660 f   ARP_02_RPSs_Bdr_GK_BIS2_sfun_registry.obj
 0001:000cd6c0       _ssGetZcSignalZcTol        100ce6c0 f   ARP_02_RPSs_Bdr_GK_BIS2_sfun_registry.obj
 0001:000cd720       _ssGetZcSignalNeedsEventNotification 100ce720 f   ARP_02_RPSs_Bdr_GK_BIS2_sfun_registry.obj
 0001:000cd780       _ssGetZcSignalIsZcElementDisc 100ce780 f   ARP_02_RPSs_Bdr_GK_BIS2_sfun_registry.obj
 0001:000cd800       _ssGetIsInputPortElementContinuous 100ce800 f   ARP_02_RPSs_Bdr_GK_BIS2_sfun_registry.obj
 0001:000cd880       __ssGetInputPortSignalPtrsFcn 100ce880 f   ARP_02_RPSs_Bdr_GK_BIS2_sfun_registry.obj
 0001:000cda80       __ssGetInputPortSignalFcn  100cea80 f   ARP_02_RPSs_Bdr_GK_BIS2_sfun_registry.obj
 0001:000cdc10       __ssSetInputPortDirectFeedThroughFcn 100cec10 f   ARP_02_RPSs_Bdr_GK_BIS2_sfun_registry.obj
 0001:000cdd40       __ssSetInputPortReusableFcn 100ced40 f   ARP_02_RPSs_Bdr_GK_BIS2_sfun_registry.obj
 0001:000cddd0       __ssSetOutputPortReusableFcn 100cedd0 f   ARP_02_RPSs_Bdr_GK_BIS2_sfun_registry.obj
 0001:000cde60       _ssGetDTypeIdFromMxArray   100cee60 f   ARP_02_RPSs_Bdr_GK_BIS2_sfun_registry.obj
 0001:000cdf50       _ssWriteRTWStr             100cef50 f   ARP_02_RPSs_Bdr_GK_BIS2_sfun_registry.obj
 0001:000cdf90       _ssWriteRTWMxVectParam     100cef90 f   ARP_02_RPSs_Bdr_GK_BIS2_sfun_registry.obj
 0001:000cdfd0       _ssWriteRTWMx2dMatParam    100cefd0 f   ARP_02_RPSs_Bdr_GK_BIS2_sfun_registry.obj
 0001:000ce010       _ssWriteRTWNameValuePair   100cf010 f   ARP_02_RPSs_Bdr_GK_BIS2_sfun_registry.obj
 0001:000ce380       _ssWriteRTWParameters      100cf380 f   ARP_02_RPSs_Bdr_GK_BIS2_sfun_registry.obj
 0001:000ce720       _ssWriteRTWParamSettings   100cf720 f   ARP_02_RPSs_Bdr_GK_BIS2_sfun_registry.obj
 0001:000cebd0       _ssWriteRTWWorkVect        100cfbd0 f   ARP_02_RPSs_Bdr_GK_BIS2_sfun_registry.obj
 0001:000cef60       _mexFunction               100cff60 f   ARP_02_RPSs_Bdr_GK_BIS2_sfun_registry.obj
 0001:000d0cb0       _ProcessMexSfunctionEveryCall 100d1cb0 f   ARP_02_RPSs_Bdr_GK_BIS2_sfun_registry.obj
 0001:000d0dce       _sf_debug_set_machine_data_thresholds 100d1dce f   sf_runtime:sf_runtime.dll
 0001:000d0dd4       _sf_debug_set_machine_event_thresholds 100d1dd4 f   sf_runtime:sf_runtime.dll
 0001:000d0dda       _sf_debug_initialize_machine 100d1dda f   sf_runtime:sf_runtime.dll
 0001:000d0de0       _sf_load_rtw_optimization_info 100d1de0 f   sf_runtime:sf_runtime.dll
 0001:000d0de6       _sf_mex_assign             100d1de6 f   sf_runtime:sf_runtime.dll
 0001:000d0dec       _sf_mex_create             100d1dec f   sf_runtime:sf_runtime.dll
 0001:000d0df2       _sf_mex_error_message      100d1df2 f   sf_runtime:sf_runtime.dll
 0001:000d0df8       _sf_mex_call_matlab        100d1df8 f   sf_runtime:sf_runtime.dll
 0001:000d0dfe       _sf_mex_destroy            100d1dfe f   sf_runtime:sf_runtime.dll
 0001:000d0e04       _sf_mex_duplicatearraysafe 100d1e04 f   sf_runtime:sf_runtime.dll
 0001:000d0e0a       _sf_mex_dup                100d1e0a f   sf_runtime:sf_runtime.dll
 0001:000d0e10       _sf_mex_setcell            100d1e10 f   sf_runtime:sf_runtime.dll
 0001:000d0e16       _sf_mex_createcellmatrix   100d1e16 f   sf_runtime:sf_runtime.dll
 0001:000d0e1c       _sf_mex_decode_encoded_mx_struct_array 100d1e1c f   sf_runtime:sf_runtime.dll
 0001:000d0e22       _sf_mex_getcell            100d1e22 f   sf_runtime:sf_runtime.dll
 0001:000d0e28       _sf_debug_animate          100d1e28 f   sf_runtime:sf_runtime.dll
 0001:000d0e2e       _sf_debug_call             100d1e2e f   sf_runtime:sf_runtime.dll
 0001:000d0e34       _sf_debug_set_honor_breakpoints 100d1e34 f   sf_runtime:sf_runtime.dll
 0001:000d0e3a       _sf_debug_set_animation    100d1e3a f   sf_runtime:sf_runtime.dll
 0001:000d0e40       _sf_debug_get_animation    100d1e40 f   sf_runtime:sf_runtime.dll
 0001:000d0e46       _sf_mex_import             100d1e46 f   sf_runtime:sf_runtime.dll
 0001:000d0e4c       _sf_set_rtw_dwork_info     100d1e4c f   sf_runtime:sf_runtime.dll
 0001:000d0e52       _sf_mark_chart_reusable_outputs 100d1e52 f   sf_runtime:sf_runtime.dll
 0001:000d0e58       _sf_mark_chart_expressionable_inputs 100d1e58 f   sf_runtime:sf_runtime.dll
 0001:000d0e5e       _sf_mark_output_events_with_multiple_callers 100d1e5e f   sf_runtime:sf_runtime.dll
 0001:000d0e64       _sf_update_buildInfo       100d1e64 f   sf_runtime:sf_runtime.dll
 0001:000d0e6a       _sf_rtw_info_uint_prop     100d1e6a f   sf_runtime:sf_runtime.dll
 0001:000d0e70       _sf_is_chart_inlinable     100d1e70 f   sf_runtime:sf_runtime.dll
 0001:000d0e76       _sim_mode_is_external      100d1e76 f   sf_runtime:sf_runtime.dll
 0001:000d0e7c       _sim_mode_is_rtw_gen       100d1e7c f   sf_runtime:sf_runtime.dll
 0001:000d0e82       _sf_debug_reset_current_state_configuration 100d1e82 f   sf_runtime:sf_runtime.dll
 0001:000d0e88       _sf_debug_set_instance_data_value_ptr 100d1e88 f   sf_runtime:sf_runtime.dll
 0001:000d0e8e       _sf_debug_set_chart_data_compiled_props 100d1e8e f   sf_runtime:sf_runtime.dll
 0001:000d0e94       _cv_eml_init_if            100d1e94 f   sf_runtime:sf_runtime.dll
 0001:000d0e9a       _cv_eml_init_script        100d1e9a f   sf_runtime:sf_runtime.dll
 0001:000d0ea0       _sf_debug_cv_init_trans    100d1ea0 f   sf_runtime:sf_runtime.dll
 0001:000d0ea6       _sf_debug_cv_init_state    100d1ea6 f   sf_runtime:sf_runtime.dll
 0001:000d0eac       _sf_debug_cv_init_chart    100d1eac f   sf_runtime:sf_runtime.dll
 0001:000d0eb2       _sf_debug_set_chart_state_substate_index 100d1eb2 f   sf_runtime:sf_runtime.dll
 0001:000d0eb8       _sf_debug_set_chart_state_substate_count 100d1eb8 f   sf_runtime:sf_runtime.dll
 0001:000d0ebe       _sf_debug_set_chart_substate_index 100d1ebe f   sf_runtime:sf_runtime.dll
 0001:000d0ec4       _sf_debug_set_chart_decomposition 100d1ec4 f   sf_runtime:sf_runtime.dll
 0001:000d0eca       _sf_debug_set_chart_substate_count 100d1eca f   sf_runtime:sf_runtime.dll
 0001:000d0ed0       _sf_debug_set_chart_state_info 100d1ed0 f   sf_runtime:sf_runtime.dll
 0001:000d0ed6       _sf_debug_set_chart_event_scope 100d1ed6 f   sf_runtime:sf_runtime.dll
 0001:000d0edc       _sf_debug_set_chart_data_props 100d1edc f   sf_runtime:sf_runtime.dll
 0001:000d0ee2       _sf_debug_set_chart_event_thresholds 100d1ee2 f   sf_runtime:sf_runtime.dll
 0001:000d0ee8       _sf_debug_set_chart_disable_implicit_casting 100d1ee8 f   sf_runtime:sf_runtime.dll
 0001:000d0eee       _sf_debug_initialize_chart 100d1eee f   sf_runtime:sf_runtime.dll
 0001:000d0ef4       _sf_get_output_port_reusable 100d1ef4 f   sf_runtime:sf_runtime.dll
 0001:000d0efa       _sf_get_time               100d1efa f   sf_runtime:sf_runtime.dll
 0001:000d0f00       _sf_call_output_fcn_enable 100d1f00 f   sf_runtime:sf_runtime.dll
 0001:000d0f06       _sf_call_output_fcn_disable 100d1f06 f   sf_runtime:sf_runtime.dll
 0001:000d0f0c       _sf_debug_check_for_state_inconsistency 100d1f0c f   sf_runtime:sf_runtime.dll
 0001:000d0f12       _sf_debug_symbol_scope_pop 100d1f12 f   sf_runtime:sf_runtime.dll
 0001:000d0f18       _sf_debug_data_range_wrapper 100d1f18 f   sf_runtime:sf_runtime.dll
 0001:000d0f1e       _sf_debug_symbol_scope_push 100d1f1e f   sf_runtime:sf_runtime.dll
 0001:000d0f24       _sf_mex_sub                100d1f24 f   sf_runtime:sf_runtime.dll
 0001:000d0f2a       _sf_mex_call_debug         100d1f2a f   sf_runtime:sf_runtime.dll
 0001:000d0f30       _sf_mex_printf             100d1f30 f   sf_runtime:sf_runtime.dll
 0001:000d0f36       _sf_call_output_fcn_call   100d1f36 f   sf_runtime:sf_runtime.dll
 0001:000d0f3c       _cv_eml_eval               100d1f3c f   sf_runtime:sf_runtime.dll
 0001:000d0f42       _sf_debug_symbol_scope_add_eml_importable 100d1f42 f   sf_runtime:sf_runtime.dll
 0001:000d0f48       _sf_debug_symbol_scope_push_eml 100d1f48 f   sf_runtime:sf_runtime.dll
 0001:000d0f4e       _cv_eval_point             100d1f4e f   sf_runtime:sf_runtime.dll
 0001:000d0f54       _sf_debug_unset_instance_data_value_ptr 100d1f54 f   sf_runtime:sf_runtime.dll
 0001:000d0f5a       _sf_debug_symbol_scope_add_importable 100d1f5a f   sf_runtime:sf_runtime.dll
 0001:000d0f60       _sf_debug_eml_data_array_bounds_error_check 100d1f60 f   sf_runtime:sf_runtime.dll
 0001:000d0f66       _sf_debug_read_before_write_check 100d1f66 f   sf_runtime:sf_runtime.dll
 0001:000d0f6c       _sf_clear_rtw_identifier   100d1f6c f   sf_runtime:sf_runtime.dll
 0001:000d0f72       _sf_get_subchart_simstruct 100d1f72 f   sf_runtime:sf_runtime.dll
 0001:000d0f78       _sf_mex_emlrtNameCapturePostProcessR2012a 100d1f78 f   sf_runtime:sf_runtime.dll
 0001:000d0f7e       _sf_mex_createstruct       100d1f7e f   sf_runtime:sf_runtime.dll
 0001:000d0f84       _sf_mex_addfield           100d1f84 f   sf_runtime:sf_runtime.dll
 0001:000d0f8a       _cv_eml_init_fcn           100d1f8a f   sf_runtime:sf_runtime.dll
 0001:000d0f90       _eml_debug_line_call       100d1f90 f   sf_runtime:sf_runtime.dll
 0001:000d0f96       _sf_debug_symbol_scope_add_eml 100d1f96 f   sf_runtime:sf_runtime.dll
 0001:000d0f9c       _cv_script_eval            100d1f9c f   sf_runtime:sf_runtime.dll
 0001:000d0fa2       _sf_debug_integer_check    100d1fa2 f   sf_runtime:sf_runtime.dll
 0001:000d0fa8       _cv_eml_init_mcdc          100d1fa8 f   sf_runtime:sf_runtime.dll
 0001:000d0fae       _cv_script_init_fcn        100d1fae f   sf_runtime:sf_runtime.dll
 0001:000d0fb4       _cv_script_init_script     100d1fb4 f   sf_runtime:sf_runtime.dll
 0001:000d0fba       _sf_debug_set_script_translation 100d1fba f   sf_runtime:sf_runtime.dll
 0001:000d0fc0       _sf_debug_get_script_id    100d1fc0 f   sf_runtime:sf_runtime.dll
 0001:000d0fc6       _sf_debug_temporal_threshold 100d1fc6 f   sf_runtime:sf_runtime.dll
 0001:000d0fcc       _sf_debug_symbol_scope_add_eml_dyn_importable 100d1fcc f   sf_runtime:sf_runtime.dll
 0001:000d0fd2       _sf_debug_sub_assign_size_check_nd 100d1fd2 f   sf_runtime:sf_runtime.dll
 0001:000d0fd8       _sf_mex_import_vs          100d1fd8 f   sf_runtime:sf_runtime.dll
 0001:000d0fde       _cv_script_init_mcdc       100d1fde f   sf_runtime:sf_runtime.dll
 0001:000d0fe4       _cv_script_init_if         100d1fe4 f   sf_runtime:sf_runtime.dll
 0001:000d0fea       _sf_debug_terminate        100d1fea f   sf_runtime:sf_runtime.dll
 0001:000d0ff0       _sf_debug_create_debug_instance_struct 100d1ff0 f   sf_runtime:sf_runtime.dll
 0001:000d0ff6       _sf_debug_api              100d1ff6 f   sf_runtime:sf_runtime.dll
 0001:000d0ffe       _callMdlMethodAndReportError 100d1ffe f   sf_runtime:sf_runtime.dll
 0001:000d1004       _call_sf_machine_global_method_dispatcher 100d2004 f   sf_runtime:sf_runtime.dll
 0001:000d100a       _sf_clear_error_manager_info 100d200a f   sf_runtime:sf_runtime.dll
 0001:000d1010       _sf_mex_error_direct_call  100d2010 f   sf_runtime:sf_runtime.dll
 0001:000d1016       _mxGetScalar               100d2016 f   libmx:libmx.dll
 0001:000d101c       _mxGetPr                   100d201c f   libmx:libmx.dll
 0001:000d1022       _mxCreateDoubleMatrix_730  100d2022 f   libmx:libmx.dll
 0001:000d1028       _mxGetString_730           100d2028 f   libmx:libmx.dll
 0001:000d102e       _mxIsChar                  100d202e f   libmx:libmx.dll
 0001:000d1034       _mxDestroyArray            100d2034 f   libmx:libmx.dll
 0001:000d103a       _mxDuplicateArray          100d203a f   libmx:libmx.dll
 0001:000d1040       _mxCreateDoubleScalar      100d2040 f   libmx:libmx.dll
 0001:000d1046       _mxSetField_730            100d2046 f   libmx:libmx.dll
 0001:000d104c       _mxCreateString            100d204c f   libmx:libmx.dll
 0001:000d1052       _mxCreateStructMatrix_730  100d2052 f   libmx:libmx.dll
 0001:000d1058       _mxCreateCellMatrix_730    100d2058 f   libmx:libmx.dll
 0001:000d105e       _mxIsEmpty                 100d205e f   libmx:libmx.dll
 0001:000d1064       _mxGetClassID              100d2064 f   libmx:libmx.dll
 0001:000d106a       _mxIsNumeric               100d206a f   libmx:libmx.dll
 0001:000d1070       _mxIsComplex               100d2070 f   libmx:libmx.dll
 0001:000d1076       _mxGetN                    100d2076 f   libmx:libmx.dll
 0001:000d107c       _mxGetM                    100d207c f   libmx:libmx.dll
 0001:000d1082       _mxCalloc                  100d2082 f   libmx:libmx.dll
 0001:000d1088       _mexMakeArrayPersistent    100d2088 f   libmex:libmex.dll
 0001:000d108e       _mexUnlock                 100d208e f   libmex:libmex.dll
 0001:000d1094       _mexIsLocked               100d2094 f   libmex:libmex.dll
 0001:000d109a       _mexWarnMsgTxt             100d209a f   libmex:libmex.dll
 0001:000d10a0       _mexCallMATLAB             100d20a0 f   libmex:libmex.dll
 0001:000d10a6       _mexErrMsgTxt              100d20a6 f   libmex:libmex.dll
 0001:000d10ac       _mexLock                   100d20ac f   libmex:libmex.dll
 0001:000d10b2       _utMalloc                  100d20b2 f   libut:libut.dll
 0001:000d10b8       _utFree                    100d20b8 f   libut:libut.dll
 0001:000d10be       _muDoubleScalarFloor       100d20be f   libmwmathutil:libmwmathutil.dll
 0001:000d10c4       _muDoubleScalarRound       100d20c4 f   libmwmathutil:libmwmathutil.dll
 0001:000d10ca       _muDoubleScalarLog         100d20ca f   libmwmathutil:libmwmathutil.dll
 0001:000d10d0       _muDoubleScalarAbs         100d20d0 f   libmwmathutil:libmwmathutil.dll
 0001:000d10d6       _strcmp                    100d20d6 f   MSVCRT:MSVCR100.dll
 0001:000d10e0       @__security_check_cookie@4 100d20e0 f   MSVCRT:secchk.obj
 0001:000d10f0       _memset                    100d20f0 f   MSVCRT:MSVCR100.dll
 0001:000d1100       __alloca_probe             100d2100     MSVCRT:chkstk.obj
 0001:000d1100       __chkstk                   100d2100 f   MSVCRT:chkstk.obj
 0001:000d112c       _strlen                    100d212c f   MSVCRT:MSVCR100.dll
 0001:000d1140       __ftol2_sse                100d2140 f   MSVCRT:ftol2.obj
 0001:000d1149       __ftol2_pentium4           100d2149 f   MSVCRT:ftol2.obj
 0001:000d115c       __ftol2_sse_excpt          100d215c f   MSVCRT:ftol2.obj
 0001:000d1176       __ftol2                    100d2176 f   MSVCRT:ftol2.obj
 0001:000d11ec       _free                      100d21ec f   MSVCRT:MSVCR100.dll
 0001:000d11f2       _sprintf                   100d21f2 f   MSVCRT:MSVCR100.dll
 0001:000d11f8       _malloc                    100d21f8 f   MSVCRT:MSVCR100.dll
 0001:000d11fe       _strcat                    100d21fe f   MSVCRT:MSVCR100.dll
 0001:000d1204       _memcpy                    100d2204 f   MSVCRT:MSVCR100.dll
 0001:000d120a       _NtCurrentTeb              100d220a f i MSVCRT:crtdll.obj
 0001:000d125f       __CRT_INIT@12              100d225f f   MSVCRT:crtdll.obj
 0001:000d157f       __DllMainCRTStartup@12     100d257f f   MSVCRT:crtdll.obj
 0001:000d15a2       ___report_gsfailure        100d25a2 f   MSVCRT:gs_report.obj
 0001:000d16a8       ___sse2_available_init     100d26a8 f   MSVCRT:cpu_disp.obj
 0001:000d16b8       ___clean_type_info_names   100d26b8 f   MSVCRT:tncleanup.obj
 0001:000d16c4       __onexit                   100d26c4 f   MSVCRT:atonexit.obj
 0001:000d1765       _atexit                    100d2765 f   MSVCRT:atonexit.obj
 0001:000d177c       __RTC_Initialize           100d277c f   MSVCRT:_initsect_.obj
 0001:000d17a2       __RTC_Terminate            100d27a2 f   MSVCRT:_initsect_.obj
 0001:000d17c8       __malloc_crt               100d27c8 f   MSVCRT:MSVCR100.dll
 0001:000d17ce       __encoded_null             100d27ce f   MSVCRT:MSVCR100.dll
 0001:000d17e0       __ValidateImageBase        100d27e0 f   MSVCRT:pesect.obj
 0001:000d1820       __FindPESection            100d2820 f   MSVCRT:pesect.obj
 0001:000d1870       __IsNonwritableInCurrentImage 100d2870 f   MSVCRT:pesect.obj
 0001:000d192c       __initterm                 100d292c f   MSVCRT:MSVCR100.dll
 0001:000d1932       __initterm_e               100d2932 f   MSVCRT:MSVCR100.dll
 0001:000d1938       __amsg_exit                100d2938 f   MSVCRT:MSVCR100.dll
 0001:000d193e       ___CppXcptFilter           100d293e f   MSVCRT:MSVCR100.dll
 0001:000d1944       _DllMain@12                100d2944 f   MSVCRT:dllmain.obj
 0001:000d1970       __SEH_prolog4              100d2970 f   MSVCRT:sehprolg4.obj
 0001:000d19b5       __SEH_epilog4              100d29b5 f   MSVCRT:sehprolg4.obj
 0001:000d19c9       __except_handler4          100d29c9 f   MSVCRT:chandler4gs.obj
 0001:000d19ee       ___security_init_cookie    100d29ee f   MSVCRT:gs_support.obj
 0001:000d1a8a       __crt_debugger_hook        100d2a8a f   MSVCRT:MSVCR100.dll
 0001:000d1a90       ___clean_type_info_names_internal 100d2a90 f   MSVCRT:MSVCR100.dll
 0001:000d1a96       __unlock                   100d2a96 f   MSVCRT:MSVCR100.dll
 0001:000d1a9c       ___dllonexit               100d2a9c f   MSVCRT:MSVCR100.dll
 0001:000d1aa2       __lock                     100d2aa2 f   MSVCRT:MSVCR100.dll
 0001:000d1aa8       __except_handler4_common   100d2aa8 f   MSVCRT:MSVCR100.dll
 0001:000d1aae       _EncodePointer@4           100d2aae f   kernel32:KERNEL32.dll
 0001:000d1ab4       _DecodePointer@4           100d2ab4 f   kernel32:KERNEL32.dll
 0001:000d1aba       _InterlockedExchange@8     100d2aba f   kernel32:KERNEL32.dll
 0001:000d1ac0       _Sleep@4                   100d2ac0 f   kernel32:KERNEL32.dll
 0001:000d1ac6       _InterlockedCompareExchange@12 100d2ac6 f   kernel32:KERNEL32.dll
 0001:000d1acc       _TerminateProcess@8        100d2acc f   kernel32:KERNEL32.dll
 0001:000d1ad2       _GetCurrentProcess@0       100d2ad2 f   kernel32:KERNEL32.dll
 0001:000d1ad8       _UnhandledExceptionFilter@4 100d2ad8 f   kernel32:KERNEL32.dll
 0001:000d1ade       _SetUnhandledExceptionFilter@4 100d2ade f   kernel32:KERNEL32.dll
 0001:000d1ae4       _IsDebuggerPresent@0       100d2ae4 f   kernel32:KERNEL32.dll
 0001:000d1aea       _IsProcessorFeaturePresent@4 100d2aea f   kernel32:KERNEL32.dll
 0001:000d1af0       _DisableThreadLibraryCalls@4 100d2af0 f   kernel32:KERNEL32.dll
 0001:000d1af6       _QueryPerformanceCounter@4 100d2af6 f   kernel32:KERNEL32.dll
 0001:000d1afc       _GetTickCount@0            100d2afc f   kernel32:KERNEL32.dll
 0001:000d1b02       _GetCurrentThreadId@0      100d2b02 f   kernel32:KERNEL32.dll
 0001:000d1b08       _GetCurrentProcessId@0     100d2b08 f   kernel32:KERNEL32.dll
 0001:000d1b0e       _GetSystemTimeAsFileTime@4 100d2b0e f   kernel32:KERNEL32.dll
 0002:00000000       __imp__GetCurrentProcessId@0 100d3000     kernel32:KERNEL32.dll
 0002:00000004       __imp__GetCurrentThreadId@0 100d3004     kernel32:KERNEL32.dll
 0002:00000008       __imp__GetTickCount@0      100d3008     kernel32:KERNEL32.dll
 0002:0000000c       __imp__QueryPerformanceCounter@4 100d300c     kernel32:KERNEL32.dll
 0002:00000010       __imp__DisableThreadLibraryCalls@4 100d3010     kernel32:KERNEL32.dll
 0002:00000014       __imp__IsProcessorFeaturePresent@4 100d3014     kernel32:KERNEL32.dll
 0002:00000018       __imp__IsDebuggerPresent@0 100d3018     kernel32:KERNEL32.dll
 0002:0000001c       __imp__SetUnhandledExceptionFilter@4 100d301c     kernel32:KERNEL32.dll
 0002:00000020       __imp__UnhandledExceptionFilter@4 100d3020     kernel32:KERNEL32.dll
 0002:00000024       __imp__GetCurrentProcess@0 100d3024     kernel32:KERNEL32.dll
 0002:00000028       __imp__TerminateProcess@8  100d3028     kernel32:KERNEL32.dll
 0002:0000002c       __imp__InterlockedCompareExchange@12 100d302c     kernel32:KERNEL32.dll
 0002:00000030       __imp__Sleep@4             100d3030     kernel32:KERNEL32.dll
 0002:00000034       __imp__InterlockedExchange@8 100d3034     kernel32:KERNEL32.dll
 0002:00000038       __imp__DecodePointer@4     100d3038     kernel32:KERNEL32.dll
 0002:0000003c       __imp__EncodePointer@4     100d303c     kernel32:KERNEL32.dll
 0002:00000040       __imp__GetSystemTimeAsFileTime@4 100d3040     kernel32:KERNEL32.dll
 0002:00000044       \177KERNEL32_NULL_THUNK_DATA 100d3044     kernel32:KERNEL32.dll
 0002:00000048       __imp___except_handler4_common 100d3048     MSVCRT:MSVCR100.dll
 0002:0000004c       __imp___lock               100d304c     MSVCRT:MSVCR100.dll
 0002:00000050       __imp____dllonexit         100d3050     MSVCRT:MSVCR100.dll
 0002:00000054       __imp___unlock             100d3054     MSVCRT:MSVCR100.dll
 0002:00000058       __imp____clean_type_info_names_internal 100d3058     MSVCRT:MSVCR100.dll
 0002:0000005c       __imp___crt_debugger_hook  100d305c     MSVCRT:MSVCR100.dll
 0002:00000060       __imp____CppXcptFilter     100d3060     MSVCRT:MSVCR100.dll
 0002:00000064       __imp___amsg_exit          100d3064     MSVCRT:MSVCR100.dll
 0002:00000068       __imp___initterm_e         100d3068     MSVCRT:MSVCR100.dll
 0002:0000006c       __imp___initterm           100d306c     MSVCRT:MSVCR100.dll
 0002:00000070       __imp___encoded_null       100d3070     MSVCRT:MSVCR100.dll
 0002:00000074       __imp___malloc_crt         100d3074     MSVCRT:MSVCR100.dll
 0002:00000078       __imp__memcpy              100d3078     MSVCRT:MSVCR100.dll
 0002:0000007c       __imp__strcat              100d307c     MSVCRT:MSVCR100.dll
 0002:00000080       __imp__malloc              100d3080     MSVCRT:MSVCR100.dll
 0002:00000084       __imp__sprintf             100d3084     MSVCRT:MSVCR100.dll
 0002:00000088       __imp__free                100d3088     MSVCRT:MSVCR100.dll
 0002:0000008c       __imp__strlen              100d308c     MSVCRT:MSVCR100.dll
 0002:00000090       __imp__memset              100d3090     MSVCRT:MSVCR100.dll
 0002:00000094       __imp__strcmp              100d3094     MSVCRT:MSVCR100.dll
 0002:00000098       __imp___onexit             100d3098     MSVCRT:MSVCR100.dll
 0002:0000009c       \177MSVCR100_NULL_THUNK_DATA 100d309c     MSVCRT:MSVCR100.dll
 0002:000000a0       __imp__mexErrMsgTxt        100d30a0     libmex:libmex.dll
 0002:000000a4       __imp__mexUnlock           100d30a4     libmex:libmex.dll
 0002:000000a8       __imp__mexIsLocked         100d30a8     libmex:libmex.dll
 0002:000000ac       __imp__mexWarnMsgTxt       100d30ac     libmex:libmex.dll
 0002:000000b0       __imp__mexLock             100d30b0     libmex:libmex.dll
 0002:000000b4       __imp__mexMakeArrayPersistent 100d30b4     libmex:libmex.dll
 0002:000000b8       __imp__mexCallMATLAB       100d30b8     libmex:libmex.dll
 0002:000000bc       \177libmex_NULL_THUNK_DATA 100d30bc     libmex:libmex.dll
 0002:000000c0       __imp__muDoubleScalarRound 100d30c0     libmwmathutil:libmwmathutil.dll
 0002:000000c4       __imp__muDoubleScalarLog   100d30c4     libmwmathutil:libmwmathutil.dll
 0002:000000c8       __imp__muDoubleScalarFloor 100d30c8     libmwmathutil:libmwmathutil.dll
 0002:000000cc       __imp__muDoubleScalarAbs   100d30cc     libmwmathutil:libmwmathutil.dll
 0002:000000d0       \177libmwmathutil_NULL_THUNK_DATA 100d30d0     libmwmathutil:libmwmathutil.dll
 0002:000000d4       __imp__mxCreateStructMatrix_730 100d30d4     libmx:libmx.dll
 0002:000000d8       __imp__mxGetPr             100d30d8     libmx:libmx.dll
 0002:000000dc       __imp__mxCalloc            100d30dc     libmx:libmx.dll
 0002:000000e0       __imp__mxGetM              100d30e0     libmx:libmx.dll
 0002:000000e4       __imp__mxGetN              100d30e4     libmx:libmx.dll
 0002:000000e8       __imp__mxIsComplex         100d30e8     libmx:libmx.dll
 0002:000000ec       __imp__mxIsNumeric         100d30ec     libmx:libmx.dll
 0002:000000f0       __imp__mxGetClassID        100d30f0     libmx:libmx.dll
 0002:000000f4       __imp__mxIsEmpty           100d30f4     libmx:libmx.dll
 0002:000000f8       __imp__mxCreateCellMatrix_730 100d30f8     libmx:libmx.dll
 0002:000000fc       __imp__mxGetScalar         100d30fc     libmx:libmx.dll
 0002:00000100       __imp__mxCreateString      100d3100     libmx:libmx.dll
 0002:00000104       __imp__mxSetField_730      100d3104     libmx:libmx.dll
 0002:00000108       __imp__mxCreateDoubleScalar 100d3108     libmx:libmx.dll
 0002:0000010c       __imp__mxDuplicateArray    100d310c     libmx:libmx.dll
 0002:00000110       __imp__mxDestroyArray      100d3110     libmx:libmx.dll
 0002:00000114       __imp__mxIsChar            100d3114     libmx:libmx.dll
 0002:00000118       __imp__mxGetString_730     100d3118     libmx:libmx.dll
 0002:0000011c       __imp__mxCreateDoubleMatrix_730 100d311c     libmx:libmx.dll
 0002:00000120       \177libmx_NULL_THUNK_DATA  100d3120     libmx:libmx.dll
 0002:00000124       __imp__utMalloc            100d3124     libut:libut.dll
 0002:00000128       __imp__utFree              100d3128     libut:libut.dll
 0002:0000012c       \177libut_NULL_THUNK_DATA  100d312c     libut:libut.dll
 0002:00000130       __imp__sf_debug_symbol_scope_add_eml 100d3130     sf_runtime:sf_runtime.dll
 0002:00000134       __imp__cv_script_eval      100d3134     sf_runtime:sf_runtime.dll
 0002:00000138       __imp__sf_debug_integer_check 100d3138     sf_runtime:sf_runtime.dll
 0002:0000013c       __imp__cv_eml_init_mcdc    100d313c     sf_runtime:sf_runtime.dll
 0002:00000140       __imp__cv_script_init_fcn  100d3140     sf_runtime:sf_runtime.dll
 0002:00000144       __imp__cv_script_init_script 100d3144     sf_runtime:sf_runtime.dll
 0002:00000148       __imp__sf_debug_set_script_translation 100d3148     sf_runtime:sf_runtime.dll
 0002:0000014c       __imp__sf_debug_get_script_id 100d314c     sf_runtime:sf_runtime.dll
 0002:00000150       __imp__sf_debug_temporal_threshold 100d3150     sf_runtime:sf_runtime.dll
 0002:00000154       __imp__sf_debug_symbol_scope_add_eml_dyn_importable 100d3154     sf_runtime:sf_runtime.dll
 0002:00000158       __imp__sf_call_output_fcn_disable 100d3158     sf_runtime:sf_runtime.dll
 0002:0000015c       __imp__sf_mex_import_vs    100d315c     sf_runtime:sf_runtime.dll
 0002:00000160       __imp__cv_script_init_mcdc 100d3160     sf_runtime:sf_runtime.dll
 0002:00000164       __imp__cv_script_init_if   100d3164     sf_runtime:sf_runtime.dll
 0002:00000168       __imp__eml_debug_line_call 100d3168     sf_runtime:sf_runtime.dll
 0002:0000016c       __imp__sf_debug_create_debug_instance_struct 100d316c     sf_runtime:sf_runtime.dll
 0002:00000170       __imp__sf_debug_api        100d3170     sf_runtime:sf_runtime.dll
 0002:00000174       __imp__callMdlMethodAndReportError 100d3174     sf_runtime:sf_runtime.dll
 0002:00000178       __imp__call_sf_machine_global_method_dispatcher 100d3178     sf_runtime:sf_runtime.dll
 0002:0000017c       __imp__sf_clear_error_manager_info 100d317c     sf_runtime:sf_runtime.dll
 0002:00000180       __imp__sf_mex_error_direct_call 100d3180     sf_runtime:sf_runtime.dll
 0002:00000184       __imp__cv_eml_init_fcn     100d3184     sf_runtime:sf_runtime.dll
 0002:00000188       __imp__sf_mex_addfield     100d3188     sf_runtime:sf_runtime.dll
 0002:0000018c       __imp__sf_mex_createstruct 100d318c     sf_runtime:sf_runtime.dll
 0002:00000190       __imp__sf_mex_emlrtNameCapturePostProcessR2012a 100d3190     sf_runtime:sf_runtime.dll
 0002:00000194       __imp__sf_get_subchart_simstruct 100d3194     sf_runtime:sf_runtime.dll
 0002:00000198       __imp__sf_clear_rtw_identifier 100d3198     sf_runtime:sf_runtime.dll
 0002:0000019c       __imp__sf_debug_read_before_write_check 100d319c     sf_runtime:sf_runtime.dll
 0002:000001a0       __imp__sf_debug_eml_data_array_bounds_error_check 100d31a0     sf_runtime:sf_runtime.dll
 0002:000001a4       __imp__sf_debug_symbol_scope_add_importable 100d31a4     sf_runtime:sf_runtime.dll
 0002:000001a8       __imp__sf_debug_unset_instance_data_value_ptr 100d31a8     sf_runtime:sf_runtime.dll
 0002:000001ac       __imp__cv_eval_point       100d31ac     sf_runtime:sf_runtime.dll
 0002:000001b0       __imp__sf_debug_symbol_scope_push_eml 100d31b0     sf_runtime:sf_runtime.dll
 0002:000001b4       __imp__sf_debug_symbol_scope_add_eml_importable 100d31b4     sf_runtime:sf_runtime.dll
 0002:000001b8       __imp__cv_eml_eval         100d31b8     sf_runtime:sf_runtime.dll
 0002:000001bc       __imp__sf_call_output_fcn_call 100d31bc     sf_runtime:sf_runtime.dll
 0002:000001c0       __imp__sf_mex_printf       100d31c0     sf_runtime:sf_runtime.dll
 0002:000001c4       __imp__sf_mex_call_debug   100d31c4     sf_runtime:sf_runtime.dll
 0002:000001c8       __imp__sf_mex_sub          100d31c8     sf_runtime:sf_runtime.dll
 0002:000001cc       __imp__sf_debug_symbol_scope_push 100d31cc     sf_runtime:sf_runtime.dll
 0002:000001d0       __imp__sf_debug_data_range_wrapper 100d31d0     sf_runtime:sf_runtime.dll
 0002:000001d4       __imp__sf_call_output_fcn_enable 100d31d4     sf_runtime:sf_runtime.dll
 0002:000001d8       __imp__sf_get_time         100d31d8     sf_runtime:sf_runtime.dll
 0002:000001dc       __imp__sf_get_output_port_reusable 100d31dc     sf_runtime:sf_runtime.dll
 0002:000001e0       __imp__sf_debug_initialize_chart 100d31e0     sf_runtime:sf_runtime.dll
 0002:000001e4       __imp__sf_debug_set_chart_disable_implicit_casting 100d31e4     sf_runtime:sf_runtime.dll
 0002:000001e8       __imp__sf_debug_set_chart_event_thresholds 100d31e8     sf_runtime:sf_runtime.dll
 0002:000001ec       __imp__sf_debug_set_chart_data_props 100d31ec     sf_runtime:sf_runtime.dll
 0002:000001f0       __imp__sf_debug_set_chart_event_scope 100d31f0     sf_runtime:sf_runtime.dll
 0002:000001f4       __imp__sf_debug_symbol_scope_pop 100d31f4     sf_runtime:sf_runtime.dll
 0002:000001f8       __imp__sf_debug_terminate  100d31f8     sf_runtime:sf_runtime.dll
 0002:000001fc       __imp__sf_debug_check_for_state_inconsistency 100d31fc     sf_runtime:sf_runtime.dll
 0002:00000200       __imp__sf_debug_set_chart_state_info 100d3200     sf_runtime:sf_runtime.dll
 0002:00000204       __imp__sf_debug_set_chart_substate_count 100d3204     sf_runtime:sf_runtime.dll
 0002:00000208       __imp__sf_debug_set_chart_decomposition 100d3208     sf_runtime:sf_runtime.dll
 0002:0000020c       __imp__sf_debug_set_chart_state_substate_count 100d320c     sf_runtime:sf_runtime.dll
 0002:00000210       __imp__sf_debug_set_chart_substate_index 100d3210     sf_runtime:sf_runtime.dll
 0002:00000214       __imp__sf_debug_set_chart_state_substate_index 100d3214     sf_runtime:sf_runtime.dll
 0002:00000218       __imp__sf_debug_cv_init_chart 100d3218     sf_runtime:sf_runtime.dll
 0002:0000021c       __imp__sf_debug_cv_init_state 100d321c     sf_runtime:sf_runtime.dll
 0002:00000220       __imp__sf_debug_cv_init_trans 100d3220     sf_runtime:sf_runtime.dll
 0002:00000224       __imp__cv_eml_init_script  100d3224     sf_runtime:sf_runtime.dll
 0002:00000228       __imp__cv_eml_init_if      100d3228     sf_runtime:sf_runtime.dll
 0002:0000022c       __imp__sf_debug_set_chart_data_compiled_props 100d322c     sf_runtime:sf_runtime.dll
 0002:00000230       __imp__sf_debug_set_instance_data_value_ptr 100d3230     sf_runtime:sf_runtime.dll
 0002:00000234       __imp__sf_debug_reset_current_state_configuration 100d3234     sf_runtime:sf_runtime.dll
 0002:00000238       __imp__sim_mode_is_rtw_gen 100d3238     sf_runtime:sf_runtime.dll
 0002:0000023c       __imp__sim_mode_is_external 100d323c     sf_runtime:sf_runtime.dll
 0002:00000240       __imp__sf_is_chart_inlinable 100d3240     sf_runtime:sf_runtime.dll
 0002:00000244       __imp__sf_rtw_info_uint_prop 100d3244     sf_runtime:sf_runtime.dll
 0002:00000248       __imp__sf_update_buildInfo 100d3248     sf_runtime:sf_runtime.dll
 0002:0000024c       __imp__sf_mark_output_events_with_multiple_callers 100d324c     sf_runtime:sf_runtime.dll
 0002:00000250       __imp__sf_mark_chart_expressionable_inputs 100d3250     sf_runtime:sf_runtime.dll
 0002:00000254       __imp__sf_mark_chart_reusable_outputs 100d3254     sf_runtime:sf_runtime.dll
 0002:00000258       __imp__sf_set_rtw_dwork_info 100d3258     sf_runtime:sf_runtime.dll
 0002:0000025c       __imp__sf_mex_import       100d325c     sf_runtime:sf_runtime.dll
 0002:00000260       __imp__sf_debug_get_animation 100d3260     sf_runtime:sf_runtime.dll
 0002:00000264       __imp__sf_debug_set_honor_breakpoints 100d3264     sf_runtime:sf_runtime.dll
 0002:00000268       __imp__sf_debug_set_animation 100d3268     sf_runtime:sf_runtime.dll
 0002:0000026c       __imp__sf_debug_call       100d326c     sf_runtime:sf_runtime.dll
 0002:00000270       __imp__sf_debug_animate    100d3270     sf_runtime:sf_runtime.dll
 0002:00000274       __imp__sf_mex_getcell      100d3274     sf_runtime:sf_runtime.dll
 0002:00000278       __imp__sf_mex_decode_encoded_mx_struct_array 100d3278     sf_runtime:sf_runtime.dll
 0002:0000027c       __imp__sf_mex_createcellmatrix 100d327c     sf_runtime:sf_runtime.dll
 0002:00000280       __imp__sf_mex_setcell      100d3280     sf_runtime:sf_runtime.dll
 0002:00000284       __imp__sf_mex_dup          100d3284     sf_runtime:sf_runtime.dll
 0002:00000288       __imp__sf_mex_duplicatearraysafe 100d3288     sf_runtime:sf_runtime.dll
 0002:0000028c       __imp__sf_mex_destroy      100d328c     sf_runtime:sf_runtime.dll
 0002:00000290       __imp__sf_mex_call_matlab  100d3290     sf_runtime:sf_runtime.dll
 0002:00000294       __imp__sf_mex_error_message 100d3294     sf_runtime:sf_runtime.dll
 0002:00000298       __imp__sf_mex_create       100d3298     sf_runtime:sf_runtime.dll
 0002:0000029c       __imp__sf_mex_assign       100d329c     sf_runtime:sf_runtime.dll
 0002:000002a0       __imp__sf_load_rtw_optimization_info 100d32a0     sf_runtime:sf_runtime.dll
 0002:000002a4       __imp__sf_debug_initialize_machine 100d32a4     sf_runtime:sf_runtime.dll
 0002:000002a8       __imp__sf_debug_set_machine_event_thresholds 100d32a8     sf_runtime:sf_runtime.dll
 0002:000002ac       __imp__sf_debug_sub_assign_size_check_nd 100d32ac     sf_runtime:sf_runtime.dll
 0002:000002b0       __imp__sf_debug_set_machine_data_thresholds 100d32b0     sf_runtime:sf_runtime.dll
 0002:000002b4       \177sf_runtime_NULL_THUNK_DATA 100d32b4     sf_runtime:sf_runtime.dll
 0002:000002b8       ___xc_a                    100d32b8     MSVCRT:cinitexe.obj
 0002:000002bc       ___xc_z                    100d32bc     MSVCRT:cinitexe.obj
 0002:000002c0       ___xi_a                    100d32c0     MSVCRT:cinitexe.obj
 0002:000002cc       ___xi_z                    100d32cc     MSVCRT:cinitexe.obj
 0002:000002d0       __real@41ece5f308200000    100d32d0     ARP_02_RPSs_Bdr_GK_BIS2_sfun.obj
 0002:000002d8       __real@41ee3b0eb2400000    100d32d8     ARP_02_RPSs_Bdr_GK_BIS2_sfun.obj
 0002:000002e0       __real@41c73cdcad800000    100d32e0     ARP_02_RPSs_Bdr_GK_BIS2_sfun.obj
 0002:000002e8       __real@41843df800000000    100d32e8     ARP_02_RPSs_Bdr_GK_BIS2_sfun.obj
 0002:000002f0       __real@41b0fb04df000000    100d32f0     ARP_02_RPSs_Bdr_GK_BIS2_sfun.obj
 0002:000002f8       __real@41da14ed17400000    100d32f8     ARP_02_RPSs_Bdr_GK_BIS2_sfun.obj
 0002:00000300       __real@41d47f2e8cc00000    100d3300     ARP_02_RPSs_Bdr_GK_BIS2_sfun.obj
 0002:00000308       __real@41eb0e6e75400000    100d3308     ARP_02_RPSs_Bdr_GK_BIS2_sfun.obj
 0002:00000310       __real@41efe5cc79200000    100d3310     ARP_02_RPSs_Bdr_GK_BIS2_sfun.obj
 0002:00000318       __real@41cacb1d96800000    100d3318     ARP_02_RPSs_Bdr_GK_BIS2_sfun.obj
 0002:00000320       __real@41c2120b1b800000    100d3320     ARP_02_RPSs_Bdr_GK_BIS2_sfun.obj
 0002:00000328       __real@41a48a7bbc000000    100d3328     ARP_02_RPSs_Bdr_GK_BIS2_sfun.obj
 0002:00000330       __real@0000000000000000    100d3330     ARP_02_RPSs_Bdr_GK_BIS2_sfun.obj
 0002:00000338       __real@41ef97385b800000    100d3338     ARP_02_RPSs_Bdr_GK_BIS2_sfun.obj
 0002:00000340       __real@419c144a70000000    100d3340     ARP_02_RPSs_Bdr_GK_BIS2_sfun.obj
 0002:00000348       __real@41ed690613e00000    100d3348     ARP_02_RPSs_Bdr_GK_BIS2_sfun.obj
 0002:00000350       __real@41abf6f0fe000000    100d3350     ARP_02_RPSs_Bdr_GK_BIS2_sfun.obj
 0002:00000358       __real@41c7d4ed66000000    100d3358     c1_ARP_02_RPSs_Bdr_GK_BIS2.obj
 0002:00000360       __real@41df8bd0a7000000    100d3360     c1_ARP_02_RPSs_Bdr_GK_BIS2.obj
 0002:00000368       __real@41e8042542000000    100d3368     c1_ARP_02_RPSs_Bdr_GK_BIS2.obj
 0002:00000370       __real@41e553a181800000    100d3370     c1_ARP_02_RPSs_Bdr_GK_BIS2.obj
 0002:00000378       __real@4070000000000000    100d3378     c1_ARP_02_RPSs_Bdr_GK_BIS2.obj
 0002:00000380       __real@4024000000000000    100d3380     c1_ARP_02_RPSs_Bdr_GK_BIS2.obj
 0002:00000388       __real@3ff0000000000000    100d3388     c1_ARP_02_RPSs_Bdr_GK_BIS2.obj
 0002:00000390       __real@4018000000000000    100d3390     c1_ARP_02_RPSs_Bdr_GK_BIS2.obj
 0002:00000398       __real@4014000000000000    100d3398     c1_ARP_02_RPSs_Bdr_GK_BIS2.obj
 0002:000003a0       __real@4010000000000000    100d33a0     c1_ARP_02_RPSs_Bdr_GK_BIS2.obj
 0002:000003a8       __real@4008000000000000    100d33a8     c1_ARP_02_RPSs_Bdr_GK_BIS2.obj
 0002:000003b0       __real@4000000000000000    100d33b0     c1_ARP_02_RPSs_Bdr_GK_BIS2.obj
 0002:000003b8       __real@41ed3bfe59800000    100d33b8     c2_ARP_02_RPSs_Bdr_GK_BIS2.obj
 0002:000003c0       __real@419da584fc000000    100d33c0     c2_ARP_02_RPSs_Bdr_GK_BIS2.obj
 0002:000003c8       __real@41e3856f02e00000    100d33c8     c2_ARP_02_RPSs_Bdr_GK_BIS2.obj
 0002:000003d0       __real@41a27472c2000000    100d33d0     c2_ARP_02_RPSs_Bdr_GK_BIS2.obj
 0002:000003d8       __real@401c000000000000    100d33d8     c2_ARP_02_RPSs_Bdr_GK_BIS2.obj
 0002:000003e0       __real@3defffffffffffff    100d33e0     c4_ARP_02_RPSs_Bdr_GK_BIS2.obj
 0002:000003e8       __real@3e00000000200000    100d33e8     c4_ARP_02_RPSs_Bdr_GK_BIS2.obj
 0002:000003f0       __real@40b5710000000000    100d33f0     c4_ARP_02_RPSs_Bdr_GK_BIS2.obj
 0002:000003f8       __real@4036000000000000    100d33f8     c4_ARP_02_RPSs_Bdr_GK_BIS2.obj
 0002:00000400       __real@4035000000000000    100d3400     c4_ARP_02_RPSs_Bdr_GK_BIS2.obj
 0002:00000408       __real@4034000000000000    100d3408     c4_ARP_02_RPSs_Bdr_GK_BIS2.obj
 0002:00000410       __real@4033000000000000    100d3410     c4_ARP_02_RPSs_Bdr_GK_BIS2.obj
 0002:00000418       __real@4032000000000000    100d3418     c4_ARP_02_RPSs_Bdr_GK_BIS2.obj
 0002:00000420       __real@4031000000000000    100d3420     c4_ARP_02_RPSs_Bdr_GK_BIS2.obj
 0002:00000428       __real@4030000000000000    100d3428     c4_ARP_02_RPSs_Bdr_GK_BIS2.obj
 0002:00000430       __real@402e000000000000    100d3430     c4_ARP_02_RPSs_Bdr_GK_BIS2.obj
 0002:00000438       __real@402c000000000000    100d3438     c4_ARP_02_RPSs_Bdr_GK_BIS2.obj
 0002:00000440       __real@402a000000000000    100d3440     c4_ARP_02_RPSs_Bdr_GK_BIS2.obj
 0002:00000448       __real@4028000000000000    100d3448     c4_ARP_02_RPSs_Bdr_GK_BIS2.obj
 0002:00000450       __real@4026000000000000    100d3450     c4_ARP_02_RPSs_Bdr_GK_BIS2.obj
 0002:00000458       __real@4022000000000000    100d3458     c4_ARP_02_RPSs_Bdr_GK_BIS2.obj
 0002:00000460       __real@4020000000000000    100d3460     c4_ARP_02_RPSs_Bdr_GK_BIS2.obj
 0002:00000468       __real@405b000000000000    100d3468     c4_ARP_02_RPSs_Bdr_GK_BIS2.obj
 0002:00000470       __real@405a000000000000    100d3470     c4_ARP_02_RPSs_Bdr_GK_BIS2.obj
 0002:00000478       __real@405a800000000000    100d3478     c4_ARP_02_RPSs_Bdr_GK_BIS2.obj
 0002:00000480       __real@4062a00000000000    100d3480     c4_ARP_02_RPSs_Bdr_GK_BIS2.obj
 0002:00000488       __real@4056c00000000000    100d3488     c4_ARP_02_RPSs_Bdr_GK_BIS2.obj
 0002:00000490       __real@405a400000000000    100d3490     c4_ARP_02_RPSs_Bdr_GK_BIS2.obj
 0002:00000498       __real@4057400000000000    100d3498     c4_ARP_02_RPSs_Bdr_GK_BIS2.obj
 0002:000004a0       __real@4057000000000000    100d34a0     c4_ARP_02_RPSs_Bdr_GK_BIS2.obj
 0002:000004a8       __real@405b400000000000    100d34a8     c4_ARP_02_RPSs_Bdr_GK_BIS2.obj
 0002:000004b0       __real@405ac00000000000    100d34b0     c4_ARP_02_RPSs_Bdr_GK_BIS2.obj
 0002:000004b8       __real@405cc00000000000    100d34b8     c4_ARP_02_RPSs_Bdr_GK_BIS2.obj
 0002:000004c0       __real@4061200000000000    100d34c0     c4_ARP_02_RPSs_Bdr_GK_BIS2.obj
 0002:000004c8       __real@4061800000000000    100d34c8     c4_ARP_02_RPSs_Bdr_GK_BIS2.obj
 0002:000004d0       __real@4061600000000000    100d34d0     c4_ARP_02_RPSs_Bdr_GK_BIS2.obj
 0002:000004d8       __real@41f0000000000000    100d34d8     c4_ARP_02_RPSs_Bdr_GK_BIS2.obj
 0002:000004e0       __real@3ca0000000000000    100d34e0     c4_ARP_02_RPSs_Bdr_GK_BIS2.obj
 0002:000004e8       __real@4190000000000000    100d34e8     c4_ARP_02_RPSs_Bdr_GK_BIS2.obj
 0002:000004f0       __real@406c800000000000    100d34f0     c4_ARP_02_RPSs_Bdr_GK_BIS2.obj
 0002:000004f8       __real@4078d00000000000    100d34f8     c4_ARP_02_RPSs_Bdr_GK_BIS2.obj
 0002:00000500       __real@4083880000000000    100d3500     c4_ARP_02_RPSs_Bdr_GK_BIS2.obj
 0002:00000508       __real@41b2e5e2f1000000    100d3508     c4_ARP_02_RPSs_Bdr_GK_BIS2.obj
 0002:00000510       __real@41de9f3c55400000    100d3510     c4_ARP_02_RPSs_Bdr_GK_BIS2.obj
 0002:00000518       __real@41e588ce16800000    100d3518     c4_ARP_02_RPSs_Bdr_GK_BIS2.obj
 0002:00000520       __real@41d855512a000000    100d3520     c4_ARP_02_RPSs_Bdr_GK_BIS2.obj
 0002:00000528       __real@4058400000000000    100d3528     c5_ARP_02_RPSs_Bdr_GK_BIS2.obj
 0002:00000530       __real@4051000000000000    100d3530     c5_ARP_02_RPSs_Bdr_GK_BIS2.obj
 0002:00000538       __real@4055c00000000000    100d3538     c5_ARP_02_RPSs_Bdr_GK_BIS2.obj
 0002:00000540       __real@4062000000000000    100d3540     c5_ARP_02_RPSs_Bdr_GK_BIS2.obj
 0002:00000548       __real@405fc00000000000    100d3548     c5_ARP_02_RPSs_Bdr_GK_BIS2.obj
 0002:00000550       __real@405f400000000000    100d3550     c5_ARP_02_RPSs_Bdr_GK_BIS2.obj
 0002:00000558       __real@4056000000000000    100d3558     c5_ARP_02_RPSs_Bdr_GK_BIS2.obj
 0002:00000560       __real@4055800000000000    100d3560     c5_ARP_02_RPSs_Bdr_GK_BIS2.obj
 0002:00000568       __real@4064200000000000    100d3568     c5_ARP_02_RPSs_Bdr_GK_BIS2.obj
 0002:00000570       __real@4063a00000000000    100d3570     c5_ARP_02_RPSs_Bdr_GK_BIS2.obj
 0002:00000578       __real@4057800000000000    100d3578     c5_ARP_02_RPSs_Bdr_GK_BIS2.obj
 0002:00000580       __real@4057c00000000000    100d3580     c5_ARP_02_RPSs_Bdr_GK_BIS2.obj
 0002:00000588       __real@41ca5f456a000000    100d3588     c5_ARP_02_RPSs_Bdr_GK_BIS2.obj
 0002:00000590       __real@41a402a4aa000000    100d3590     c5_ARP_02_RPSs_Bdr_GK_BIS2.obj
 0002:00000598       __real@41db2635ac800000    100d3598     c5_ARP_02_RPSs_Bdr_GK_BIS2.obj
 0002:000005a0       __real@41a42250b0000000    100d35a0     c5_ARP_02_RPSs_Bdr_GK_BIS2.obj
 0002:000005a8       __real@41dc391bbfc00000    100d35a8     c8_ARP_02_RPSs_Bdr_GK_BIS2.obj
 0002:000005b0       __real@41ea4c5d87600000    100d35b0     c8_ARP_02_RPSs_Bdr_GK_BIS2.obj
 0002:000005b8       __real@41e7618722a00000    100d35b8     c8_ARP_02_RPSs_Bdr_GK_BIS2.obj
 0002:000005c0       __real@41e8f6cb4fe00000    100d35c0     c8_ARP_02_RPSs_Bdr_GK_BIS2.obj
 0002:000005c8       __real@4044000000000000    100d35c8     c9_ARP_02_RPSs_Bdr_GK_BIS2.obj
 0002:000005d0       __real@4060a00000000000    100d35d0     c9_ARP_02_RPSs_Bdr_GK_BIS2.obj
 0002:000005d8       __real@4039000000000000    100d35d8     c9_ARP_02_RPSs_Bdr_GK_BIS2.obj
 0002:000005e0       __real@4004000000000000    100d35e0     c9_ARP_02_RPSs_Bdr_GK_BIS2.obj
 0002:000005e8       __real@c01b99999999999a    100d35e8     c9_ARP_02_RPSs_Bdr_GK_BIS2.obj
 0002:000005f0       __real@402f666666666666    100d35f0     c9_ARP_02_RPSs_Bdr_GK_BIS2.obj
 0002:000005f8       __real@4059000000000000    100d35f8     c9_ARP_02_RPSs_Bdr_GK_BIS2.obj
 0002:00000600       __real@408f380000000000    100d3600     c9_ARP_02_RPSs_Bdr_GK_BIS2.obj
 0002:00000608       __real@4060800000000000    100d3608     c9_ARP_02_RPSs_Bdr_GK_BIS2.obj
 0002:00000610       __real@405f000000000000    100d3610     c9_ARP_02_RPSs_Bdr_GK_BIS2.obj
 0002:00000618       __real@405d000000000000    100d3618     c9_ARP_02_RPSs_Bdr_GK_BIS2.obj
 0002:00000620       __real@4058c00000000000    100d3620     c9_ARP_02_RPSs_Bdr_GK_BIS2.obj
 0002:00000628       __real@4052c00000000000    100d3628     c9_ARP_02_RPSs_Bdr_GK_BIS2.obj
 0002:00000630       __real@4052800000000000    100d3630     c9_ARP_02_RPSs_Bdr_GK_BIS2.obj
 0002:00000638       __real@4049000000000000    100d3638     c9_ARP_02_RPSs_Bdr_GK_BIS2.obj
 0002:00000640       __real@4048800000000000    100d3640     c9_ARP_02_RPSs_Bdr_GK_BIS2.obj
 0002:00000648       __real@4038000000000000    100d3648     c9_ARP_02_RPSs_Bdr_GK_BIS2.obj
 0002:00000650       __real@4037000000000000    100d3650     c9_ARP_02_RPSs_Bdr_GK_BIS2.obj
 0002:00000658       __real@4061400000000000    100d3658     c9_ARP_02_RPSs_Bdr_GK_BIS2.obj
 0002:00000660       __real@405d800000000000    100d3660     c9_ARP_02_RPSs_Bdr_GK_BIS2.obj
 0002:00000668       __real@405dc00000000000    100d3668     c9_ARP_02_RPSs_Bdr_GK_BIS2.obj
 0002:00000670       __real@4061000000000000    100d3670     c9_ARP_02_RPSs_Bdr_GK_BIS2.obj
 0002:00000678       __real@405e000000000000    100d3678     c9_ARP_02_RPSs_Bdr_GK_BIS2.obj
 0002:00000680       __real@4060e00000000000    100d3680     c9_ARP_02_RPSs_Bdr_GK_BIS2.obj
 0002:00000688       __real@405e400000000000    100d3688     c9_ARP_02_RPSs_Bdr_GK_BIS2.obj
 0002:00000690       __real@4060c00000000000    100d3690     c9_ARP_02_RPSs_Bdr_GK_BIS2.obj
 0002:00000698       __real@405e800000000000    100d3698     c9_ARP_02_RPSs_Bdr_GK_BIS2.obj
 0002:000006a0       __real@405ec00000000000    100d36a0     c9_ARP_02_RPSs_Bdr_GK_BIS2.obj
 0002:000006a8       __real@4060000000000000    100d36a8     c9_ARP_02_RPSs_Bdr_GK_BIS2.obj
 0002:000006b0       __real@4061a00000000000    100d36b0     c9_ARP_02_RPSs_Bdr_GK_BIS2.obj
 0002:000006b8       __real@406dc00000000000    100d36b8     c9_ARP_02_RPSs_Bdr_GK_BIS2.obj
 0002:000006c0       __real@4062e00000000000    100d36c0     c9_ARP_02_RPSs_Bdr_GK_BIS2.obj
 0002:000006c8       __real@406f600000000000    100d36c8     c9_ARP_02_RPSs_Bdr_GK_BIS2.obj
 0002:000006d0       __real@4051c00000000000    100d36d0     c9_ARP_02_RPSs_Bdr_GK_BIS2.obj
 0002:000006d8       __real@4067200000000000    100d36d8     c9_ARP_02_RPSs_Bdr_GK_BIS2.obj
 0002:000006e0       __real@406da00000000000    100d36e0     c9_ARP_02_RPSs_Bdr_GK_BIS2.obj
 0002:000006e8       __real@405c800000000000    100d36e8     c9_ARP_02_RPSs_Bdr_GK_BIS2.obj
 0002:000006f0       __real@4061c00000000000    100d36f0     c9_ARP_02_RPSs_Bdr_GK_BIS2.obj
 0002:000006f8       __real@405c400000000000    100d36f8     c9_ARP_02_RPSs_Bdr_GK_BIS2.obj
 0002:00000700       __real@4061e00000000000    100d3700     c9_ARP_02_RPSs_Bdr_GK_BIS2.obj
 0002:00000708       __real@4065200000000000    100d3708     c9_ARP_02_RPSs_Bdr_GK_BIS2.obj
 0002:00000710       __real@405d400000000000    100d3710     c9_ARP_02_RPSs_Bdr_GK_BIS2.obj
 0002:00000718       __real@41ee9f9631200000    100d3718     c9_ARP_02_RPSs_Bdr_GK_BIS2.obj
 0002:00000720       __real@41e42f0841e00000    100d3720     c9_ARP_02_RPSs_Bdr_GK_BIS2.obj
 0002:00000728       __real@41d136c73a400000    100d3728     c9_ARP_02_RPSs_Bdr_GK_BIS2.obj
 0002:00000730       __real@41ee7585d5a00000    100d3730     c9_ARP_02_RPSs_Bdr_GK_BIS2.obj
 0002:00000738       __real@406b400000000000    100d3738     c10_ARP_02_RPSs_Bdr_GK_BIS2.obj
 0002:00000740       __real@406b000000000000    100d3740     c10_ARP_02_RPSs_Bdr_GK_BIS2.obj
 0002:00000748       __real@41ccf69af6800000    100d3748     c10_ARP_02_RPSs_Bdr_GK_BIS2.obj
 0002:00000750       __real@41d6c14e60000000    100d3750     c10_ARP_02_RPSs_Bdr_GK_BIS2.obj
 0002:00000758       __real@41eec115a7200000    100d3758     c10_ARP_02_RPSs_Bdr_GK_BIS2.obj
 0002:00000760       __real@41eb9608e4e00000    100d3760     c10_ARP_02_RPSs_Bdr_GK_BIS2.obj
 0002:00000768       __real@406bc00000000000    100d3768     c11_ARP_02_RPSs_Bdr_GK_BIS2.obj
 0002:00000770       __real@41da0a4e21400000    100d3770     c11_ARP_02_RPSs_Bdr_GK_BIS2.obj
 0002:00000778       __real@41e2e2cc5b200000    100d3778     c11_ARP_02_RPSs_Bdr_GK_BIS2.obj
 0002:00000780       __real@41cc2398cb800000    100d3780     c11_ARP_02_RPSs_Bdr_GK_BIS2.obj
 0002:00000788       __real@41d6e4f53c800000    100d3788     c11_ARP_02_RPSs_Bdr_GK_BIS2.obj
 0002:00000790       __real@41b5434682000000    100d3790     c12_ARP_02_RPSs_Bdr_GK_BIS2.obj
 0002:00000798       __real@41ea153349000000    100d3798     c12_ARP_02_RPSs_Bdr_GK_BIS2.obj
 0002:000007a0       __real@41c2f3f8b2800000    100d37a0     c12_ARP_02_RPSs_Bdr_GK_BIS2.obj
 0002:000007a8       __real@41e9add561000000    100d37a8     c12_ARP_02_RPSs_Bdr_GK_BIS2.obj
 0002:000007b0       __real@c02e000000000000    100d37b0     c12_ARP_02_RPSs_Bdr_GK_BIS2.obj
 0002:000007b8       __real@41e75e156b200000    100d37b8     c13_ARP_02_RPSs_Bdr_GK_BIS2.obj
 0002:000007c0       __real@41d1e8b035800000    100d37c0     c13_ARP_02_RPSs_Bdr_GK_BIS2.obj
 0002:000007c8       __real@41d925a180c00000    100d37c8     c13_ARP_02_RPSs_Bdr_GK_BIS2.obj
 0002:000007d0       __real@41e1321458200000    100d37d0     c13_ARP_02_RPSs_Bdr_GK_BIS2.obj
 0002:000007d8       __real@bff0000000000000    100d37d8     c13_ARP_02_RPSs_Bdr_GK_BIS2.obj
 0002:000007e0       __real@41e0a4d6fec00000    100d37e0     c14_ARP_02_RPSs_Bdr_GK_BIS2.obj
 0002:000007e8       __real@41ecd666ce800000    100d37e8     c14_ARP_02_RPSs_Bdr_GK_BIS2.obj
 0002:000007f0       __real@41aaaf8d7c000000    100d37f0     c14_ARP_02_RPSs_Bdr_GK_BIS2.obj
 0002:000007f8       __real@41e9ae54cce00000    100d37f8     c14_ARP_02_RPSs_Bdr_GK_BIS2.obj
 0002:00000800       _DYNAMIC_DIMENSION_DEF     100d3800     ARP_02_RPSs_Bdr_GK_BIS2_sfun_registry.obj
 0002:00000810       __ssBadLevel2InputAccessMsg 100d3810     ARP_02_RPSs_Bdr_GK_BIS2_sfun_registry.obj
 0002:00000998       __ssBadLevel2DirectFeedMsg 100d3998     ARP_02_RPSs_Bdr_GK_BIS2_sfun_registry.obj
 0002:00000ad8       __ssBadLevel2DirectFeedSolutionMsg 100d3ad8     ARP_02_RPSs_Bdr_GK_BIS2_sfun_registry.obj
 0002:00000b48       __ssBadLevel2ZeroDirectFeedMsg 100d3b48     ARP_02_RPSs_Bdr_GK_BIS2_sfun_registry.obj
 0002:00000c88       __ssBadLevel2ZeroDirectFeedMsg2 100d3c88     ARP_02_RPSs_Bdr_GK_BIS2_sfun_registry.obj
 0002:00000d70       __real@4153d65940000000    100d3d70     ARP_02_RPSs_Bdr_GK_BIS2_sfun_registry.obj
 0002:00000d78       __pDefaultRawDllMain       100d3d78     MSVCRT:crtdll.obj
 0002:00000d78       __pRawDllMain              100d3d78     MSVCRT:crtdll.obj
 0002:00000d84       ?ProcessDetach@NativeDll@<CrtImplementationDetails>@@0IB 100d3d84     MSVCRT:tncleanup.obj
 0002:00000d88       ?ProcessAttach@NativeDll@<CrtImplementationDetails>@@0IB 100d3d88     MSVCRT:tncleanup.obj
 0002:00000d8c       ?ThreadAttach@NativeDll@<CrtImplementationDetails>@@0IB 100d3d8c     MSVCRT:tncleanup.obj
 0002:00000d90       ?ThreadDetach@NativeDll@<CrtImplementationDetails>@@0IB 100d3d90     MSVCRT:tncleanup.obj
 0002:00000d94       ?ProcessVerifier@NativeDll@<CrtImplementationDetails>@@0IB 100d3d94     MSVCRT:tncleanup.obj
 0002:00000d98       __load_config_used         100d3d98     MSVCRT:loadcfg.obj
 0002:00000de0       ___safe_se_handler_table   100d3de0     <linker-defined>
 0002:00000de4       ___rtc_iaa                 100d3de4     MSVCRT:_initsect_.obj
 0002:00000de8       ___rtc_izz                 100d3de8     MSVCRT:_initsect_.obj
 0002:00000dec       ___rtc_taa                 100d3dec     MSVCRT:_initsect_.obj
 0002:00000df0       ___rtc_tzz                 100d3df0     MSVCRT:_initsect_.obj
 0002:00000e5c       __IMPORT_DESCRIPTOR_sf_runtime 100d3e5c     sf_runtime:sf_runtime.dll
 0002:00000e70       __IMPORT_DESCRIPTOR_libmx  100d3e70     libmx:libmx.dll
 0002:00000e84       __IMPORT_DESCRIPTOR_libmex 100d3e84     libmex:libmex.dll
 0002:00000e98       __IMPORT_DESCRIPTOR_libut  100d3e98     libut:libut.dll
 0002:00000eac       __IMPORT_DESCRIPTOR_libmwmathutil 100d3eac     libmwmathutil:libmwmathutil.dll
 0002:00000ec0       __IMPORT_DESCRIPTOR_MSVCR100 100d3ec0     MSVCRT:MSVCR100.dll
 0002:00000ed4       __IMPORT_DESCRIPTOR_KERNEL32 100d3ed4     kernel32:KERNEL32.dll
 0002:00000ee8       __NULL_IMPORT_DESCRIPTOR   100d3ee8     sf_runtime:sf_runtime.dll
 0003:0004027c       _DYNAMIC_DIMENSION         1011627c     ARP_02_RPSs_Bdr_GK_BIS2_sfun_registry.obj
 0003:00040e08       ___security_cookie         10116e08     MSVCRT:gs_cookie.obj
 0003:00040e0c       ___security_cookie_complement 10116e0c     MSVCRT:gs_cookie.obj
 0003:00040e10       ___native_dllmain_reason   10116e10     MSVCRT:natstart.obj
 0003:00040e14       ___native_vcclrit_reason   10116e14     MSVCRT:natstart.obj
 0003:00041028       _sfGlobalDebugInstanceStruct 10117028     ARP_02_RPSs_Bdr_GK_BIS2_sfun_registry.obj
 0003:0004135c       ?__type_info_root_node@@3U__type_info_node@@A 1011735c     MSVCRT:tncleanup.obj
 0003:00041364       __ARP_02_RPSs_Bdr_GK_BIS2MachineNumber_ 10117364     <common>
 0003:00041368       ___native_startup_state    10117368     <common>
 0003:0004136c       ___native_startup_lock     1011736c     <common>
 0003:00041370       ___onexitend               10117370     <common>
 0003:00041374       ___onexitbegin             10117374     <common>
 0003:00041378       ___sse2_available          10117378     <common>
 0003:0004137c       ___dyn_tls_init_callback   1011737c     <common>

 entry point at        0001:000d157f

 Static symbols

 0001:000053d0       _get_sim_state_c1_ARP_02_RPSs_Bdr_GK_BIS2 100063d0 f   c1_ARP_02_RPSs_Bdr_GK_BIS2.obj
 0001:000054d0       _c1_emlrt_marshallOut      100064d0 f   c1_ARP_02_RPSs_Bdr_GK_BIS2.obj
 0001:00007550       _c1_get_BML                10008550 f   c1_ARP_02_RPSs_Bdr_GK_BIS2.obj
 0001:000075e0       _c1_get_BORED              100085e0 f   c1_ARP_02_RPSs_Bdr_GK_BIS2.obj
 0001:00007670       _c1_get_BOREDOM_THRESHOLD  10008670 f   c1_ARP_02_RPSs_Bdr_GK_BIS2.obj
 0001:00007700       _c1_get_CONTEMPT           10008700 f   c1_ARP_02_RPSs_Bdr_GK_BIS2.obj
 0001:00007790       _c1_get_EXCITE             10008790 f   c1_ARP_02_RPSs_Bdr_GK_BIS2.obj
 0001:00007820       _c1_get_FEAR               10008820 f   c1_ARP_02_RPSs_Bdr_GK_BIS2.obj
 0001:000078b0       _c1_get_FRUST              100088b0 f   c1_ARP_02_RPSs_Bdr_GK_BIS2.obj
 0001:00007940       _c1_get_GAZE_GUI           10008940 f   c1_ARP_02_RPSs_Bdr_GK_BIS2.obj
 0001:000079d0       _c1_get_GAZE_SHOFTEYE      100089d0 f   c1_ARP_02_RPSs_Bdr_GK_BIS2.obj
 0001:00007a60       _c1_get_GAZE_USER_HAND     10008a60 f   c1_ARP_02_RPSs_Bdr_GK_BIS2.obj
 0001:00007af0       _c1_get_GAZE_WIN           10008af0 f   c1_ARP_02_RPSs_Bdr_GK_BIS2.obj
 0001:00007b80       _c1_get_HAPPY              10008b80 f   c1_ARP_02_RPSs_Bdr_GK_BIS2.obj
 0001:00007c10       _c1_get_IDLE               10008c10 f   c1_ARP_02_RPSs_Bdr_GK_BIS2.obj
 0001:00007ca0       _c1_get_SAD                10008ca0 f   c1_ARP_02_RPSs_Bdr_GK_BIS2.obj
 0001:00007d30       _c1_get_STATE_BEFORE       10008d30 f   c1_ARP_02_RPSs_Bdr_GK_BIS2.obj
 0001:00007dc0       _c1_get_STATE_GO           10008dc0 f   c1_ARP_02_RPSs_Bdr_GK_BIS2.obj
 0001:00007e50       _c1_get_STATE_HAND         10008e50 f   c1_ARP_02_RPSs_Bdr_GK_BIS2.obj
 0001:00007ee0       _c1_get_STATE_OVER         10008ee0 f   c1_ARP_02_RPSs_Bdr_GK_BIS2.obj
 0001:00007f70       _c1_get_STATE_READY        10008f70 f   c1_ARP_02_RPSs_Bdr_GK_BIS2.obj
 0001:00008000       _c1_get_STATE_RESULT       10009000 f   c1_ARP_02_RPSs_Bdr_GK_BIS2.obj
 0001:00008090       _c1_get_STATE_WAITE        10009090 f   c1_ARP_02_RPSs_Bdr_GK_BIS2.obj
 0001:00008120       _c1_get_avert              10009120 f   c1_ARP_02_RPSs_Bdr_GK_BIS2.obj
 0001:000081b0       _c1_get_bHand              100091b0 f   c1_ARP_02_RPSs_Bdr_GK_BIS2.obj
 0001:00008240       _c1_get_boredom            10009240 f   c1_ARP_02_RPSs_Bdr_GK_BIS2.obj
 0001:000082d0       _c1_get_diff               100092d0 f   c1_ARP_02_RPSs_Bdr_GK_BIS2.obj
 0001:00008360       _c1_get_gazing             10009360 f   c1_ARP_02_RPSs_Bdr_GK_BIS2.obj
 0001:000083f0       _c1_get_interest           100093f0 f   c1_ARP_02_RPSs_Bdr_GK_BIS2.obj
 0001:00008480       _c1_get_p                  10009480 f   c1_ARP_02_RPSs_Bdr_GK_BIS2.obj
 0001:00008510       _c1_get_pr                 10009510 f   c1_ARP_02_RPSs_Bdr_GK_BIS2.obj
 0001:000085a0       _c1_get_r                  100095a0 f   c1_ARP_02_RPSs_Bdr_GK_BIS2.obj
 0001:00008630       _c1_get_randAvertGazeChance 10009630 f   c1_ARP_02_RPSs_Bdr_GK_BIS2.obj
 0001:000086c0       _c1_get_randGazeDur        100096c0 f   c1_ARP_02_RPSs_Bdr_GK_BIS2.obj
 0001:00008750       _c1_get_randPoseChance     10009750 f   c1_ARP_02_RPSs_Bdr_GK_BIS2.obj
 0001:000087e0       _c1_get_randSlowPose       100097e0 f   c1_ARP_02_RPSs_Bdr_GK_BIS2.obj
 0001:00008870       _c1_get_randSmile          10009870 f   c1_ARP_02_RPSs_Bdr_GK_BIS2.obj
 0001:00008900       _c1_get_s                  10009900 f   c1_ARP_02_RPSs_Bdr_GK_BIS2.obj
 0001:00008990       _c1_get_temp               10009990 f   c1_ARP_02_RPSs_Bdr_GK_BIS2.obj
 0001:00008a20       _c1_get_uHand              10009a20 f   c1_ARP_02_RPSs_Bdr_GK_BIS2.obj
 0001:00008ab0       _sf_get_sim_state_info_c1_ARP_02_RPSs_Bdr_GK_BIS2 10009ab0 f   c1_ARP_02_RPSs_Bdr_GK_BIS2.obj
 0001:00008c50       _set_sim_state_c1_ARP_02_RPSs_Bdr_GK_BIS2 10009c50 f   c1_ARP_02_RPSs_Bdr_GK_BIS2.obj
 0001:00009df0       _c1_update_debugger_state_c1_ARP_02_RPSs_Bdr_GK_BIS2 1000adf0 f   c1_ARP_02_RPSs_Bdr_GK_BIS2.obj
 0001:0000a990       _c1_emlrt_marshallIn       1000b990 f   c1_ARP_02_RPSs_Bdr_GK_BIS2.obj
 0001:0000a9e0       _c1_b_emlrt_marshallIn     1000b9e0 f   c1_ARP_02_RPSs_Bdr_GK_BIS2.obj
 0001:0000aa30       _c1_f_emlrt_marshallIn     1000ba30 f   c1_ARP_02_RPSs_Bdr_GK_BIS2.obj
 0001:0000aa80       _c1_g_emlrt_marshallIn     1000ba80 f   c1_ARP_02_RPSs_Bdr_GK_BIS2.obj
 0001:0000aad0       _c1_h_emlrt_marshallIn     1000bad0 f   c1_ARP_02_RPSs_Bdr_GK_BIS2.obj
 0001:0000ab20       _c1_i_emlrt_marshallIn     1000bb20 f   c1_ARP_02_RPSs_Bdr_GK_BIS2.obj
 0001:0000abb0       _c1_j_emlrt_marshallIn     1000bbb0 f   c1_ARP_02_RPSs_Bdr_GK_BIS2.obj
 0001:0000ac10       _c1_k_emlrt_marshallIn     1000bc10 f   c1_ARP_02_RPSs_Bdr_GK_BIS2.obj
 0001:0000ac50       _c1_set_BML                1000bc50 f   c1_ARP_02_RPSs_Bdr_GK_BIS2.obj
 0001:0000ace0       _c1_set_BORED              1000bce0 f   c1_ARP_02_RPSs_Bdr_GK_BIS2.obj
 0001:0000ad70       _c1_set_BOREDOM_THRESHOLD  1000bd70 f   c1_ARP_02_RPSs_Bdr_GK_BIS2.obj
 0001:0000ae00       _c1_set_CONTEMPT           1000be00 f   c1_ARP_02_RPSs_Bdr_GK_BIS2.obj
 0001:0000ae90       _c1_set_EXCITE             1000be90 f   c1_ARP_02_RPSs_Bdr_GK_BIS2.obj
 0001:0000af20       _c1_set_FEAR               1000bf20 f   c1_ARP_02_RPSs_Bdr_GK_BIS2.obj
 0001:0000afb0       _c1_set_FRUST              1000bfb0 f   c1_ARP_02_RPSs_Bdr_GK_BIS2.obj
 0001:0000b040       _c1_set_GAZE_GUI           1000c040 f   c1_ARP_02_RPSs_Bdr_GK_BIS2.obj
 0001:0000b0d0       _c1_set_GAZE_SHOFTEYE      1000c0d0 f   c1_ARP_02_RPSs_Bdr_GK_BIS2.obj
 0001:0000b160       _c1_set_GAZE_USER_HAND     1000c160 f   c1_ARP_02_RPSs_Bdr_GK_BIS2.obj
 0001:0000b1f0       _c1_set_GAZE_WIN           1000c1f0 f   c1_ARP_02_RPSs_Bdr_GK_BIS2.obj
 0001:0000b280       _c1_set_HAPPY              1000c280 f   c1_ARP_02_RPSs_Bdr_GK_BIS2.obj
 0001:0000b310       _c1_set_IDLE               1000c310 f   c1_ARP_02_RPSs_Bdr_GK_BIS2.obj
 0001:0000b3a0       _c1_set_SAD                1000c3a0 f   c1_ARP_02_RPSs_Bdr_GK_BIS2.obj
 0001:0000b430       _c1_set_STATE_BEFORE       1000c430 f   c1_ARP_02_RPSs_Bdr_GK_BIS2.obj
 0001:0000b4c0       _c1_set_STATE_GO           1000c4c0 f   c1_ARP_02_RPSs_Bdr_GK_BIS2.obj
 0001:0000b550       _c1_set_STATE_HAND         1000c550 f   c1_ARP_02_RPSs_Bdr_GK_BIS2.obj
 0001:0000b5e0       _c1_set_STATE_OVER         1000c5e0 f   c1_ARP_02_RPSs_Bdr_GK_BIS2.obj
 0001:0000b670       _c1_set_STATE_READY        1000c670 f   c1_ARP_02_RPSs_Bdr_GK_BIS2.obj
 0001:0000b700       _c1_set_STATE_RESULT       1000c700 f   c1_ARP_02_RPSs_Bdr_GK_BIS2.obj
 0001:0000b790       _c1_set_STATE_WAITE        1000c790 f   c1_ARP_02_RPSs_Bdr_GK_BIS2.obj
 0001:0000b820       _c1_set_avert              1000c820 f   c1_ARP_02_RPSs_Bdr_GK_BIS2.obj
 0001:0000b8b0       _c1_set_bHand              1000c8b0 f   c1_ARP_02_RPSs_Bdr_GK_BIS2.obj
 0001:0000b940       _c1_set_boredom            1000c940 f   c1_ARP_02_RPSs_Bdr_GK_BIS2.obj
 0001:0000b9d0       _c1_set_diff               1000c9d0 f   c1_ARP_02_RPSs_Bdr_GK_BIS2.obj
 0001:0000ba60       _c1_set_gazing             1000ca60 f   c1_ARP_02_RPSs_Bdr_GK_BIS2.obj
 0001:0000baf0       _c1_set_interest           1000caf0 f   c1_ARP_02_RPSs_Bdr_GK_BIS2.obj
 0001:0000bb80       _c1_set_p                  1000cb80 f   c1_ARP_02_RPSs_Bdr_GK_BIS2.obj
 0001:0000bc10       _c1_set_pr                 1000cc10 f   c1_ARP_02_RPSs_Bdr_GK_BIS2.obj
 0001:0000bca0       _c1_set_r                  1000cca0 f   c1_ARP_02_RPSs_Bdr_GK_BIS2.obj
 0001:0000bd30       _c1_set_randAvertGazeChance 1000cd30 f   c1_ARP_02_RPSs_Bdr_GK_BIS2.obj
 0001:0000bdc0       _c1_set_randGazeDur        1000cdc0 f   c1_ARP_02_RPSs_Bdr_GK_BIS2.obj
 0001:0000be50       _c1_set_randPoseChance     1000ce50 f   c1_ARP_02_RPSs_Bdr_GK_BIS2.obj
 0001:0000bee0       _c1_set_randSlowPose       1000cee0 f   c1_ARP_02_RPSs_Bdr_GK_BIS2.obj
 0001:0000bf70       _c1_set_randSmile          1000cf70 f   c1_ARP_02_RPSs_Bdr_GK_BIS2.obj
 0001:0000c000       _c1_set_s                  1000d000 f   c1_ARP_02_RPSs_Bdr_GK_BIS2.obj
 0001:0000c090       _c1_set_temp               1000d090 f   c1_ARP_02_RPSs_Bdr_GK_BIS2.obj
 0001:0000c120       _c1_set_uHand              1000d120 f   c1_ARP_02_RPSs_Bdr_GK_BIS2.obj
 0001:0000c210       _mdlProcessParameters_c1_ARP_02_RPSs_Bdr_GK_BIS2 1000d210 f   c1_ARP_02_RPSs_Bdr_GK_BIS2.obj
 0001:0000c2c0       _initialize_params_c1_ARP_02_RPSs_Bdr_GK_BIS2 1000d2c0 f   c1_ARP_02_RPSs_Bdr_GK_BIS2.obj
 0001:0000c2d0       _mdlSetWorkWidths_c1_ARP_02_RPSs_Bdr_GK_BIS2 1000d2d0 f   c1_ARP_02_RPSs_Bdr_GK_BIS2.obj
 0001:0000c770       _sf_get_instance_specialization 1000d770 f   c1_ARP_02_RPSs_Bdr_GK_BIS2.obj
 0001:0000c780       _mdlStart_c1_ARP_02_RPSs_Bdr_GK_BIS2 1000d780 f   c1_ARP_02_RPSs_Bdr_GK_BIS2.obj
 0001:0000c920       _init_dsm_address_info     1000d920 f   c1_ARP_02_RPSs_Bdr_GK_BIS2.obj
 0001:0000dc80       _chart_debug_initialization 1000ec80 f   c1_ARP_02_RPSs_Bdr_GK_BIS2.obj
 0001:00011760       _init_script_number_translation 10012760 f   c1_ARP_02_RPSs_Bdr_GK_BIS2.obj
 0001:00011770       _c1_sf_marshallOut         10012770 f   c1_ARP_02_RPSs_Bdr_GK_BIS2.obj
 0001:000117f0       _c1_sf_marshallIn          100127f0 f   c1_ARP_02_RPSs_Bdr_GK_BIS2.obj
 0001:00011870       _c1_f_sf_marshallOut       10012870 f   c1_ARP_02_RPSs_Bdr_GK_BIS2.obj
 0001:000119a0       _c1_f_sf_marshallIn        100129a0 f   c1_ARP_02_RPSs_Bdr_GK_BIS2.obj
 0001:00011a60       _sf_opaque_initialize_c1_ARP_02_RPSs_Bdr_GK_BIS2 10012a60 f   c1_ARP_02_RPSs_Bdr_GK_BIS2.obj
 0001:00011a90       _initialize_c1_ARP_02_RPSs_Bdr_GK_BIS2 10012a90 f   c1_ARP_02_RPSs_Bdr_GK_BIS2.obj
 0001:00012120       _sf_opaque_enable_c1_ARP_02_RPSs_Bdr_GK_BIS2 10013120 f   c1_ARP_02_RPSs_Bdr_GK_BIS2.obj
 0001:00012140       _enable_c1_ARP_02_RPSs_Bdr_GK_BIS2 10013140 f   c1_ARP_02_RPSs_Bdr_GK_BIS2.obj
 0001:00012290       _sf_opaque_disable_c1_ARP_02_RPSs_Bdr_GK_BIS2 10013290 f   c1_ARP_02_RPSs_Bdr_GK_BIS2.obj
 0001:000122b0       _disable_c1_ARP_02_RPSs_Bdr_GK_BIS2 100132b0 f   c1_ARP_02_RPSs_Bdr_GK_BIS2.obj
 0001:00012400       _sf_opaque_gateway_c1_ARP_02_RPSs_Bdr_GK_BIS2 10013400 f   c1_ARP_02_RPSs_Bdr_GK_BIS2.obj
 0001:00012420       _sf_gateway_c1_ARP_02_RPSs_Bdr_GK_BIS2 10013420 f   c1_ARP_02_RPSs_Bdr_GK_BIS2.obj
 0001:00014300       _c1_set_sim_state_side_effects_c1_ARP_02_RPSs_Bdr_GK_BIS2 10015300 f   c1_ARP_02_RPSs_Bdr_GK_BIS2.obj
 0001:000145f0       _c1_sendBMLbyPriority      100155f0 f   c1_ARP_02_RPSs_Bdr_GK_BIS2.obj
 0001:00016300       _c1_b_sf_marshallOut       10017300 f   c1_ARP_02_RPSs_Bdr_GK_BIS2.obj
 0001:00016380       _c1_b_sf_marshallIn        10017380 f   c1_ARP_02_RPSs_Bdr_GK_BIS2.obj
 0001:00016400       _c1_c_emlrt_marshallIn     10017400 f   c1_ARP_02_RPSs_Bdr_GK_BIS2.obj
 0001:00016450       _c1_sendBML                10017450 f   c1_ARP_02_RPSs_Bdr_GK_BIS2.obj
 0001:00016740       _c1_updateDataWrittenToVector 10017740 f   c1_ARP_02_RPSs_Bdr_GK_BIS2.obj
 0001:00016790       _c1_errorIfDataNotWrittenToFcn 10017790 f   c1_ARP_02_RPSs_Bdr_GK_BIS2.obj
 0001:00016810       _sf_opaque_get_sim_state_c1_ARP_02_RPSs_Bdr_GK_BIS2 10017810 f   c1_ARP_02_RPSs_Bdr_GK_BIS2.obj
 0001:00016830       _sf_opaque_set_sim_state_c1_ARP_02_RPSs_Bdr_GK_BIS2 10017830 f   c1_ARP_02_RPSs_Bdr_GK_BIS2.obj
 0001:00016850       _sf_opaque_terminate_c1_ARP_02_RPSs_Bdr_GK_BIS2 10017850 f   c1_ARP_02_RPSs_Bdr_GK_BIS2.obj
 0001:000168e0       _finalize_c1_ARP_02_RPSs_Bdr_GK_BIS2 100178e0 f   c1_ARP_02_RPSs_Bdr_GK_BIS2.obj
 0001:00016950       _sf_opaque_init_subchart_simstructs 10017950 f   c1_ARP_02_RPSs_Bdr_GK_BIS2.obj
 0001:00016970       _initSimStructsc1_ARP_02_RPSs_Bdr_GK_BIS2 10017970 f   c1_ARP_02_RPSs_Bdr_GK_BIS2.obj
 0001:00016a20       _mdlRTW_c1_ARP_02_RPSs_Bdr_GK_BIS2 10017a20 f   c1_ARP_02_RPSs_Bdr_GK_BIS2.obj
 0001:00016ac0       _c2_info_helper            10017ac0 f   c2_ARP_02_RPSs_Bdr_GK_BIS2.obj
 0001:00016cb0       _c2_emlrt_marshallOut      10017cb0 f   c2_ARP_02_RPSs_Bdr_GK_BIS2.obj
 0001:00016d10       _c2_b_emlrt_marshallOut    10017d10 f   c2_ARP_02_RPSs_Bdr_GK_BIS2.obj
 0001:000176f0       _get_sim_state_c2_ARP_02_RPSs_Bdr_GK_BIS2 100186f0 f   c2_ARP_02_RPSs_Bdr_GK_BIS2.obj
 0001:000177b0       _sf_get_sim_state_info_c2_ARP_02_RPSs_Bdr_GK_BIS2 100187b0 f   c2_ARP_02_RPSs_Bdr_GK_BIS2.obj
 0001:00017930       _set_sim_state_c2_ARP_02_RPSs_Bdr_GK_BIS2 10018930 f   c2_ARP_02_RPSs_Bdr_GK_BIS2.obj
 0001:000179b0       _c2_update_debugger_state_c2_ARP_02_RPSs_Bdr_GK_BIS2 100189b0 f   c2_ARP_02_RPSs_Bdr_GK_BIS2.obj
 0001:000179c0       _c2_c_emlrt_marshallIn     100189c0 f   c2_ARP_02_RPSs_Bdr_GK_BIS2.obj
 0001:00017a10       _c2_d_emlrt_marshallIn     10018a10 f   c2_ARP_02_RPSs_Bdr_GK_BIS2.obj
 0001:00017ac0       _mdlProcessParameters_c2_ARP_02_RPSs_Bdr_GK_BIS2 10018ac0 f   c2_ARP_02_RPSs_Bdr_GK_BIS2.obj
 0001:00017b70       _initialize_params_c2_ARP_02_RPSs_Bdr_GK_BIS2 10018b70 f   c2_ARP_02_RPSs_Bdr_GK_BIS2.obj
 0001:00017b80       _mdlSetWorkWidths_c2_ARP_02_RPSs_Bdr_GK_BIS2 10018b80 f   c2_ARP_02_RPSs_Bdr_GK_BIS2.obj
 0001:00017fc0       _sf_get_instance_specialization 10018fc0 f   c2_ARP_02_RPSs_Bdr_GK_BIS2.obj
 0001:00017fd0       _mdlStart_c2_ARP_02_RPSs_Bdr_GK_BIS2 10018fd0 f   c2_ARP_02_RPSs_Bdr_GK_BIS2.obj
 0001:00018170       _init_dsm_address_info     10019170 f   c2_ARP_02_RPSs_Bdr_GK_BIS2.obj
 0001:00018180       _chart_debug_initialization 10019180 f   c2_ARP_02_RPSs_Bdr_GK_BIS2.obj
 0001:000189b0       _init_script_number_translation 100199b0 f   c2_ARP_02_RPSs_Bdr_GK_BIS2.obj
 0001:000189c0       _c2_sf_marshallOut         100199c0 f   c2_ARP_02_RPSs_Bdr_GK_BIS2.obj
 0001:00018a40       _sf_opaque_initialize_c2_ARP_02_RPSs_Bdr_GK_BIS2 10019a40 f   c2_ARP_02_RPSs_Bdr_GK_BIS2.obj
 0001:00018a70       _initialize_c2_ARP_02_RPSs_Bdr_GK_BIS2 10019a70 f   c2_ARP_02_RPSs_Bdr_GK_BIS2.obj
 0001:00018aa0       _sf_opaque_enable_c2_ARP_02_RPSs_Bdr_GK_BIS2 10019aa0 f   c2_ARP_02_RPSs_Bdr_GK_BIS2.obj
 0001:00018ac0       _enable_c2_ARP_02_RPSs_Bdr_GK_BIS2 10019ac0 f   c2_ARP_02_RPSs_Bdr_GK_BIS2.obj
 0001:00018ae0       _sf_opaque_disable_c2_ARP_02_RPSs_Bdr_GK_BIS2 10019ae0 f   c2_ARP_02_RPSs_Bdr_GK_BIS2.obj
 0001:00018b00       _disable_c2_ARP_02_RPSs_Bdr_GK_BIS2 10019b00 f   c2_ARP_02_RPSs_Bdr_GK_BIS2.obj
 0001:00018b20       _sf_opaque_gateway_c2_ARP_02_RPSs_Bdr_GK_BIS2 10019b20 f   c2_ARP_02_RPSs_Bdr_GK_BIS2.obj
 0001:00018b40       _sf_gateway_c2_ARP_02_RPSs_Bdr_GK_BIS2 10019b40 f   c2_ARP_02_RPSs_Bdr_GK_BIS2.obj
 0001:00019bf0       _c2_sf_marshallIn          1001abf0 f   c2_ARP_02_RPSs_Bdr_GK_BIS2.obj
 0001:00019c70       _c2_emlrt_marshallIn       1001ac70 f   c2_ARP_02_RPSs_Bdr_GK_BIS2.obj
 0001:00019cc0       _sf_opaque_get_sim_state_c2_ARP_02_RPSs_Bdr_GK_BIS2 1001acc0 f   c2_ARP_02_RPSs_Bdr_GK_BIS2.obj
 0001:00019ce0       _sf_opaque_set_sim_state_c2_ARP_02_RPSs_Bdr_GK_BIS2 1001ace0 f   c2_ARP_02_RPSs_Bdr_GK_BIS2.obj
 0001:00019d00       _sf_opaque_terminate_c2_ARP_02_RPSs_Bdr_GK_BIS2 1001ad00 f   c2_ARP_02_RPSs_Bdr_GK_BIS2.obj
 0001:00019d90       _finalize_c2_ARP_02_RPSs_Bdr_GK_BIS2 1001ad90 f   c2_ARP_02_RPSs_Bdr_GK_BIS2.obj
 0001:00019da0       _sf_opaque_init_subchart_simstructs 1001ada0 f   c2_ARP_02_RPSs_Bdr_GK_BIS2.obj
 0001:00019dc0       _initSimStructsc2_ARP_02_RPSs_Bdr_GK_BIS2 1001adc0 f   c2_ARP_02_RPSs_Bdr_GK_BIS2.obj
 0001:00019dd0       _mdlRTW_c2_ARP_02_RPSs_Bdr_GK_BIS2 1001add0 f   c2_ARP_02_RPSs_Bdr_GK_BIS2.obj
 0001:00019e70       _c4_info_helper            1001ae70 f   c4_ARP_02_RPSs_Bdr_GK_BIS2.obj
 0001:0001e800       _c4_emlrt_marshallOut      1001f800 f   c4_ARP_02_RPSs_Bdr_GK_BIS2.obj
 0001:0001e860       _c4_b_emlrt_marshallOut    1001f860 f   c4_ARP_02_RPSs_Bdr_GK_BIS2.obj
 0001:0001e8e0       _c4_activate_secsc4_ARP_02_RPSs_Bdr_GK_BIS2 1001f8e0 f   c4_ARP_02_RPSs_Bdr_GK_BIS2.obj
 0001:0001e970       _c4_increment_counters_secsc4_ARP_02_RPSs_Bdr_GK_BIS2 1001f970 f   c4_ARP_02_RPSs_Bdr_GK_BIS2.obj
 0001:0001e9d0       _c4_reset_counters_secsc4_ARP_02_RPSs_Bdr_GK_BIS2 1001f9d0 f   c4_ARP_02_RPSs_Bdr_GK_BIS2.obj
 0001:0001ea10       _c4_deactivate_secsc4_ARP_02_RPSs_Bdr_GK_BIS2 1001fa10 f   c4_ARP_02_RPSs_Bdr_GK_BIS2.obj
 0001:0001ead0       _c4_c4_ARP_02_RPSs_Bdr_GK_BIS2 1001fad0 f   c4_ARP_02_RPSs_Bdr_GK_BIS2.obj
 0001:0001fcb0       _c4_enter_atomic_stateRandomPose 10020cb0 f   c4_ARP_02_RPSs_Bdr_GK_BIS2.obj
 0001:0001fe50       _c4_enter_atomic_statePoseChance 10020e50 f   c4_ARP_02_RPSs_Bdr_GK_BIS2.obj
 0001:00020080       _c4_rand                   10021080 f   c4_ARP_02_RPSs_Bdr_GK_BIS2.obj
 0001:000200a0       _c4_eml_rand               100210a0 f   c4_ARP_02_RPSs_Bdr_GK_BIS2.obj
 0001:00020450       _c4_eml_rand_mt19937ar     10021450 f   c4_ARP_02_RPSs_Bdr_GK_BIS2.obj
 0001:000204b0       _c4_b_sf_marshallOut       100214b0 f   c4_ARP_02_RPSs_Bdr_GK_BIS2.obj
 0001:00020530       _c4_b_sf_marshallIn        10021530 f   c4_ARP_02_RPSs_Bdr_GK_BIS2.obj
 0001:000205b0       _c4_c_emlrt_marshallIn     100215b0 f   c4_ARP_02_RPSs_Bdr_GK_BIS2.obj
 0001:00020600       _c4_c_sf_marshallOut       10021600 f   c4_ARP_02_RPSs_Bdr_GK_BIS2.obj
 0001:00020680       _c4_c_sf_marshallIn        10021680 f   c4_ARP_02_RPSs_Bdr_GK_BIS2.obj
 0001:00020700       _c4_d_emlrt_marshallIn     10021700 f   c4_ARP_02_RPSs_Bdr_GK_BIS2.obj
 0001:000207a0       _c4_enter_atomic_c4_ARP_02_RPSs_Bdr_GK_BIS2 100217a0 f   c4_ARP_02_RPSs_Bdr_GK_BIS2.obj
 0001:00020850       _c4_enter_internal_c4_ARP_02_RPSs_Bdr_GK_BIS2 10021850 f   c4_ARP_02_RPSs_Bdr_GK_BIS2.obj
 0001:000209b0       _c4_exit_internal_c4_ARP_02_RPSs_Bdr_GK_BIS2 100219b0 f   c4_ARP_02_RPSs_Bdr_GK_BIS2.obj
 0001:00020e70       _c4_initc4_ARP_02_RPSs_Bdr_GK_BIS2 10021e70 f   c4_ARP_02_RPSs_Bdr_GK_BIS2.obj
 0001:00021040       _c4_idlePoseBradTablec4_ARP_02_RPSs_Bdr_GK_BIS2 10022040 f   c4_ARP_02_RPSs_Bdr_GK_BIS2.obj
 0001:000252a0       _c4_encStr2Arr             100262a0 f   c4_ARP_02_RPSs_Bdr_GK_BIS2.obj
 0001:00025830       _c4_b_encStr2Arr           10026830 f   c4_ARP_02_RPSs_Bdr_GK_BIS2.obj
 0001:00025db0       _c4_c_encStr2Arr           10026db0 f   c4_ARP_02_RPSs_Bdr_GK_BIS2.obj
 0001:00026340       _c4_d_encStr2Arr           10027340 f   c4_ARP_02_RPSs_Bdr_GK_BIS2.obj
 0001:000268d0       _c4_e_encStr2Arr           100278d0 f   c4_ARP_02_RPSs_Bdr_GK_BIS2.obj
 0001:00026e60       _c4_f_encStr2Arr           10027e60 f   c4_ARP_02_RPSs_Bdr_GK_BIS2.obj
 0001:000273e0       _c4_g_encStr2Arr           100283e0 f   c4_ARP_02_RPSs_Bdr_GK_BIS2.obj
 0001:00027960       _c4_h_encStr2Arr           10028960 f   c4_ARP_02_RPSs_Bdr_GK_BIS2.obj
 0001:00027ef0       _c4_i_encStr2Arr           10028ef0 f   c4_ARP_02_RPSs_Bdr_GK_BIS2.obj
 0001:00028470       _c4_j_encStr2Arr           10029470 f   c4_ARP_02_RPSs_Bdr_GK_BIS2.obj
 0001:000289f0       _c4_k_encStr2Arr           100299f0 f   c4_ARP_02_RPSs_Bdr_GK_BIS2.obj
 0001:00028f80       _c4_l_encStr2Arr           10029f80 f   c4_ARP_02_RPSs_Bdr_GK_BIS2.obj
 0001:00029510       _c4_m_encStr2Arr           1002a510 f   c4_ARP_02_RPSs_Bdr_GK_BIS2.obj
 0001:00029aa0       _c4_n_encStr2Arr           1002aaa0 f   c4_ARP_02_RPSs_Bdr_GK_BIS2.obj
 0001:0002a030       _c4_o_encStr2Arr           1002b030 f   c4_ARP_02_RPSs_Bdr_GK_BIS2.obj
 0001:0002a5c0       _c4_p_encStr2Arr           1002b5c0 f   c4_ARP_02_RPSs_Bdr_GK_BIS2.obj
 0001:0002ab40       _c4_q_encStr2Arr           1002bb40 f   c4_ARP_02_RPSs_Bdr_GK_BIS2.obj
 0001:0002b0c0       _c4_sf_marshallOut         1002c0c0 f   c4_ARP_02_RPSs_Bdr_GK_BIS2.obj
 0001:0002b1f0       _c4_sf_marshallIn          1002c1f0 f   c4_ARP_02_RPSs_Bdr_GK_BIS2.obj
 0001:0002b2e0       _c4_emlrt_marshallIn       1002c2e0 f   c4_ARP_02_RPSs_Bdr_GK_BIS2.obj
 0001:0002b370       _c4_d_sf_marshallOut       1002c370 f   c4_ARP_02_RPSs_Bdr_GK_BIS2.obj
 0001:0002b4a0       _c4_d_sf_marshallIn        1002c4a0 f   c4_ARP_02_RPSs_Bdr_GK_BIS2.obj
 0001:0002b590       _c4_e_emlrt_marshallIn     1002c590 f   c4_ARP_02_RPSs_Bdr_GK_BIS2.obj
 0001:0002b620       _c4_e_sf_marshallOut       1002c620 f   c4_ARP_02_RPSs_Bdr_GK_BIS2.obj
 0001:0002b730       _c4_f_sf_marshallOut       1002c730 f   c4_ARP_02_RPSs_Bdr_GK_BIS2.obj
 0001:0002b860       _c4_g_sf_marshallOut       1002c860 f   c4_ARP_02_RPSs_Bdr_GK_BIS2.obj
 0001:0002b970       _c4_h_sf_marshallOut       1002c970 f   c4_ARP_02_RPSs_Bdr_GK_BIS2.obj
 0001:0002baa0       _c4_i_sf_marshallOut       1002caa0 f   c4_ARP_02_RPSs_Bdr_GK_BIS2.obj
 0001:0002bba0       _c4_j_sf_marshallOut       1002cba0 f   c4_ARP_02_RPSs_Bdr_GK_BIS2.obj
 0001:0002bcb0       _c4_k_sf_marshallOut       1002ccb0 f   c4_ARP_02_RPSs_Bdr_GK_BIS2.obj
 0001:0002bde0       _c4_l_sf_marshallOut       1002cde0 f   c4_ARP_02_RPSs_Bdr_GK_BIS2.obj
 0001:0002bf10       _c4_m_sf_marshallOut       1002cf10 f   c4_ARP_02_RPSs_Bdr_GK_BIS2.obj
 0001:0002c010       _c4_n_sf_marshallOut       1002d010 f   c4_ARP_02_RPSs_Bdr_GK_BIS2.obj
 0001:0002c140       _c4_o_sf_marshallOut       1002d140 f   c4_ARP_02_RPSs_Bdr_GK_BIS2.obj
 0001:0002c250       _c4_p_sf_marshallOut       1002d250 f   c4_ARP_02_RPSs_Bdr_GK_BIS2.obj
 0001:0002c380       _c4_q_sf_marshallOut       1002d380 f   c4_ARP_02_RPSs_Bdr_GK_BIS2.obj
 0001:0002c490       _c4_r_sf_marshallOut       1002d490 f   c4_ARP_02_RPSs_Bdr_GK_BIS2.obj
 0001:0002c5c0       _c4_s_sf_marshallOut       1002d5c0 f   c4_ARP_02_RPSs_Bdr_GK_BIS2.obj
 0001:0002c6c0       _c4_t_sf_marshallOut       1002d6c0 f   c4_ARP_02_RPSs_Bdr_GK_BIS2.obj
 0001:0002c7f0       _c4_u_sf_marshallOut       1002d7f0 f   c4_ARP_02_RPSs_Bdr_GK_BIS2.obj
 0001:0002c900       _c4_v_sf_marshallOut       1002d900 f   c4_ARP_02_RPSs_Bdr_GK_BIS2.obj
 0001:0002ca30       _c4_w_sf_marshallOut       1002da30 f   c4_ARP_02_RPSs_Bdr_GK_BIS2.obj
 0001:0002cb40       _c4_x_sf_marshallOut       1002db40 f   c4_ARP_02_RPSs_Bdr_GK_BIS2.obj
 0001:0002ccb0       _c4_walkInvadingTablec4_ARP_02_RPSs_Bdr_GK_BIS2 1002dcb0 f   c4_ARP_02_RPSs_Bdr_GK_BIS2.obj
 0001:0002e040       _c4_r_encStr2Arr           1002f040 f   c4_ARP_02_RPSs_Bdr_GK_BIS2.obj
 0001:0002e5d0       _c4_s_encStr2Arr           1002f5d0 f   c4_ARP_02_RPSs_Bdr_GK_BIS2.obj
 0001:0002eb50       _c4_t_encStr2Arr           1002fb50 f   c4_ARP_02_RPSs_Bdr_GK_BIS2.obj
 0001:0002f0d0       _c4_y_sf_marshallOut       100300d0 f   c4_ARP_02_RPSs_Bdr_GK_BIS2.obj
 0001:0002f200       _c4_ab_sf_marshallOut      10030200 f   c4_ARP_02_RPSs_Bdr_GK_BIS2.obj
 0001:0002f330       _c4_bb_sf_marshallOut      10030330 f   c4_ARP_02_RPSs_Bdr_GK_BIS2.obj
 0001:0002f460       _c4_cb_sf_marshallOut      10030460 f   c4_ARP_02_RPSs_Bdr_GK_BIS2.obj
 0001:0002f590       _c4_db_sf_marshallOut      10030590 f   c4_ARP_02_RPSs_Bdr_GK_BIS2.obj
 0001:0002f6b0       _c4_eb_sf_marshallOut      100306b0 f   c4_ARP_02_RPSs_Bdr_GK_BIS2.obj
 0001:0002f7e0       _c4_fb_sf_marshallOut      100307e0 f   c4_ARP_02_RPSs_Bdr_GK_BIS2.obj
 0001:0002f900       _c4_gb_sf_marshallOut      10030900 f   c4_ARP_02_RPSs_Bdr_GK_BIS2.obj
 0001:0002fa30       _c4_updateDataWrittenToVector 10030a30 f   c4_ARP_02_RPSs_Bdr_GK_BIS2.obj
 0001:0002fa80       _c4_b_twister_state_vector 10030a80 f   c4_ARP_02_RPSs_Bdr_GK_BIS2.obj
 0001:0002fc60       _c4_c_eml_rand_mt19937ar   10030c60 f   c4_ARP_02_RPSs_Bdr_GK_BIS2.obj
 0001:00030660       _c4_eml_error              10031660 f   c4_ARP_02_RPSs_Bdr_GK_BIS2.obj
 0001:00030720       _c4_get_BOREDOM_THRESHOLD  10031720 f   c4_ARP_02_RPSs_Bdr_GK_BIS2.obj
 0001:000307b0       _c4_get_FEAR               100317b0 f   c4_ARP_02_RPSs_Bdr_GK_BIS2.obj
 0001:00030840       _c4_get_FRUST              10031840 f   c4_ARP_02_RPSs_Bdr_GK_BIS2.obj
 0001:000308d0       _c4_get_boredom            100318d0 f   c4_ARP_02_RPSs_Bdr_GK_BIS2.obj
 0001:00030960       _c4_get_interest           10031960 f   c4_ARP_02_RPSs_Bdr_GK_BIS2.obj
 0001:000309f0       _c4_set_interest           100319f0 f   c4_ARP_02_RPSs_Bdr_GK_BIS2.obj
 0001:00030a80       _c4_set_randPoseChance     10031a80 f   c4_ARP_02_RPSs_Bdr_GK_BIS2.obj
 0001:00030b10       _c4_set_randSlowPose       10031b10 f   c4_ARP_02_RPSs_Bdr_GK_BIS2.obj
 0001:00031120       _get_sim_state_c4_ARP_02_RPSs_Bdr_GK_BIS2 10032120 f   c4_ARP_02_RPSs_Bdr_GK_BIS2.obj
 0001:00031610       _sf_get_sim_state_info_c4_ARP_02_RPSs_Bdr_GK_BIS2 10032610 f   c4_ARP_02_RPSs_Bdr_GK_BIS2.obj
 0001:00031790       _set_sim_state_c4_ARP_02_RPSs_Bdr_GK_BIS2 10032790 f   c4_ARP_02_RPSs_Bdr_GK_BIS2.obj
 0001:00031a30       _c4_update_debugger_state_c4_ARP_02_RPSs_Bdr_GK_BIS2 10032a30 f   c4_ARP_02_RPSs_Bdr_GK_BIS2.obj
 0001:00031dc0       _c4_b_emlrt_marshallIn     10032dc0 f   c4_ARP_02_RPSs_Bdr_GK_BIS2.obj
 0001:00031e10       _c4_h_emlrt_marshallIn     10032e10 f   c4_ARP_02_RPSs_Bdr_GK_BIS2.obj
 0001:00031e60       _c4_i_emlrt_marshallIn     10032e60 f   c4_ARP_02_RPSs_Bdr_GK_BIS2.obj
 0001:00031eb0       _c4_j_emlrt_marshallIn     10032eb0 f   c4_ARP_02_RPSs_Bdr_GK_BIS2.obj
 0001:00031f00       _c4_k_emlrt_marshallIn     10032f00 f   c4_ARP_02_RPSs_Bdr_GK_BIS2.obj
 0001:00031f80       _c4_l_emlrt_marshallIn     10032f80 f   c4_ARP_02_RPSs_Bdr_GK_BIS2.obj
 0001:00031fd0       _c4_m_emlrt_marshallIn     10032fd0 f   c4_ARP_02_RPSs_Bdr_GK_BIS2.obj
 0001:00032050       _c4_n_emlrt_marshallIn     10033050 f   c4_ARP_02_RPSs_Bdr_GK_BIS2.obj
 0001:000320a0       _c4_o_emlrt_marshallIn     100330a0 f   c4_ARP_02_RPSs_Bdr_GK_BIS2.obj
 0001:00032170       _c4_p_emlrt_marshallIn     10033170 f   c4_ARP_02_RPSs_Bdr_GK_BIS2.obj
 0001:000321c0       _c4_q_emlrt_marshallIn     100331c0 f   c4_ARP_02_RPSs_Bdr_GK_BIS2.obj
 0001:00032260       _c4_r_emlrt_marshallIn     10033260 f   c4_ARP_02_RPSs_Bdr_GK_BIS2.obj
 0001:000322c0       _c4_s_emlrt_marshallIn     100332c0 f   c4_ARP_02_RPSs_Bdr_GK_BIS2.obj
 0001:00032360       _mdlProcessParameters_c4_ARP_02_RPSs_Bdr_GK_BIS2 10033360 f   c4_ARP_02_RPSs_Bdr_GK_BIS2.obj
 0001:00032410       _initialize_params_c4_ARP_02_RPSs_Bdr_GK_BIS2 10033410 f   c4_ARP_02_RPSs_Bdr_GK_BIS2.obj
 0001:00032420       _mdlSetWorkWidths_c4_ARP_02_RPSs_Bdr_GK_BIS2 10033420 f   c4_ARP_02_RPSs_Bdr_GK_BIS2.obj
 0001:000327e0       _sf_get_instance_specialization 100337e0 f   c4_ARP_02_RPSs_Bdr_GK_BIS2.obj
 0001:000327f0       _mdlStart_c4_ARP_02_RPSs_Bdr_GK_BIS2 100337f0 f   c4_ARP_02_RPSs_Bdr_GK_BIS2.obj
 0001:00032990       _init_dsm_address_info     10033990 f   c4_ARP_02_RPSs_Bdr_GK_BIS2.obj
 0001:00033290       _chart_debug_initialization 10034290 f   c4_ARP_02_RPSs_Bdr_GK_BIS2.obj
 0001:00035fc0       _init_script_number_translation 10036fc0 f   c4_ARP_02_RPSs_Bdr_GK_BIS2.obj
 0001:00036000       _sf_opaque_initialize_c4_ARP_02_RPSs_Bdr_GK_BIS2 10037000 f   c4_ARP_02_RPSs_Bdr_GK_BIS2.obj
 0001:00036030       _initialize_c4_ARP_02_RPSs_Bdr_GK_BIS2 10037030 f   c4_ARP_02_RPSs_Bdr_GK_BIS2.obj
 0001:00036040       _sf_opaque_enable_c4_ARP_02_RPSs_Bdr_GK_BIS2 10037040 f   c4_ARP_02_RPSs_Bdr_GK_BIS2.obj
 0001:00036060       _enable_c4_ARP_02_RPSs_Bdr_GK_BIS2 10037060 f   c4_ARP_02_RPSs_Bdr_GK_BIS2.obj
 0001:00036070       _sf_opaque_disable_c4_ARP_02_RPSs_Bdr_GK_BIS2 10037070 f   c4_ARP_02_RPSs_Bdr_GK_BIS2.obj
 0001:00036090       _disable_c4_ARP_02_RPSs_Bdr_GK_BIS2 10037090 f   c4_ARP_02_RPSs_Bdr_GK_BIS2.obj
 0001:000360a0       _sf_opaque_gateway_c4_ARP_02_RPSs_Bdr_GK_BIS2 100370a0 f   c4_ARP_02_RPSs_Bdr_GK_BIS2.obj
 0001:000360c0       _sf_gateway_c4_ARP_02_RPSs_Bdr_GK_BIS2 100370c0 f   c4_ARP_02_RPSs_Bdr_GK_BIS2.obj
 0001:000360e0       _c4_set_sim_state_side_effects_c4_ARP_02_RPSs_Bdr_GK_BIS2 100370e0 f   c4_ARP_02_RPSs_Bdr_GK_BIS2.obj
 0001:00036200       _sf_opaque_get_sim_state_c4_ARP_02_RPSs_Bdr_GK_BIS2 10037200 f   c4_ARP_02_RPSs_Bdr_GK_BIS2.obj
 0001:00036210       _sf_opaque_set_sim_state_c4_ARP_02_RPSs_Bdr_GK_BIS2 10037210 f   c4_ARP_02_RPSs_Bdr_GK_BIS2.obj
 0001:00036220       _sf_opaque_terminate_c4_ARP_02_RPSs_Bdr_GK_BIS2 10037220 f   c4_ARP_02_RPSs_Bdr_GK_BIS2.obj
 0001:000362b0       _finalize_c4_ARP_02_RPSs_Bdr_GK_BIS2 100372b0 f   c4_ARP_02_RPSs_Bdr_GK_BIS2.obj
 0001:000362d0       _sf_opaque_init_subchart_simstructs 100372d0 f   c4_ARP_02_RPSs_Bdr_GK_BIS2.obj
 0001:000362f0       _initSimStructsc4_ARP_02_RPSs_Bdr_GK_BIS2 100372f0 f   c4_ARP_02_RPSs_Bdr_GK_BIS2.obj
 0001:00036300       _mdlRTW_c4_ARP_02_RPSs_Bdr_GK_BIS2 10037300 f   c4_ARP_02_RPSs_Bdr_GK_BIS2.obj
 0001:00036390       _c5_info_helper            10037390 f   c5_ARP_02_RPSs_Bdr_GK_BIS2.obj
 0001:0003af10       _c5_emlrt_marshallOut      1003bf10 f   c5_ARP_02_RPSs_Bdr_GK_BIS2.obj
 0001:0003af70       _c5_b_emlrt_marshallOut    1003bf70 f   c5_ARP_02_RPSs_Bdr_GK_BIS2.obj
 0001:0003aff0       _c5_activate_secsc5_ARP_02_RPSs_Bdr_GK_BIS2 1003bff0 f   c5_ARP_02_RPSs_Bdr_GK_BIS2.obj
 0001:0003b080       _c5_increment_counters_secsc5_ARP_02_RPSs_Bdr_GK_BIS2 1003c080 f   c5_ARP_02_RPSs_Bdr_GK_BIS2.obj
 0001:0003b130       _c5_reset_counters_secsc5_ARP_02_RPSs_Bdr_GK_BIS2 1003c130 f   c5_ARP_02_RPSs_Bdr_GK_BIS2.obj
 0001:0003b170       _c5_deactivate_secsc5_ARP_02_RPSs_Bdr_GK_BIS2 1003c170 f   c5_ARP_02_RPSs_Bdr_GK_BIS2.obj
 0001:0003b230       _c5_c5_ARP_02_RPSs_Bdr_GK_BIS2 1003c230 f   c5_ARP_02_RPSs_Bdr_GK_BIS2.obj
 0001:0003b320       _c5_stateGame              1003c320 f   c5_ARP_02_RPSs_Bdr_GK_BIS2.obj
 0001:0003dd10       _c5_stateStart             1003ed10 f   c5_ARP_02_RPSs_Bdr_GK_BIS2.obj
 0001:0003e2e0       _c5_stateReady             1003f2e0 f   c5_ARP_02_RPSs_Bdr_GK_BIS2.obj
 0001:0003ecf0       _c5_enter_atomic_statePoseReady 1003fcf0 f   c5_ARP_02_RPSs_Bdr_GK_BIS2.obj
 0001:0003f1e0       _c5_stateReadUserHand      100401e0 f   c5_ARP_02_RPSs_Bdr_GK_BIS2.obj
 0001:0003f8d0       _c5_stateShowHands         100408d0 f   c5_ARP_02_RPSs_Bdr_GK_BIS2.obj
 0001:000400d0       _c5_statePoseReturnFinger  100410d0 f   c5_ARP_02_RPSs_Bdr_GK_BIS2.obj
 0001:00040400       _c5_enter_atomic_stateCompare 10041400 f   c5_ARP_02_RPSs_Bdr_GK_BIS2.obj
 0001:00040690       _c5_stateShowResult        10041690 f   c5_ARP_02_RPSs_Bdr_GK_BIS2.obj
 0001:00041610       _c5_statePlayHand          10042610 f   c5_ARP_02_RPSs_Bdr_GK_BIS2.obj
 0001:00043b10       _c5_stateGameOver          10044b10 f   c5_ARP_02_RPSs_Bdr_GK_BIS2.obj
 0001:000456a0       _c5_rand                   100466a0 f   c5_ARP_02_RPSs_Bdr_GK_BIS2.obj
 0001:000456c0       _c5_eml_rand               100466c0 f   c5_ARP_02_RPSs_Bdr_GK_BIS2.obj
 0001:000459b0       _c5_eml_rand_mt19937ar     100469b0 f   c5_ARP_02_RPSs_Bdr_GK_BIS2.obj
 0001:00045a10       _c5_randi                  10046a10 f   c5_ARP_02_RPSs_Bdr_GK_BIS2.obj
 0001:00045a50       _c5_sf_marshallOut         10046a50 f   c5_ARP_02_RPSs_Bdr_GK_BIS2.obj
 0001:00045b70       _c5_sf_marshallIn          10046b70 f   c5_ARP_02_RPSs_Bdr_GK_BIS2.obj
 0001:00045c50       _c5_emlrt_marshallIn       10046c50 f   c5_ARP_02_RPSs_Bdr_GK_BIS2.obj
 0001:00045d00       _c5_b_sf_marshallOut       10046d00 f   c5_ARP_02_RPSs_Bdr_GK_BIS2.obj
 0001:00045d80       _c5_b_sf_marshallIn        10046d80 f   c5_ARP_02_RPSs_Bdr_GK_BIS2.obj
 0001:00045e00       _c5_c_emlrt_marshallIn     10046e00 f   c5_ARP_02_RPSs_Bdr_GK_BIS2.obj
 0001:00045e50       _c5_c_sf_marshallOut       10046e50 f   c5_ARP_02_RPSs_Bdr_GK_BIS2.obj
 0001:00045ed0       _c5_c_sf_marshallIn        10046ed0 f   c5_ARP_02_RPSs_Bdr_GK_BIS2.obj
 0001:00045f50       _c5_d_emlrt_marshallIn     10046f50 f   c5_ARP_02_RPSs_Bdr_GK_BIS2.obj
 0001:00046000       _c5_enter_atomic_c5_ARP_02_RPSs_Bdr_GK_BIS2 10047000 f   c5_ARP_02_RPSs_Bdr_GK_BIS2.obj
 0001:000460b0       _c5_enter_internal_c5_ARP_02_RPSs_Bdr_GK_BIS2 100470b0 f   c5_ARP_02_RPSs_Bdr_GK_BIS2.obj
 0001:000472c0       _c5_exit_internal_c5_ARP_02_RPSs_Bdr_GK_BIS2 100482c0 f   c5_ARP_02_RPSs_Bdr_GK_BIS2.obj
 0001:00048650       _c5_initc5_ARP_02_RPSs_Bdr_GK_BIS2 10049650 f   c5_ARP_02_RPSs_Bdr_GK_BIS2.obj
 0001:00048950       _c5_initialPoseTablec5_ARP_02_RPSs_Bdr_GK_BIS2 10049950 f   c5_ARP_02_RPSs_Bdr_GK_BIS2.obj
 0001:00049a10       _c5_encStr2Arr             1004aa10 f   c5_ARP_02_RPSs_Bdr_GK_BIS2.obj
 0001:00049fa0       _c5_b_encStr2Arr           1004afa0 f   c5_ARP_02_RPSs_Bdr_GK_BIS2.obj
 0001:0004a520       _c5_d_sf_marshallOut       1004b520 f   c5_ARP_02_RPSs_Bdr_GK_BIS2.obj
 0001:0004a650       _c5_d_sf_marshallIn        1004b650 f   c5_ARP_02_RPSs_Bdr_GK_BIS2.obj
 0001:0004a730       _c5_e_emlrt_marshallIn     1004b730 f   c5_ARP_02_RPSs_Bdr_GK_BIS2.obj
 0001:0004a7d0       _c5_e_sf_marshallOut       1004b7d0 f   c5_ARP_02_RPSs_Bdr_GK_BIS2.obj
 0001:0004a8d0       _c5_f_sf_marshallOut       1004b8d0 f   c5_ARP_02_RPSs_Bdr_GK_BIS2.obj
 0001:0004a9f0       _c5_g_sf_marshallOut       1004b9f0 f   c5_ARP_02_RPSs_Bdr_GK_BIS2.obj
 0001:0004aaf0       _c5_h_sf_marshallOut       1004baf0 f   c5_ARP_02_RPSs_Bdr_GK_BIS2.obj
 0001:0004ac00       _c5_i_sf_marshallOut       1004bc00 f   c5_ARP_02_RPSs_Bdr_GK_BIS2.obj
 0001:0004ace0       _c5_j_sf_marshallOut       1004bce0 f   c5_ARP_02_RPSs_Bdr_GK_BIS2.obj
 0001:0004ae00       _c5_rockPoseTablec5_ARP_02_RPSs_Bdr_GK_BIS2 1004be00 f   c5_ARP_02_RPSs_Bdr_GK_BIS2.obj
 0001:0004bbd0       _c5_c_encStr2Arr           1004cbd0 f   c5_ARP_02_RPSs_Bdr_GK_BIS2.obj
 0001:0004c160       _c5_k_sf_marshallOut       1004d160 f   c5_ARP_02_RPSs_Bdr_GK_BIS2.obj
 0001:0004c280       _c5_l_sf_marshallOut       1004d280 f   c5_ARP_02_RPSs_Bdr_GK_BIS2.obj
 0001:0004c3a0       _c5_paperPoseBradTablec5_ARP_02_RPSs_Bdr_GK_BIS2 1004d3a0 f   c5_ARP_02_RPSs_Bdr_GK_BIS2.obj
 0001:0004d170       _c5_d_encStr2Arr           1004e170 f   c5_ARP_02_RPSs_Bdr_GK_BIS2.obj
 0001:0004d6f0       _c5_m_sf_marshallOut       1004e6f0 f   c5_ARP_02_RPSs_Bdr_GK_BIS2.obj
 0001:0004d810       _c5_n_sf_marshallOut       1004e810 f   c5_ARP_02_RPSs_Bdr_GK_BIS2.obj
 0001:0004d920       _c5_o_sf_marshallOut       1004e920 f   c5_ARP_02_RPSs_Bdr_GK_BIS2.obj
 0001:0004da40       _c5_p_sf_marshallOut       1004ea40 f   c5_ARP_02_RPSs_Bdr_GK_BIS2.obj
 0001:0004db60       _c5_scissorsPoseBradTablec5_ARP_02_RPSs_Bdr_GK_BIS2 1004eb60 f   c5_ARP_02_RPSs_Bdr_GK_BIS2.obj
 0001:0004e930       _c5_e_encStr2Arr           1004f930 f   c5_ARP_02_RPSs_Bdr_GK_BIS2.obj
 0001:0004eec0       _c5_q_sf_marshallOut       1004fec0 f   c5_ARP_02_RPSs_Bdr_GK_BIS2.obj
 0001:0004efc0       _c5_r_sf_marshallOut       1004ffc0 f   c5_ARP_02_RPSs_Bdr_GK_BIS2.obj
 0001:0004f0e0       _c5_s_sf_marshallOut       100500e0 f   c5_ARP_02_RPSs_Bdr_GK_BIS2.obj
 0001:0004f1c0       _c5_t_sf_marshallOut       100501c0 f   c5_ARP_02_RPSs_Bdr_GK_BIS2.obj
 0001:0004f2e0       _c5_handPoseSBTablec5_ARP_02_RPSs_Bdr_GK_BIS2 100502e0 f   c5_ARP_02_RPSs_Bdr_GK_BIS2.obj
 0001:00050670       _c5_f_encStr2Arr           10051670 f   c5_ARP_02_RPSs_Bdr_GK_BIS2.obj
 0001:00050c00       _c5_g_encStr2Arr           10051c00 f   c5_ARP_02_RPSs_Bdr_GK_BIS2.obj
 0001:00051180       _c5_h_encStr2Arr           10052180 f   c5_ARP_02_RPSs_Bdr_GK_BIS2.obj
 0001:000516e0       _c5_u_sf_marshallOut       100526e0 f   c5_ARP_02_RPSs_Bdr_GK_BIS2.obj
 0001:00051800       _c5_v_sf_marshallOut       10052800 f   c5_ARP_02_RPSs_Bdr_GK_BIS2.obj
 0001:00051920       _c5_w_sf_marshallOut       10052920 f   c5_ARP_02_RPSs_Bdr_GK_BIS2.obj
 0001:00051a20       _c5_x_sf_marshallOut       10052a20 f   c5_ARP_02_RPSs_Bdr_GK_BIS2.obj
 0001:00051b40       _c5_y_sf_marshallOut       10052b40 f   c5_ARP_02_RPSs_Bdr_GK_BIS2.obj
 0001:00051c40       _c5_ab_sf_marshallOut      10052c40 f   c5_ARP_02_RPSs_Bdr_GK_BIS2.obj
 0001:00051d60       _c5_idlePoseBradTablec5_ARP_02_RPSs_Bdr_GK_BIS2 10052d60 f   c5_ARP_02_RPSs_Bdr_GK_BIS2.obj
 0001:00055380       _c5_i_encStr2Arr           10056380 f   c5_ARP_02_RPSs_Bdr_GK_BIS2.obj
 0001:00055910       _c5_j_encStr2Arr           10056910 f   c5_ARP_02_RPSs_Bdr_GK_BIS2.obj
 0001:00055ea0       _c5_k_encStr2Arr           10056ea0 f   c5_ARP_02_RPSs_Bdr_GK_BIS2.obj
 0001:00056410       _c5_l_encStr2Arr           10057410 f   c5_ARP_02_RPSs_Bdr_GK_BIS2.obj
 0001:000569a0       _c5_m_encStr2Arr           100579a0 f   c5_ARP_02_RPSs_Bdr_GK_BIS2.obj
 0001:00056f30       _c5_n_encStr2Arr           10057f30 f   c5_ARP_02_RPSs_Bdr_GK_BIS2.obj
 0001:000574b0       _c5_o_encStr2Arr           100584b0 f   c5_ARP_02_RPSs_Bdr_GK_BIS2.obj
 0001:00057a40       _c5_p_encStr2Arr           10058a40 f   c5_ARP_02_RPSs_Bdr_GK_BIS2.obj
 0001:00057fd0       _c5_q_encStr2Arr           10058fd0 f   c5_ARP_02_RPSs_Bdr_GK_BIS2.obj
 0001:00058560       _c5_r_encStr2Arr           10059560 f   c5_ARP_02_RPSs_Bdr_GK_BIS2.obj
 0001:00058ae0       _c5_s_encStr2Arr           10059ae0 f   c5_ARP_02_RPSs_Bdr_GK_BIS2.obj
 0001:00059070       _c5_bb_sf_marshallOut      1005a070 f   c5_ARP_02_RPSs_Bdr_GK_BIS2.obj
 0001:00059170       _c5_cb_sf_marshallOut      1005a170 f   c5_ARP_02_RPSs_Bdr_GK_BIS2.obj
 0001:00059290       _c5_db_sf_marshallOut      1005a290 f   c5_ARP_02_RPSs_Bdr_GK_BIS2.obj
 0001:000593a0       _c5_eb_sf_marshallOut      1005a3a0 f   c5_ARP_02_RPSs_Bdr_GK_BIS2.obj
 0001:000594c0       _c5_fb_sf_marshallOut      1005a4c0 f   c5_ARP_02_RPSs_Bdr_GK_BIS2.obj
 0001:000595a0       _c5_gb_sf_marshallOut      1005a5a0 f   c5_ARP_02_RPSs_Bdr_GK_BIS2.obj
 0001:000596c0       _c5_hb_sf_marshallOut      1005a6c0 f   c5_ARP_02_RPSs_Bdr_GK_BIS2.obj
 0001:000597c0       _c5_ib_sf_marshallOut      1005a7c0 f   c5_ARP_02_RPSs_Bdr_GK_BIS2.obj
 0001:000598e0       _c5_sendSBM                1005a8e0 f   c5_ARP_02_RPSs_Bdr_GK_BIS2.obj
 0001:00059900       _c5_b_sendSBM              1005a900 f   c5_ARP_02_RPSs_Bdr_GK_BIS2.obj
 0001:00059b30       _c5_sendSBMc5_ARP_02_RPSs_Bdr_GK_BIS2 1005ab30 f   c5_ARP_02_RPSs_Bdr_GK_BIS2.obj
 0001:00059e20       _c5_updateDataWrittenToVector 1005ae20 f   c5_ARP_02_RPSs_Bdr_GK_BIS2.obj
 0001:00059e70       _c5_errorIfDataNotWrittenToFcn 1005ae70 f   c5_ARP_02_RPSs_Bdr_GK_BIS2.obj
 0001:00059ef0       _c5_b_twister_state_vector 1005aef0 f   c5_ARP_02_RPSs_Bdr_GK_BIS2.obj
 0001:0005a0d0       _c5_c_eml_rand_mt19937ar   1005b0d0 f   c5_ARP_02_RPSs_Bdr_GK_BIS2.obj
 0001:0005aad0       _c5_eml_error              1005bad0 f   c5_ARP_02_RPSs_Bdr_GK_BIS2.obj
 0001:0005ab90       _c5_set_BML                1005bb90 f   c5_ARP_02_RPSs_Bdr_GK_BIS2.obj
 0001:0005ac20       _c5_set_BORED              1005bc20 f   c5_ARP_02_RPSs_Bdr_GK_BIS2.obj
 0001:0005acb0       _c5_get_BOREDOM_THRESHOLD  1005bcb0 f   c5_ARP_02_RPSs_Bdr_GK_BIS2.obj
 0001:0005ad40       _c5_set_BOREDOM_THRESHOLD  1005bd40 f   c5_ARP_02_RPSs_Bdr_GK_BIS2.obj
 0001:0005add0       _c5_set_CONTEMPT           1005bdd0 f   c5_ARP_02_RPSs_Bdr_GK_BIS2.obj
 0001:0005ae60       _c5_set_EXCITE             1005be60 f   c5_ARP_02_RPSs_Bdr_GK_BIS2.obj
 0001:0005aef0       _c5_set_FEAR               1005bef0 f   c5_ARP_02_RPSs_Bdr_GK_BIS2.obj
 0001:0005af80       _c5_set_FRUST              1005bf80 f   c5_ARP_02_RPSs_Bdr_GK_BIS2.obj
 0001:0005b010       _c5_get_GAZE_GUI           1005c010 f   c5_ARP_02_RPSs_Bdr_GK_BIS2.obj
 0001:0005b0a0       _c5_set_GAZE_GUI           1005c0a0 f   c5_ARP_02_RPSs_Bdr_GK_BIS2.obj
 0001:0005b130       _c5_set_GAZE_SHOFTEYE      1005c130 f   c5_ARP_02_RPSs_Bdr_GK_BIS2.obj
 0001:0005b1c0       _c5_get_GAZE_USER_HAND     1005c1c0 f   c5_ARP_02_RPSs_Bdr_GK_BIS2.obj
 0001:0005b250       _c5_set_GAZE_USER_HAND     1005c250 f   c5_ARP_02_RPSs_Bdr_GK_BIS2.obj
 0001:0005b2e0       _c5_get_GAZE_WIN           1005c2e0 f   c5_ARP_02_RPSs_Bdr_GK_BIS2.obj
 0001:0005b370       _c5_set_GAZE_WIN           1005c370 f   c5_ARP_02_RPSs_Bdr_GK_BIS2.obj
 0001:0005b400       _c5_set_HAPPY              1005c400 f   c5_ARP_02_RPSs_Bdr_GK_BIS2.obj
 0001:0005b490       _c5_set_IDLE               1005c490 f   c5_ARP_02_RPSs_Bdr_GK_BIS2.obj
 0001:0005b520       _c5_set_SAD                1005c520 f   c5_ARP_02_RPSs_Bdr_GK_BIS2.obj
 0001:0005b5b0       _c5_set_STATE_BEFORE       1005c5b0 f   c5_ARP_02_RPSs_Bdr_GK_BIS2.obj
 0001:0005b640       _c5_get_STATE_GO           1005c640 f   c5_ARP_02_RPSs_Bdr_GK_BIS2.obj
 0001:0005b6d0       _c5_set_STATE_GO           1005c6d0 f   c5_ARP_02_RPSs_Bdr_GK_BIS2.obj
 0001:0005b760       _c5_get_STATE_HAND         1005c760 f   c5_ARP_02_RPSs_Bdr_GK_BIS2.obj
 0001:0005b7f0       _c5_set_STATE_HAND         1005c7f0 f   c5_ARP_02_RPSs_Bdr_GK_BIS2.obj
 0001:0005b880       _c5_get_STATE_OVER         1005c880 f   c5_ARP_02_RPSs_Bdr_GK_BIS2.obj
 0001:0005b910       _c5_set_STATE_OVER         1005c910 f   c5_ARP_02_RPSs_Bdr_GK_BIS2.obj
 0001:0005b9a0       _c5_get_STATE_READY        1005c9a0 f   c5_ARP_02_RPSs_Bdr_GK_BIS2.obj
 0001:0005ba30       _c5_set_STATE_READY        1005ca30 f   c5_ARP_02_RPSs_Bdr_GK_BIS2.obj
 0001:0005bac0       _c5_get_STATE_RESULT       1005cac0 f   c5_ARP_02_RPSs_Bdr_GK_BIS2.obj
 0001:0005bb50       _c5_set_STATE_RESULT       1005cb50 f   c5_ARP_02_RPSs_Bdr_GK_BIS2.obj
 0001:0005bbe0       _c5_get_STATE_WAITE        1005cbe0 f   c5_ARP_02_RPSs_Bdr_GK_BIS2.obj
 0001:0005bc70       _c5_set_STATE_WAITE        1005cc70 f   c5_ARP_02_RPSs_Bdr_GK_BIS2.obj
 0001:0005bd00       _c5_set_avert              1005cd00 f   c5_ARP_02_RPSs_Bdr_GK_BIS2.obj
 0001:0005bd90       _c5_get_bHand              1005cd90 f   c5_ARP_02_RPSs_Bdr_GK_BIS2.obj
 0001:0005be20       _c5_set_bHand              1005ce20 f   c5_ARP_02_RPSs_Bdr_GK_BIS2.obj
 0001:0005beb0       _c5_get_boredom            1005ceb0 f   c5_ARP_02_RPSs_Bdr_GK_BIS2.obj
 0001:0005bf40       _c5_set_boredom            1005cf40 f   c5_ARP_02_RPSs_Bdr_GK_BIS2.obj
 0001:0005bfd0       _c5_get_diff               1005cfd0 f   c5_ARP_02_RPSs_Bdr_GK_BIS2.obj
 0001:0005c060       _c5_set_diff               1005d060 f   c5_ARP_02_RPSs_Bdr_GK_BIS2.obj
 0001:0005c0f0       _c5_set_gazing             1005d0f0 f   c5_ARP_02_RPSs_Bdr_GK_BIS2.obj
 0001:0005c180       _c5_get_p                  1005d180 f   c5_ARP_02_RPSs_Bdr_GK_BIS2.obj
 0001:0005c210       _c5_set_p                  1005d210 f   c5_ARP_02_RPSs_Bdr_GK_BIS2.obj
 0001:0005c2a0       _c5_set_pr                 1005d2a0 f   c5_ARP_02_RPSs_Bdr_GK_BIS2.obj
 0001:0005c330       _c5_get_r                  1005d330 f   c5_ARP_02_RPSs_Bdr_GK_BIS2.obj
 0001:0005c3c0       _c5_set_r                  1005d3c0 f   c5_ARP_02_RPSs_Bdr_GK_BIS2.obj
 0001:0005c450       _c5_set_randAvertGazeChance 1005d450 f   c5_ARP_02_RPSs_Bdr_GK_BIS2.obj
 0001:0005c4e0       _c5_set_randPoseChance     1005d4e0 f   c5_ARP_02_RPSs_Bdr_GK_BIS2.obj
 0001:0005c570       _c5_set_randSmile          1005d570 f   c5_ARP_02_RPSs_Bdr_GK_BIS2.obj
 0001:0005c600       _c5_get_s                  1005d600 f   c5_ARP_02_RPSs_Bdr_GK_BIS2.obj
 0001:0005c690       _c5_set_s                  1005d690 f   c5_ARP_02_RPSs_Bdr_GK_BIS2.obj
 0001:0005c720       _c5_get_temp               1005d720 f   c5_ARP_02_RPSs_Bdr_GK_BIS2.obj
 0001:0005c7b0       _c5_set_temp               1005d7b0 f   c5_ARP_02_RPSs_Bdr_GK_BIS2.obj
 0001:0005c840       _c5_get_uHand              1005d840 f   c5_ARP_02_RPSs_Bdr_GK_BIS2.obj
 0001:0005c8d0       _c5_set_uHand              1005d8d0 f   c5_ARP_02_RPSs_Bdr_GK_BIS2.obj
 0001:0005d440       _get_sim_state_c5_ARP_02_RPSs_Bdr_GK_BIS2 1005e440 f   c5_ARP_02_RPSs_Bdr_GK_BIS2.obj
 0001:0005df70       _sf_get_sim_state_info_c5_ARP_02_RPSs_Bdr_GK_BIS2 1005ef70 f   c5_ARP_02_RPSs_Bdr_GK_BIS2.obj
 0001:0005e100       _set_sim_state_c5_ARP_02_RPSs_Bdr_GK_BIS2 1005f100 f   c5_ARP_02_RPSs_Bdr_GK_BIS2.obj
 0001:0005e710       _c5_update_debugger_state_c5_ARP_02_RPSs_Bdr_GK_BIS2 1005f710 f   c5_ARP_02_RPSs_Bdr_GK_BIS2.obj
 0001:0005fa00       _c5_b_emlrt_marshallIn     10060a00 f   c5_ARP_02_RPSs_Bdr_GK_BIS2.obj
 0001:0005fa50       _c5_h_emlrt_marshallIn     10060a50 f   c5_ARP_02_RPSs_Bdr_GK_BIS2.obj
 0001:0005faa0       _c5_i_emlrt_marshallIn     10060aa0 f   c5_ARP_02_RPSs_Bdr_GK_BIS2.obj
 0001:0005faf0       _c5_j_emlrt_marshallIn     10060af0 f   c5_ARP_02_RPSs_Bdr_GK_BIS2.obj
 0001:0005fb40       _c5_k_emlrt_marshallIn     10060b40 f   c5_ARP_02_RPSs_Bdr_GK_BIS2.obj
 0001:0005fbc0       _c5_l_emlrt_marshallIn     10060bc0 f   c5_ARP_02_RPSs_Bdr_GK_BIS2.obj
 0001:0005fc10       _c5_m_emlrt_marshallIn     10060c10 f   c5_ARP_02_RPSs_Bdr_GK_BIS2.obj
 0001:0005fc90       _c5_n_emlrt_marshallIn     10060c90 f   c5_ARP_02_RPSs_Bdr_GK_BIS2.obj
 0001:0005fce0       _c5_o_emlrt_marshallIn     10060ce0 f   c5_ARP_02_RPSs_Bdr_GK_BIS2.obj
 0001:0005fdb0       _c5_p_emlrt_marshallIn     10060db0 f   c5_ARP_02_RPSs_Bdr_GK_BIS2.obj
 0001:0005fe00       _c5_q_emlrt_marshallIn     10060e00 f   c5_ARP_02_RPSs_Bdr_GK_BIS2.obj
 0001:0005fea0       _c5_r_emlrt_marshallIn     10060ea0 f   c5_ARP_02_RPSs_Bdr_GK_BIS2.obj
 0001:0005ff00       _c5_s_emlrt_marshallIn     10060f00 f   c5_ARP_02_RPSs_Bdr_GK_BIS2.obj
 0001:0005ffa0       _mdlProcessParameters_c5_ARP_02_RPSs_Bdr_GK_BIS2 10060fa0 f   c5_ARP_02_RPSs_Bdr_GK_BIS2.obj
 0001:00060050       _initialize_params_c5_ARP_02_RPSs_Bdr_GK_BIS2 10061050 f   c5_ARP_02_RPSs_Bdr_GK_BIS2.obj
 0001:00060060       _mdlSetWorkWidths_c5_ARP_02_RPSs_Bdr_GK_BIS2 10061060 f   c5_ARP_02_RPSs_Bdr_GK_BIS2.obj
 0001:00060420       _sf_get_instance_specialization 10061420 f   c5_ARP_02_RPSs_Bdr_GK_BIS2.obj
 0001:00060430       _mdlStart_c5_ARP_02_RPSs_Bdr_GK_BIS2 10061430 f   c5_ARP_02_RPSs_Bdr_GK_BIS2.obj
 0001:000605d0       _init_dsm_address_info     100615d0 f   c5_ARP_02_RPSs_Bdr_GK_BIS2.obj
 0001:000617a0       _chart_debug_initialization 100627a0 f   c5_ARP_02_RPSs_Bdr_GK_BIS2.obj
 0001:00068420       _init_script_number_translation 10069420 f   c5_ARP_02_RPSs_Bdr_GK_BIS2.obj
 0001:00068460       _sf_opaque_initialize_c5_ARP_02_RPSs_Bdr_GK_BIS2 10069460 f   c5_ARP_02_RPSs_Bdr_GK_BIS2.obj
 0001:00068490       _initialize_c5_ARP_02_RPSs_Bdr_GK_BIS2 10069490 f   c5_ARP_02_RPSs_Bdr_GK_BIS2.obj
 0001:000684a0       _sf_opaque_enable_c5_ARP_02_RPSs_Bdr_GK_BIS2 100694a0 f   c5_ARP_02_RPSs_Bdr_GK_BIS2.obj
 0001:000684c0       _enable_c5_ARP_02_RPSs_Bdr_GK_BIS2 100694c0 f   c5_ARP_02_RPSs_Bdr_GK_BIS2.obj
 0001:000684d0       _sf_opaque_disable_c5_ARP_02_RPSs_Bdr_GK_BIS2 100694d0 f   c5_ARP_02_RPSs_Bdr_GK_BIS2.obj
 0001:000684f0       _disable_c5_ARP_02_RPSs_Bdr_GK_BIS2 100694f0 f   c5_ARP_02_RPSs_Bdr_GK_BIS2.obj
 0001:00068500       _sf_opaque_gateway_c5_ARP_02_RPSs_Bdr_GK_BIS2 10069500 f   c5_ARP_02_RPSs_Bdr_GK_BIS2.obj
 0001:00068520       _sf_gateway_c5_ARP_02_RPSs_Bdr_GK_BIS2 10069520 f   c5_ARP_02_RPSs_Bdr_GK_BIS2.obj
 0001:00068540       _c5_set_sim_state_side_effects_c5_ARP_02_RPSs_Bdr_GK_BIS2 10069540 f   c5_ARP_02_RPSs_Bdr_GK_BIS2.obj
 0001:00068b60       _sf_opaque_get_sim_state_c5_ARP_02_RPSs_Bdr_GK_BIS2 10069b60 f   c5_ARP_02_RPSs_Bdr_GK_BIS2.obj
 0001:00068b70       _sf_opaque_set_sim_state_c5_ARP_02_RPSs_Bdr_GK_BIS2 10069b70 f   c5_ARP_02_RPSs_Bdr_GK_BIS2.obj
 0001:00068b80       _sf_opaque_terminate_c5_ARP_02_RPSs_Bdr_GK_BIS2 10069b80 f   c5_ARP_02_RPSs_Bdr_GK_BIS2.obj
 0001:00068c10       _finalize_c5_ARP_02_RPSs_Bdr_GK_BIS2 10069c10 f   c5_ARP_02_RPSs_Bdr_GK_BIS2.obj
 0001:00068c30       _sf_opaque_init_subchart_simstructs 10069c30 f   c5_ARP_02_RPSs_Bdr_GK_BIS2.obj
 0001:00068c50       _initSimStructsc5_ARP_02_RPSs_Bdr_GK_BIS2 10069c50 f   c5_ARP_02_RPSs_Bdr_GK_BIS2.obj
 0001:00068c60       _mdlRTW_c5_ARP_02_RPSs_Bdr_GK_BIS2 10069c60 f   c5_ARP_02_RPSs_Bdr_GK_BIS2.obj
 0001:00068cf0       _c8_info_helper            10069cf0 f   c8_ARP_02_RPSs_Bdr_GK_BIS2.obj
 0001:00068ee0       _c8_emlrt_marshallOut      10069ee0 f   c8_ARP_02_RPSs_Bdr_GK_BIS2.obj
 0001:00068f40       _c8_b_emlrt_marshallOut    10069f40 f   c8_ARP_02_RPSs_Bdr_GK_BIS2.obj
 0001:00068fc0       _c8_activate_secsc8_ARP_02_RPSs_Bdr_GK_BIS2 10069fc0 f   c8_ARP_02_RPSs_Bdr_GK_BIS2.obj
 0001:00069050       _c8_increment_counters_secsc8_ARP_02_RPSs_Bdr_GK_BIS2 1006a050 f   c8_ARP_02_RPSs_Bdr_GK_BIS2.obj
 0001:000690b0       _c8_reset_counters_secsc8_ARP_02_RPSs_Bdr_GK_BIS2 1006a0b0 f   c8_ARP_02_RPSs_Bdr_GK_BIS2.obj
 0001:000690f0       _c8_deactivate_secsc8_ARP_02_RPSs_Bdr_GK_BIS2 1006a0f0 f   c8_ARP_02_RPSs_Bdr_GK_BIS2.obj
 0001:000691b0       _c8_c8_ARP_02_RPSs_Bdr_GK_BIS2 1006a1b0 f   c8_ARP_02_RPSs_Bdr_GK_BIS2.obj
 0001:0006af60       _c8_stateInit              1006bf60 f   c8_ARP_02_RPSs_Bdr_GK_BIS2.obj
 0001:0006c1b0       _c8_idle                   1006d1b0 f   c8_ARP_02_RPSs_Bdr_GK_BIS2.obj
 0001:0006d5e0       _c8_stateHeadNeutral       1006e5e0 f   c8_ARP_02_RPSs_Bdr_GK_BIS2.obj
 0001:0006e1e0       _c8_b_sf_marshallOut       1006f1e0 f   c8_ARP_02_RPSs_Bdr_GK_BIS2.obj
 0001:0006e260       _c8_b_sf_marshallIn        1006f260 f   c8_ARP_02_RPSs_Bdr_GK_BIS2.obj
 0001:0006e2e0       _c8_c_emlrt_marshallIn     1006f2e0 f   c8_ARP_02_RPSs_Bdr_GK_BIS2.obj
 0001:0006e330       _c8_c_sf_marshallOut       1006f330 f   c8_ARP_02_RPSs_Bdr_GK_BIS2.obj
 0001:0006e3b0       _c8_c_sf_marshallIn        1006f3b0 f   c8_ARP_02_RPSs_Bdr_GK_BIS2.obj
 0001:0006e430       _c8_d_emlrt_marshallIn     1006f430 f   c8_ARP_02_RPSs_Bdr_GK_BIS2.obj
 0001:0006e4d0       _c8_enter_atomic_c8_ARP_02_RPSs_Bdr_GK_BIS2 1006f4d0 f   c8_ARP_02_RPSs_Bdr_GK_BIS2.obj
 0001:0006e580       _c8_enter_internal_c8_ARP_02_RPSs_Bdr_GK_BIS2 1006f580 f   c8_ARP_02_RPSs_Bdr_GK_BIS2.obj
 0001:0006e7b0       _c8_exit_internal_c8_ARP_02_RPSs_Bdr_GK_BIS2 1006f7b0 f   c8_ARP_02_RPSs_Bdr_GK_BIS2.obj
 0001:0006ed10       _c8_initc8_ARP_02_RPSs_Bdr_GK_BIS2 1006fd10 f   c8_ARP_02_RPSs_Bdr_GK_BIS2.obj
 0001:0006ee90       _c8_walkInvadingTablec8_ARP_02_RPSs_Bdr_GK_BIS2 1006fe90 f   c8_ARP_02_RPSs_Bdr_GK_BIS2.obj
 0001:00070220       _c8_encStr2Arr             10071220 f   c8_ARP_02_RPSs_Bdr_GK_BIS2.obj
 0001:000707b0       _c8_b_encStr2Arr           100717b0 f   c8_ARP_02_RPSs_Bdr_GK_BIS2.obj
 0001:00070d30       _c8_c_encStr2Arr           10071d30 f   c8_ARP_02_RPSs_Bdr_GK_BIS2.obj
 0001:000712c0       _c8_sf_marshallOut         100722c0 f   c8_ARP_02_RPSs_Bdr_GK_BIS2.obj
 0001:000713f0       _c8_sf_marshallIn          100723f0 f   c8_ARP_02_RPSs_Bdr_GK_BIS2.obj
 0001:000714d0       _c8_emlrt_marshallIn       100724d0 f   c8_ARP_02_RPSs_Bdr_GK_BIS2.obj
 0001:00071560       _c8_d_sf_marshallOut       10072560 f   c8_ARP_02_RPSs_Bdr_GK_BIS2.obj
 0001:00071690       _c8_d_sf_marshallIn        10072690 f   c8_ARP_02_RPSs_Bdr_GK_BIS2.obj
 0001:00071770       _c8_e_emlrt_marshallIn     10072770 f   c8_ARP_02_RPSs_Bdr_GK_BIS2.obj
 0001:00071800       _c8_e_sf_marshallOut       10072800 f   c8_ARP_02_RPSs_Bdr_GK_BIS2.obj
 0001:00071930       _c8_f_sf_marshallOut       10072930 f   c8_ARP_02_RPSs_Bdr_GK_BIS2.obj
 0001:00071a60       _c8_g_sf_marshallOut       10072a60 f   c8_ARP_02_RPSs_Bdr_GK_BIS2.obj
 0001:00071b90       _c8_h_sf_marshallOut       10072b90 f   c8_ARP_02_RPSs_Bdr_GK_BIS2.obj
 0001:00071cc0       _c8_i_sf_marshallOut       10072cc0 f   c8_ARP_02_RPSs_Bdr_GK_BIS2.obj
 0001:00071df0       _c8_j_sf_marshallOut       10072df0 f   c8_ARP_02_RPSs_Bdr_GK_BIS2.obj
 0001:00071f20       _c8_k_sf_marshallOut       10072f20 f   c8_ARP_02_RPSs_Bdr_GK_BIS2.obj
 0001:00072040       _c8_l_sf_marshallOut       10073040 f   c8_ARP_02_RPSs_Bdr_GK_BIS2.obj
 0001:000721b0       _c8_updateDataWrittenToVector 100731b0 f   c8_ARP_02_RPSs_Bdr_GK_BIS2.obj
 0001:00072200       _c8_errorIfDataNotWrittenToFcn 10073200 f   c8_ARP_02_RPSs_Bdr_GK_BIS2.obj
 0001:00072280       _c8_set_BML                10073280 f   c8_ARP_02_RPSs_Bdr_GK_BIS2.obj
 0001:00072310       _c8_get_STATE_BEFORE       10073310 f   c8_ARP_02_RPSs_Bdr_GK_BIS2.obj
 0001:000723a0       _c8_get_STATE_OVER         100733a0 f   c8_ARP_02_RPSs_Bdr_GK_BIS2.obj
 0001:00072430       _c8_get_STATE_READY        10073430 f   c8_ARP_02_RPSs_Bdr_GK_BIS2.obj
 0001:000724c0       _c8_set_pr                 100734c0 f   c8_ARP_02_RPSs_Bdr_GK_BIS2.obj
 0001:000729e0       _get_sim_state_c8_ARP_02_RPSs_Bdr_GK_BIS2 100739e0 f   c8_ARP_02_RPSs_Bdr_GK_BIS2.obj
 0001:00072bc0       _sf_get_sim_state_info_c8_ARP_02_RPSs_Bdr_GK_BIS2 10073bc0 f   c8_ARP_02_RPSs_Bdr_GK_BIS2.obj
 0001:00072d40       _set_sim_state_c8_ARP_02_RPSs_Bdr_GK_BIS2 10073d40 f   c8_ARP_02_RPSs_Bdr_GK_BIS2.obj
 0001:00072ea0       _c8_update_debugger_state_c8_ARP_02_RPSs_Bdr_GK_BIS2 10073ea0 f   c8_ARP_02_RPSs_Bdr_GK_BIS2.obj
 0001:000732e0       _c8_b_emlrt_marshallIn     100742e0 f   c8_ARP_02_RPSs_Bdr_GK_BIS2.obj
 0001:00073330       _c8_h_emlrt_marshallIn     10074330 f   c8_ARP_02_RPSs_Bdr_GK_BIS2.obj
 0001:00073380       _c8_i_emlrt_marshallIn     10074380 f   c8_ARP_02_RPSs_Bdr_GK_BIS2.obj
 0001:000733d0       _c8_j_emlrt_marshallIn     100743d0 f   c8_ARP_02_RPSs_Bdr_GK_BIS2.obj
 0001:00073430       _c8_k_emlrt_marshallIn     10074430 f   c8_ARP_02_RPSs_Bdr_GK_BIS2.obj
 0001:000734d0       _mdlProcessParameters_c8_ARP_02_RPSs_Bdr_GK_BIS2 100744d0 f   c8_ARP_02_RPSs_Bdr_GK_BIS2.obj
 0001:00073580       _initialize_params_c8_ARP_02_RPSs_Bdr_GK_BIS2 10074580 f   c8_ARP_02_RPSs_Bdr_GK_BIS2.obj
 0001:00073590       _mdlSetWorkWidths_c8_ARP_02_RPSs_Bdr_GK_BIS2 10074590 f   c8_ARP_02_RPSs_Bdr_GK_BIS2.obj
 0001:00073930       _sf_get_instance_specialization 10074930 f   c8_ARP_02_RPSs_Bdr_GK_BIS2.obj
 0001:00073940       _mdlStart_c8_ARP_02_RPSs_Bdr_GK_BIS2 10074940 f   c8_ARP_02_RPSs_Bdr_GK_BIS2.obj
 0001:00073ae0       _init_dsm_address_info     10074ae0 f   c8_ARP_02_RPSs_Bdr_GK_BIS2.obj
 0001:00073d10       _chart_debug_initialization 10074d10 f   c8_ARP_02_RPSs_Bdr_GK_BIS2.obj
 0001:00075840       _init_script_number_translation 10076840 f   c8_ARP_02_RPSs_Bdr_GK_BIS2.obj
 0001:00075880       _sf_opaque_initialize_c8_ARP_02_RPSs_Bdr_GK_BIS2 10076880 f   c8_ARP_02_RPSs_Bdr_GK_BIS2.obj
 0001:000758b0       _initialize_c8_ARP_02_RPSs_Bdr_GK_BIS2 100768b0 f   c8_ARP_02_RPSs_Bdr_GK_BIS2.obj
 0001:000758c0       _sf_opaque_enable_c8_ARP_02_RPSs_Bdr_GK_BIS2 100768c0 f   c8_ARP_02_RPSs_Bdr_GK_BIS2.obj
 0001:000758e0       _enable_c8_ARP_02_RPSs_Bdr_GK_BIS2 100768e0 f   c8_ARP_02_RPSs_Bdr_GK_BIS2.obj
 0001:000758f0       _sf_opaque_disable_c8_ARP_02_RPSs_Bdr_GK_BIS2 100768f0 f   c8_ARP_02_RPSs_Bdr_GK_BIS2.obj
 0001:00075910       _disable_c8_ARP_02_RPSs_Bdr_GK_BIS2 10076910 f   c8_ARP_02_RPSs_Bdr_GK_BIS2.obj
 0001:00075920       _sf_opaque_gateway_c8_ARP_02_RPSs_Bdr_GK_BIS2 10076920 f   c8_ARP_02_RPSs_Bdr_GK_BIS2.obj
 0001:00075940       _sf_gateway_c8_ARP_02_RPSs_Bdr_GK_BIS2 10076940 f   c8_ARP_02_RPSs_Bdr_GK_BIS2.obj
 0001:00075960       _c8_set_sim_state_side_effects_c8_ARP_02_RPSs_Bdr_GK_BIS2 10076960 f   c8_ARP_02_RPSs_Bdr_GK_BIS2.obj
 0001:00075ad0       _sf_opaque_get_sim_state_c8_ARP_02_RPSs_Bdr_GK_BIS2 10076ad0 f   c8_ARP_02_RPSs_Bdr_GK_BIS2.obj
 0001:00075ae0       _sf_opaque_set_sim_state_c8_ARP_02_RPSs_Bdr_GK_BIS2 10076ae0 f   c8_ARP_02_RPSs_Bdr_GK_BIS2.obj
 0001:00075af0       _sf_opaque_terminate_c8_ARP_02_RPSs_Bdr_GK_BIS2 10076af0 f   c8_ARP_02_RPSs_Bdr_GK_BIS2.obj
 0001:00075b80       _finalize_c8_ARP_02_RPSs_Bdr_GK_BIS2 10076b80 f   c8_ARP_02_RPSs_Bdr_GK_BIS2.obj
 0001:00075ba0       _sf_opaque_init_subchart_simstructs 10076ba0 f   c8_ARP_02_RPSs_Bdr_GK_BIS2.obj
 0001:00075bc0       _initSimStructsc8_ARP_02_RPSs_Bdr_GK_BIS2 10076bc0 f   c8_ARP_02_RPSs_Bdr_GK_BIS2.obj
 0001:00075bd0       _mdlRTW_c8_ARP_02_RPSs_Bdr_GK_BIS2 10076bd0 f   c8_ARP_02_RPSs_Bdr_GK_BIS2.obj
 0001:00075c80       _c9_info_helper            10076c80 f   c9_ARP_02_RPSs_Bdr_GK_BIS2.obj
 0001:0007cb90       _c9_emlrt_marshallOut      1007db90 f   c9_ARP_02_RPSs_Bdr_GK_BIS2.obj
 0001:0007cbf0       _c9_b_emlrt_marshallOut    1007dbf0 f   c9_ARP_02_RPSs_Bdr_GK_BIS2.obj
 0001:0007cc70       _c9_activate_secsc9_ARP_02_RPSs_Bdr_GK_BIS2 1007dc70 f   c9_ARP_02_RPSs_Bdr_GK_BIS2.obj
 0001:0007cd00       _c9_increment_counters_secsc9_ARP_02_RPSs_Bdr_GK_BIS2 1007dd00 f   c9_ARP_02_RPSs_Bdr_GK_BIS2.obj
 0001:0007cda0       _c9_reset_counters_secsc9_ARP_02_RPSs_Bdr_GK_BIS2 1007dda0 f   c9_ARP_02_RPSs_Bdr_GK_BIS2.obj
 0001:0007cde0       _c9_deactivate_secsc9_ARP_02_RPSs_Bdr_GK_BIS2 1007dde0 f   c9_ARP_02_RPSs_Bdr_GK_BIS2.obj
 0001:0007cea0       _c9_c9_ARP_02_RPSs_Bdr_GK_BIS2 1007dea0 f   c9_ARP_02_RPSs_Bdr_GK_BIS2.obj
 0001:0007d9e0       _c9_stateGazeIde           1007e9e0 f   c9_ARP_02_RPSs_Bdr_GK_BIS2.obj
 0001:0007f990       _c9_stateInit              10080990 f   c9_ARP_02_RPSs_Bdr_GK_BIS2.obj
 0001:0007ff10       _c9_stateRandGen           10080f10 f   c9_ARP_02_RPSs_Bdr_GK_BIS2.obj
 0001:00080c70       _c9_enter_atomic_stateCheckMutCont 10081c70 f   c9_ARP_02_RPSs_Bdr_GK_BIS2.obj
 0001:00080ec0       _c9_enter_atomic_stateAvertGaze 10081ec0 f   c9_ARP_02_RPSs_Bdr_GK_BIS2.obj
 0001:00081350       _c9_stateCheckAvertCont    10082350 f   c9_ARP_02_RPSs_Bdr_GK_BIS2.obj
 0001:000829a0       _c9_stateMutualGaze        100839a0 f   c9_ARP_02_RPSs_Bdr_GK_BIS2.obj
 0001:00082b20       _c9_stateGazingGUI         10083b20 f   c9_ARP_02_RPSs_Bdr_GK_BIS2.obj
 0001:00083120       _c9_stateGazingUserHand    10084120 f   c9_ARP_02_RPSs_Bdr_GK_BIS2.obj
 0001:00083700       _c9_stateGazeWin           10084700 f   c9_ARP_02_RPSs_Bdr_GK_BIS2.obj
 0001:00084b10       _c9_rand                   10085b10 f   c9_ARP_02_RPSs_Bdr_GK_BIS2.obj
 0001:00084be0       _c9_eml_rand_mt19937ar     10085be0 f   c9_ARP_02_RPSs_Bdr_GK_BIS2.obj
 0001:00084c40       _c9_randi                  10085c40 f   c9_ARP_02_RPSs_Bdr_GK_BIS2.obj
 0001:00084c80       _c9_b_randi                10085c80 f   c9_ARP_02_RPSs_Bdr_GK_BIS2.obj
 0001:00084cd0       _c9_b_eml_error            10085cd0 f   c9_ARP_02_RPSs_Bdr_GK_BIS2.obj
 0001:00084e00       _c9_b_sf_marshallOut       10085e00 f   c9_ARP_02_RPSs_Bdr_GK_BIS2.obj
 0001:00084e80       _c9_b_sf_marshallIn        10085e80 f   c9_ARP_02_RPSs_Bdr_GK_BIS2.obj
 0001:00084f00       _c9_e_emlrt_marshallIn     10085f00 f   c9_ARP_02_RPSs_Bdr_GK_BIS2.obj
 0001:00084f50       _c9_g_sf_marshallOut       10085f50 f   c9_ARP_02_RPSs_Bdr_GK_BIS2.obj
 0001:00084fd0       _c9_g_sf_marshallIn        10085fd0 f   c9_ARP_02_RPSs_Bdr_GK_BIS2.obj
 0001:00085050       _c9_j_emlrt_marshallIn     10086050 f   c9_ARP_02_RPSs_Bdr_GK_BIS2.obj
 0001:000850f0       _c9_enter_atomic_c9_ARP_02_RPSs_Bdr_GK_BIS2 100860f0 f   c9_ARP_02_RPSs_Bdr_GK_BIS2.obj
 0001:000851a0       _c9_enter_internal_c9_ARP_02_RPSs_Bdr_GK_BIS2 100861a0 f   c9_ARP_02_RPSs_Bdr_GK_BIS2.obj
 0001:00085990       _c9_exit_internal_c9_ARP_02_RPSs_Bdr_GK_BIS2 10086990 f   c9_ARP_02_RPSs_Bdr_GK_BIS2.obj
 0001:00086780       _c9_initc9_ARP_02_RPSs_Bdr_GK_BIS2 10087780 f   c9_ARP_02_RPSs_Bdr_GK_BIS2.obj
 0001:00086a10       _c9_idleGazeFunctionc9_ARP_02_RPSs_Bdr_GK_BIS2 10087a10 f   c9_ARP_02_RPSs_Bdr_GK_BIS2.obj
 0001:000895c0       _c9_encStr2Arr             1008a5c0 f   c9_ARP_02_RPSs_Bdr_GK_BIS2.obj
 0001:00089ca0       _c9_emlrt_marshallIn       1008aca0 f   c9_ARP_02_RPSs_Bdr_GK_BIS2.obj
 0001:00089cf0       _c9_b_emlrt_marshallIn     1008acf0 f   c9_ARP_02_RPSs_Bdr_GK_BIS2.obj
 0001:00089e70       _c9_sf_marshallOut         1008ae70 f   c9_ARP_02_RPSs_Bdr_GK_BIS2.obj
 0001:00089fa0       _c9_sf_marshallIn          1008afa0 f   c9_ARP_02_RPSs_Bdr_GK_BIS2.obj
 0001:0008a070       _c9_c_emlrt_marshallIn     1008b070 f   c9_ARP_02_RPSs_Bdr_GK_BIS2.obj
 0001:0008a120       _c9_c_sf_marshallOut       1008b120 f   c9_ARP_02_RPSs_Bdr_GK_BIS2.obj
 0001:0008a2b0       _c9_c_sf_marshallIn        1008b2b0 f   c9_ARP_02_RPSs_Bdr_GK_BIS2.obj
 0001:0008a3d0       _c9_f_emlrt_marshallIn     1008b3d0 f   c9_ARP_02_RPSs_Bdr_GK_BIS2.obj
 0001:0008a550       _c9_d_sf_marshallOut       1008b550 f   c9_ARP_02_RPSs_Bdr_GK_BIS2.obj
 0001:0008a680       _c9_d_sf_marshallIn        1008b680 f   c9_ARP_02_RPSs_Bdr_GK_BIS2.obj
 0001:0008a760       _c9_g_emlrt_marshallIn     1008b760 f   c9_ARP_02_RPSs_Bdr_GK_BIS2.obj
 0001:0008a870       _c9_e_sf_marshallOut       1008b870 f   c9_ARP_02_RPSs_Bdr_GK_BIS2.obj
 0001:0008a9a0       _c9_e_sf_marshallIn        1008b9a0 f   c9_ARP_02_RPSs_Bdr_GK_BIS2.obj
 0001:0008aa60       _c9_h_emlrt_marshallIn     1008ba60 f   c9_ARP_02_RPSs_Bdr_GK_BIS2.obj
 0001:0008ab00       _c9_f_sf_marshallOut       1008bb00 f   c9_ARP_02_RPSs_Bdr_GK_BIS2.obj
 0001:0008ac50       _c9_f_sf_marshallIn        1008bc50 f   c9_ARP_02_RPSs_Bdr_GK_BIS2.obj
 0001:0008ad50       _c9_i_emlrt_marshallIn     1008bd50 f   c9_ARP_02_RPSs_Bdr_GK_BIS2.obj
 0001:0008ae40       _c9_idleGazeTablec9_ARP_02_RPSs_Bdr_GK_BIS2 1008be40 f   c9_ARP_02_RPSs_Bdr_GK_BIS2.obj
 0001:0008f2c0       _c9_b_encStr2Arr           100902c0 f   c9_ARP_02_RPSs_Bdr_GK_BIS2.obj
 0001:0008f840       _c9_c_encStr2Arr           10090840 f   c9_ARP_02_RPSs_Bdr_GK_BIS2.obj
 0001:0008fd90       _c9_d_encStr2Arr           10090d90 f   c9_ARP_02_RPSs_Bdr_GK_BIS2.obj
 0001:00090310       _c9_e_encStr2Arr           10091310 f   c9_ARP_02_RPSs_Bdr_GK_BIS2.obj
 0001:00090870       _c9_f_encStr2Arr           10091870 f   c9_ARP_02_RPSs_Bdr_GK_BIS2.obj
 0001:00090de0       _c9_g_encStr2Arr           10091de0 f   c9_ARP_02_RPSs_Bdr_GK_BIS2.obj
 0001:00091330       _c9_h_encStr2Arr           10092330 f   c9_ARP_02_RPSs_Bdr_GK_BIS2.obj
 0001:000918b0       _c9_i_encStr2Arr           100928b0 f   c9_ARP_02_RPSs_Bdr_GK_BIS2.obj
 0001:00091e10       _c9_j_encStr2Arr           10092e10 f   c9_ARP_02_RPSs_Bdr_GK_BIS2.obj
 0001:00092390       _c9_k_encStr2Arr           10093390 f   c9_ARP_02_RPSs_Bdr_GK_BIS2.obj
 0001:00092910       _c9_l_encStr2Arr           10093910 f   c9_ARP_02_RPSs_Bdr_GK_BIS2.obj
 0001:00092e80       _c9_m_encStr2Arr           10093e80 f   c9_ARP_02_RPSs_Bdr_GK_BIS2.obj
 0001:000933f0       _c9_n_encStr2Arr           100943f0 f   c9_ARP_02_RPSs_Bdr_GK_BIS2.obj
 0001:00093960       _c9_o_encStr2Arr           10094960 f   c9_ARP_02_RPSs_Bdr_GK_BIS2.obj
 0001:00093ed0       _c9_p_encStr2Arr           10094ed0 f   c9_ARP_02_RPSs_Bdr_GK_BIS2.obj
 0001:00094440       _c9_q_encStr2Arr           10095440 f   c9_ARP_02_RPSs_Bdr_GK_BIS2.obj
 0001:000949a0       _c9_r_encStr2Arr           100959a0 f   c9_ARP_02_RPSs_Bdr_GK_BIS2.obj
 0001:00094f20       _c9_s_encStr2Arr           10095f20 f   c9_ARP_02_RPSs_Bdr_GK_BIS2.obj
 0001:00095480       _c9_t_encStr2Arr           10096480 f   c9_ARP_02_RPSs_Bdr_GK_BIS2.obj
 0001:000959f0       _c9_u_encStr2Arr           100969f0 f   c9_ARP_02_RPSs_Bdr_GK_BIS2.obj
 0001:00095f70       _c9_v_encStr2Arr           10096f70 f   c9_ARP_02_RPSs_Bdr_GK_BIS2.obj
 0001:000964e0       _c9_w_encStr2Arr           100974e0 f   c9_ARP_02_RPSs_Bdr_GK_BIS2.obj
 0001:00096a50       _c9_x_encStr2Arr           10097a50 f   c9_ARP_02_RPSs_Bdr_GK_BIS2.obj
 0001:00096fb0       _c9_h_sf_marshallOut       10097fb0 f   c9_ARP_02_RPSs_Bdr_GK_BIS2.obj
 0001:000970d0       _c9_i_sf_marshallOut       100980d0 f   c9_ARP_02_RPSs_Bdr_GK_BIS2.obj
 0001:000971e0       _c9_j_sf_marshallOut       100981e0 f   c9_ARP_02_RPSs_Bdr_GK_BIS2.obj
 0001:00097300       _c9_k_sf_marshallOut       10098300 f   c9_ARP_02_RPSs_Bdr_GK_BIS2.obj
 0001:00097430       _c9_l_sf_marshallOut       10098430 f   c9_ARP_02_RPSs_Bdr_GK_BIS2.obj
 0001:00097550       _c9_m_sf_marshallOut       10098550 f   c9_ARP_02_RPSs_Bdr_GK_BIS2.obj
 0001:00097680       _c9_n_sf_marshallOut       10098680 f   c9_ARP_02_RPSs_Bdr_GK_BIS2.obj
 0001:000977a0       _c9_o_sf_marshallOut       100987a0 f   c9_ARP_02_RPSs_Bdr_GK_BIS2.obj
 0001:000978d0       _c9_p_sf_marshallOut       100988d0 f   c9_ARP_02_RPSs_Bdr_GK_BIS2.obj
 0001:00097a00       _c9_q_sf_marshallOut       10098a00 f   c9_ARP_02_RPSs_Bdr_GK_BIS2.obj
 0001:00097b30       _c9_r_sf_marshallOut       10098b30 f   c9_ARP_02_RPSs_Bdr_GK_BIS2.obj
 0001:00097c60       _c9_s_sf_marshallOut       10098c60 f   c9_ARP_02_RPSs_Bdr_GK_BIS2.obj
 0001:00097d70       _c9_t_sf_marshallOut       10098d70 f   c9_ARP_02_RPSs_Bdr_GK_BIS2.obj
 0001:00097ea0       _c9_u_sf_marshallOut       10098ea0 f   c9_ARP_02_RPSs_Bdr_GK_BIS2.obj
 0001:00097fd0       _c9_v_sf_marshallOut       10098fd0 f   c9_ARP_02_RPSs_Bdr_GK_BIS2.obj
 0001:00098100       _c9_w_sf_marshallOut       10099100 f   c9_ARP_02_RPSs_Bdr_GK_BIS2.obj
 0001:00098230       _c9_x_sf_marshallOut       10099230 f   c9_ARP_02_RPSs_Bdr_GK_BIS2.obj
 0001:00098360       _c9_y_sf_marshallOut       10099360 f   c9_ARP_02_RPSs_Bdr_GK_BIS2.obj
 0001:00098480       _c9_ab_sf_marshallOut      10099480 f   c9_ARP_02_RPSs_Bdr_GK_BIS2.obj
 0001:000985b0       _c9_bb_sf_marshallOut      100995b0 f   c9_ARP_02_RPSs_Bdr_GK_BIS2.obj
 0001:000986d0       _c9_cb_sf_marshallOut      100996d0 f   c9_ARP_02_RPSs_Bdr_GK_BIS2.obj
 0001:00098800       _c9_db_sf_marshallOut      10099800 f   c9_ARP_02_RPSs_Bdr_GK_BIS2.obj
 0001:00098930       _c9_eb_sf_marshallOut      10099930 f   c9_ARP_02_RPSs_Bdr_GK_BIS2.obj
 0001:00098a60       _c9_fb_sf_marshallOut      10099a60 f   c9_ARP_02_RPSs_Bdr_GK_BIS2.obj
 0001:00098b90       _c9_gb_sf_marshallOut      10099b90 f   c9_ARP_02_RPSs_Bdr_GK_BIS2.obj
 0001:00098cb0       _c9_hb_sf_marshallOut      10099cb0 f   c9_ARP_02_RPSs_Bdr_GK_BIS2.obj
 0001:00098de0       _c9_ib_sf_marshallOut      10099de0 f   c9_ARP_02_RPSs_Bdr_GK_BIS2.obj
 0001:00098f10       _c9_jb_sf_marshallOut      10099f10 f   c9_ARP_02_RPSs_Bdr_GK_BIS2.obj
 0001:00099040       _c9_kb_sf_marshallOut      1009a040 f   c9_ARP_02_RPSs_Bdr_GK_BIS2.obj
 0001:00099170       _c9_lb_sf_marshallOut      1009a170 f   c9_ARP_02_RPSs_Bdr_GK_BIS2.obj
 0001:000992a0       _c9_mb_sf_marshallOut      1009a2a0 f   c9_ARP_02_RPSs_Bdr_GK_BIS2.obj
 0001:000993d0       _c9_nb_sf_marshallOut      1009a3d0 f   c9_ARP_02_RPSs_Bdr_GK_BIS2.obj
 0001:00099500       _c9_ob_sf_marshallOut      1009a500 f   c9_ARP_02_RPSs_Bdr_GK_BIS2.obj
 0001:00099630       _c9_pb_sf_marshallOut      1009a630 f   c9_ARP_02_RPSs_Bdr_GK_BIS2.obj
 0001:00099760       _c9_qb_sf_marshallOut      1009a760 f   c9_ARP_02_RPSs_Bdr_GK_BIS2.obj
 0001:00099890       _c9_rb_sf_marshallOut      1009a890 f   c9_ARP_02_RPSs_Bdr_GK_BIS2.obj
 0001:000999c0       _c9_successTablec9_ARP_02_RPSs_Bdr_GK_BIS2 1009a9c0 f   c9_ARP_02_RPSs_Bdr_GK_BIS2.obj
 0001:0009aa30       _c9_gb_encStr2Arr          1009ba30 f   c9_ARP_02_RPSs_Bdr_GK_BIS2.obj
 0001:0009af80       _c9_hb_encStr2Arr          1009bf80 f   c9_ARP_02_RPSs_Bdr_GK_BIS2.obj
 0001:0009b500       _c9_wb_sf_marshallOut      1009c500 f   c9_ARP_02_RPSs_Bdr_GK_BIS2.obj
 0001:0009b630       _c9_xb_sf_marshallOut      1009c630 f   c9_ARP_02_RPSs_Bdr_GK_BIS2.obj
 0001:0009b760       _c9_yb_sf_marshallOut      1009c760 f   c9_ARP_02_RPSs_Bdr_GK_BIS2.obj
 0001:0009b890       _c9_ac_sf_marshallOut      1009c890 f   c9_ARP_02_RPSs_Bdr_GK_BIS2.obj
 0001:0009b9c0       _c9_bc_sf_marshallOut      1009c9c0 f   c9_ARP_02_RPSs_Bdr_GK_BIS2.obj
 0001:0009baf0       _c9_cc_sf_marshallOut      1009caf0 f   c9_ARP_02_RPSs_Bdr_GK_BIS2.obj
 0001:0009bc60       _c9_gazeFollowUserMovec9_ARP_02_RPSs_Bdr_GK_BIS2 1009cc60 f   c9_ARP_02_RPSs_Bdr_GK_BIS2.obj
 0001:0009ccb0       _c9_ib_encStr2Arr          1009dcb0 f   c9_ARP_02_RPSs_Bdr_GK_BIS2.obj
 0001:0009d230       _c9_jb_encStr2Arr          1009e230 f   c9_ARP_02_RPSs_Bdr_GK_BIS2.obj
 0001:0009d790       _c9_dc_sf_marshallOut      1009e790 f   c9_ARP_02_RPSs_Bdr_GK_BIS2.obj
 0001:0009d8c0       _c9_ec_sf_marshallOut      1009e8c0 f   c9_ARP_02_RPSs_Bdr_GK_BIS2.obj
 0001:0009d9f0       _c9_fc_sf_marshallOut      1009e9f0 f   c9_ARP_02_RPSs_Bdr_GK_BIS2.obj
 0001:0009dad0       _c9_gc_sf_marshallOut      1009ead0 f   c9_ARP_02_RPSs_Bdr_GK_BIS2.obj
 0001:0009dc60       _c9_idleGazeInterestedTablec9_ARP_02_RPSs_Bdr_GK_BIS2 1009ec60 f   c9_ARP_02_RPSs_Bdr_GK_BIS2.obj
 0001:0009fb60       _c9_y_encStr2Arr           100a0b60 f   c9_ARP_02_RPSs_Bdr_GK_BIS2.obj
 0001:000a00b0       _c9_ab_encStr2Arr          100a10b0 f   c9_ARP_02_RPSs_Bdr_GK_BIS2.obj
 0001:000a0630       _c9_bb_encStr2Arr          100a1630 f   c9_ARP_02_RPSs_Bdr_GK_BIS2.obj
 0001:000a0b90       _c9_cb_encStr2Arr          100a1b90 f   c9_ARP_02_RPSs_Bdr_GK_BIS2.obj
 0001:000a10e0       _c9_db_encStr2Arr          100a20e0 f   c9_ARP_02_RPSs_Bdr_GK_BIS2.obj
 0001:000a1640       _c9_eb_encStr2Arr          100a2640 f   c9_ARP_02_RPSs_Bdr_GK_BIS2.obj
 0001:000a1ba0       _c9_fb_encStr2Arr          100a2ba0 f   c9_ARP_02_RPSs_Bdr_GK_BIS2.obj
 0001:000a2100       _c9_sb_sf_marshallOut      100a3100 f   c9_ARP_02_RPSs_Bdr_GK_BIS2.obj
 0001:000a2210       _c9_tb_sf_marshallOut      100a3210 f   c9_ARP_02_RPSs_Bdr_GK_BIS2.obj
 0001:000a2340       _c9_ub_sf_marshallOut      100a3340 f   c9_ARP_02_RPSs_Bdr_GK_BIS2.obj
 0001:000a2470       _c9_vb_sf_marshallOut      100a3470 f   c9_ARP_02_RPSs_Bdr_GK_BIS2.obj
 0001:000a2620       _c9_updateDataWrittenToVector 100a3620 f   c9_ARP_02_RPSs_Bdr_GK_BIS2.obj
 0001:000a2670       _c9_errorIfDataNotWrittenToFcn 100a3670 f   c9_ARP_02_RPSs_Bdr_GK_BIS2.obj
 0001:000a26f0       _c9_b_twister_state_vector 100a36f0 f   c9_ARP_02_RPSs_Bdr_GK_BIS2.obj
 0001:000a27f0       _c9_c_eml_rand_mt19937ar   100a37f0 f   c9_ARP_02_RPSs_Bdr_GK_BIS2.obj
 0001:000a2d10       _c9_eml_error              100a3d10 f   c9_ARP_02_RPSs_Bdr_GK_BIS2.obj
 0001:000a2dd0       _c9_set_BML                100a3dd0 f   c9_ARP_02_RPSs_Bdr_GK_BIS2.obj
 0001:000a2e60       _c9_get_BOREDOM_THRESHOLD  100a3e60 f   c9_ARP_02_RPSs_Bdr_GK_BIS2.obj
 0001:000a2ef0       _c9_get_GAZE_GUI           100a3ef0 f   c9_ARP_02_RPSs_Bdr_GK_BIS2.obj
 0001:000a2f80       _c9_set_GAZE_GUI           100a3f80 f   c9_ARP_02_RPSs_Bdr_GK_BIS2.obj
 0001:000a3010       _c9_get_GAZE_SHOFTEYE      100a4010 f   c9_ARP_02_RPSs_Bdr_GK_BIS2.obj
 0001:000a30a0       _c9_set_GAZE_SHOFTEYE      100a40a0 f   c9_ARP_02_RPSs_Bdr_GK_BIS2.obj
 0001:000a3130       _c9_set_GAZE_USER_HAND     100a4130 f   c9_ARP_02_RPSs_Bdr_GK_BIS2.obj
 0001:000a31c0       _c9_get_GAZE_WIN           100a41c0 f   c9_ARP_02_RPSs_Bdr_GK_BIS2.obj
 0001:000a3250       _c9_set_GAZE_WIN           100a4250 f   c9_ARP_02_RPSs_Bdr_GK_BIS2.obj
 0001:000a32e0       _c9_get_STATE_BEFORE       100a42e0 f   c9_ARP_02_RPSs_Bdr_GK_BIS2.obj
 0001:000a3370       _c9_set_STATE_BEFORE       100a4370 f   c9_ARP_02_RPSs_Bdr_GK_BIS2.obj
 0001:000a3400       _c9_get_STATE_OVER         100a4400 f   c9_ARP_02_RPSs_Bdr_GK_BIS2.obj
 0001:000a3490       _c9_set_STATE_OVER         100a4490 f   c9_ARP_02_RPSs_Bdr_GK_BIS2.obj
 0001:000a3520       _c9_set_STATE_READY        100a4520 f   c9_ARP_02_RPSs_Bdr_GK_BIS2.obj
 0001:000a35b0       _c9_set_avert              100a45b0 f   c9_ARP_02_RPSs_Bdr_GK_BIS2.obj
 0001:000a3640       _c9_get_boredom            100a4640 f   c9_ARP_02_RPSs_Bdr_GK_BIS2.obj
 0001:000a36d0       _c9_get_gazing             100a46d0 f   c9_ARP_02_RPSs_Bdr_GK_BIS2.obj
 0001:000a3760       _c9_set_gazing             100a4760 f   c9_ARP_02_RPSs_Bdr_GK_BIS2.obj
 0001:000a37f0       _c9_get_interest           100a47f0 f   c9_ARP_02_RPSs_Bdr_GK_BIS2.obj
 0001:000a3880       _c9_set_interest           100a4880 f   c9_ARP_02_RPSs_Bdr_GK_BIS2.obj
 0001:000a3910       _c9_set_pr                 100a4910 f   c9_ARP_02_RPSs_Bdr_GK_BIS2.obj
 0001:000a4d30       _get_sim_state_c9_ARP_02_RPSs_Bdr_GK_BIS2 100a5d30 f   c9_ARP_02_RPSs_Bdr_GK_BIS2.obj
 0001:000a5d10       _sf_get_sim_state_info_c9_ARP_02_RPSs_Bdr_GK_BIS2 100a6d10 f   c9_ARP_02_RPSs_Bdr_GK_BIS2.obj
 0001:000a5ea0       _set_sim_state_c9_ARP_02_RPSs_Bdr_GK_BIS2 100a6ea0 f   c9_ARP_02_RPSs_Bdr_GK_BIS2.obj
 0001:000a6690       _c9_update_debugger_state_c9_ARP_02_RPSs_Bdr_GK_BIS2 100a7690 f   c9_ARP_02_RPSs_Bdr_GK_BIS2.obj
 0001:000a7380       _c9_d_emlrt_marshallIn     100a8380 f   c9_ARP_02_RPSs_Bdr_GK_BIS2.obj
 0001:000a73d0       _c9_m_emlrt_marshallIn     100a83d0 f   c9_ARP_02_RPSs_Bdr_GK_BIS2.obj
 0001:000a7420       _c9_n_emlrt_marshallIn     100a8420 f   c9_ARP_02_RPSs_Bdr_GK_BIS2.obj
 0001:000a7470       _c9_o_emlrt_marshallIn     100a8470 f   c9_ARP_02_RPSs_Bdr_GK_BIS2.obj
 0001:000a74c0       _c9_p_emlrt_marshallIn     100a84c0 f   c9_ARP_02_RPSs_Bdr_GK_BIS2.obj
 0001:000a7550       _c9_q_emlrt_marshallIn     100a8550 f   c9_ARP_02_RPSs_Bdr_GK_BIS2.obj
 0001:000a75a0       _c9_r_emlrt_marshallIn     100a85a0 f   c9_ARP_02_RPSs_Bdr_GK_BIS2.obj
 0001:000a7630       _c9_s_emlrt_marshallIn     100a8630 f   c9_ARP_02_RPSs_Bdr_GK_BIS2.obj
 0001:000a7680       _c9_t_emlrt_marshallIn     100a8680 f   c9_ARP_02_RPSs_Bdr_GK_BIS2.obj
 0001:000a7700       _c9_u_emlrt_marshallIn     100a8700 f   c9_ARP_02_RPSs_Bdr_GK_BIS2.obj
 0001:000a7750       _c9_v_emlrt_marshallIn     100a8750 f   c9_ARP_02_RPSs_Bdr_GK_BIS2.obj
 0001:000a77d0       _c9_w_emlrt_marshallIn     100a87d0 f   c9_ARP_02_RPSs_Bdr_GK_BIS2.obj
 0001:000a7820       _c9_x_emlrt_marshallIn     100a8820 f   c9_ARP_02_RPSs_Bdr_GK_BIS2.obj
 0001:000a78f0       _c9_y_emlrt_marshallIn     100a88f0 f   c9_ARP_02_RPSs_Bdr_GK_BIS2.obj
 0001:000a7940       _c9_ab_emlrt_marshallIn    100a8940 f   c9_ARP_02_RPSs_Bdr_GK_BIS2.obj
 0001:000a79e0       _c9_bb_emlrt_marshallIn    100a89e0 f   c9_ARP_02_RPSs_Bdr_GK_BIS2.obj
 0001:000a7a30       _c9_cb_emlrt_marshallIn    100a8a30 f   c9_ARP_02_RPSs_Bdr_GK_BIS2.obj
 0001:000a7a80       _c9_db_emlrt_marshallIn    100a8a80 f   c9_ARP_02_RPSs_Bdr_GK_BIS2.obj
 0001:000a7ae0       _c9_eb_emlrt_marshallIn    100a8ae0 f   c9_ARP_02_RPSs_Bdr_GK_BIS2.obj
 0001:000a7b80       _mdlProcessParameters_c9_ARP_02_RPSs_Bdr_GK_BIS2 100a8b80 f   c9_ARP_02_RPSs_Bdr_GK_BIS2.obj
 0001:000a7c30       _initialize_params_c9_ARP_02_RPSs_Bdr_GK_BIS2 100a8c30 f   c9_ARP_02_RPSs_Bdr_GK_BIS2.obj
 0001:000a7c40       _mdlSetWorkWidths_c9_ARP_02_RPSs_Bdr_GK_BIS2 100a8c40 f   c9_ARP_02_RPSs_Bdr_GK_BIS2.obj
 0001:000a7f60       _sf_get_instance_specialization 100a8f60 f   c9_ARP_02_RPSs_Bdr_GK_BIS2.obj
 0001:000a7f70       _mdlStart_c9_ARP_02_RPSs_Bdr_GK_BIS2 100a8f70 f   c9_ARP_02_RPSs_Bdr_GK_BIS2.obj
 0001:000a8110       _init_dsm_address_info     100a9110 f   c9_ARP_02_RPSs_Bdr_GK_BIS2.obj
 0001:000a8980       _chart_debug_initialization 100a9980 f   c9_ARP_02_RPSs_Bdr_GK_BIS2.obj
 0001:000aeac0       _init_script_number_translation 100afac0 f   c9_ARP_02_RPSs_Bdr_GK_BIS2.obj
 0001:000aeb20       _c9_kc_sf_marshallOut      100afb20 f   c9_ARP_02_RPSs_Bdr_GK_BIS2.obj
 0001:000aec00       _c9_k_sf_marshallIn        100afc00 f   c9_ARP_02_RPSs_Bdr_GK_BIS2.obj
 0001:000aecb0       _c9_lc_sf_marshallOut      100afcb0 f   c9_ARP_02_RPSs_Bdr_GK_BIS2.obj
 0001:000aed90       _c9_l_sf_marshallIn        100afd90 f   c9_ARP_02_RPSs_Bdr_GK_BIS2.obj
 0001:000aee40       _sf_opaque_initialize_c9_ARP_02_RPSs_Bdr_GK_BIS2 100afe40 f   c9_ARP_02_RPSs_Bdr_GK_BIS2.obj
 0001:000aee70       _initialize_c9_ARP_02_RPSs_Bdr_GK_BIS2 100afe70 f   c9_ARP_02_RPSs_Bdr_GK_BIS2.obj
 0001:000aee80       _sf_opaque_enable_c9_ARP_02_RPSs_Bdr_GK_BIS2 100afe80 f   c9_ARP_02_RPSs_Bdr_GK_BIS2.obj
 0001:000aeea0       _enable_c9_ARP_02_RPSs_Bdr_GK_BIS2 100afea0 f   c9_ARP_02_RPSs_Bdr_GK_BIS2.obj
 0001:000aeeb0       _sf_opaque_disable_c9_ARP_02_RPSs_Bdr_GK_BIS2 100afeb0 f   c9_ARP_02_RPSs_Bdr_GK_BIS2.obj
 0001:000aeed0       _disable_c9_ARP_02_RPSs_Bdr_GK_BIS2 100afed0 f   c9_ARP_02_RPSs_Bdr_GK_BIS2.obj
 0001:000aeee0       _sf_opaque_gateway_c9_ARP_02_RPSs_Bdr_GK_BIS2 100afee0 f   c9_ARP_02_RPSs_Bdr_GK_BIS2.obj
 0001:000aef00       _sf_gateway_c9_ARP_02_RPSs_Bdr_GK_BIS2 100aff00 f   c9_ARP_02_RPSs_Bdr_GK_BIS2.obj
 0001:000aef20       _c9_set_sim_state_side_effects_c9_ARP_02_RPSs_Bdr_GK_BIS2 100aff20 f   c9_ARP_02_RPSs_Bdr_GK_BIS2.obj
 0001:000af370       _sf_opaque_get_sim_state_c9_ARP_02_RPSs_Bdr_GK_BIS2 100b0370 f   c9_ARP_02_RPSs_Bdr_GK_BIS2.obj
 0001:000af380       _sf_opaque_set_sim_state_c9_ARP_02_RPSs_Bdr_GK_BIS2 100b0380 f   c9_ARP_02_RPSs_Bdr_GK_BIS2.obj
 0001:000af390       _sf_opaque_terminate_c9_ARP_02_RPSs_Bdr_GK_BIS2 100b0390 f   c9_ARP_02_RPSs_Bdr_GK_BIS2.obj
 0001:000af420       _finalize_c9_ARP_02_RPSs_Bdr_GK_BIS2 100b0420 f   c9_ARP_02_RPSs_Bdr_GK_BIS2.obj
 0001:000af440       _sf_opaque_init_subchart_simstructs 100b0440 f   c9_ARP_02_RPSs_Bdr_GK_BIS2.obj
 0001:000af460       _initSimStructsc9_ARP_02_RPSs_Bdr_GK_BIS2 100b0460 f   c9_ARP_02_RPSs_Bdr_GK_BIS2.obj
 0001:000af470       _mdlRTW_c9_ARP_02_RPSs_Bdr_GK_BIS2 100b0470 f   c9_ARP_02_RPSs_Bdr_GK_BIS2.obj
 0001:000af530       _c10_info_helper           100b0530 f   c10_ARP_02_RPSs_Bdr_GK_BIS2.obj
 0001:000af720       _c10_emlrt_marshallOut     100b0720 f   c10_ARP_02_RPSs_Bdr_GK_BIS2.obj
 0001:000af780       _c10_b_emlrt_marshallOut   100b0780 f   c10_ARP_02_RPSs_Bdr_GK_BIS2.obj
 0001:000af800       _c10_activate_secsc10_ARP_02_RPSs_Bdr_GK_BIS2 100b0800 f   c10_ARP_02_RPSs_Bdr_GK_BIS2.obj
 0001:000af890       _c10_increment_counters_secsc10_ARP_02_RPSs_Bdr_GK_BIS2 100b0890 f   c10_ARP_02_RPSs_Bdr_GK_BIS2.obj
 0001:000af8f0       _c10_reset_counters_secsc10_ARP_02_RPSs_Bdr_GK_BIS2 100b08f0 f   c10_ARP_02_RPSs_Bdr_GK_BIS2.obj
 0001:000af930       _c10_deactivate_secsc10_ARP_02_RPSs_Bdr_GK_BIS2 100b0930 f   c10_ARP_02_RPSs_Bdr_GK_BIS2.obj
 0001:000af9f0       _c10_c10_ARP_02_RPSs_Bdr_GK_BIS2 100b09f0 f   c10_ARP_02_RPSs_Bdr_GK_BIS2.obj
 0001:000b1a20       _c10_gazeMiddle            100b2a20 f   c10_ARP_02_RPSs_Bdr_GK_BIS2.obj
 0001:000b2b10       _c10_stateIdleL            100b3b10 f   c10_ARP_02_RPSs_Bdr_GK_BIS2.obj
 0001:000b3730       _c10_stateGazeLeft         100b4730 f   c10_ARP_02_RPSs_Bdr_GK_BIS2.obj
 0001:000b4640       _c10_stateIdleM            100b5640 f   c10_ARP_02_RPSs_Bdr_GK_BIS2.obj
 0001:000b50c0       _c10_gazeRight             100b60c0 f   c10_ARP_02_RPSs_Bdr_GK_BIS2.obj
 0001:000b5ff0       _c10_b_sf_marshallOut      100b6ff0 f   c10_ARP_02_RPSs_Bdr_GK_BIS2.obj
 0001:000b6070       _c10_b_sf_marshallIn       100b7070 f   c10_ARP_02_RPSs_Bdr_GK_BIS2.obj
 0001:000b60f0       _c10_c_emlrt_marshallIn    100b70f0 f   c10_ARP_02_RPSs_Bdr_GK_BIS2.obj
 0001:000b6140       _c10_c_sf_marshallOut      100b7140 f   c10_ARP_02_RPSs_Bdr_GK_BIS2.obj
 0001:000b61c0       _c10_c_sf_marshallIn       100b71c0 f   c10_ARP_02_RPSs_Bdr_GK_BIS2.obj
 0001:000b6240       _c10_d_emlrt_marshallIn    100b7240 f   c10_ARP_02_RPSs_Bdr_GK_BIS2.obj
 0001:000b62e0       _c10_enter_atomic_c10_ARP_02_RPSs_Bdr_GK_BIS2 100b72e0 f   c10_ARP_02_RPSs_Bdr_GK_BIS2.obj
 0001:000b6390       _c10_enter_internal_c10_ARP_02_RPSs_Bdr_GK_BIS2 100b7390 f   c10_ARP_02_RPSs_Bdr_GK_BIS2.obj
 0001:000b65d0       _c10_exit_internal_c10_ARP_02_RPSs_Bdr_GK_BIS2 100b75d0 f   c10_ARP_02_RPSs_Bdr_GK_BIS2.obj
 0001:000b6c60       _c10_initc10_ARP_02_RPSs_Bdr_GK_BIS2 100b7c60 f   c10_ARP_02_RPSs_Bdr_GK_BIS2.obj
 0001:000b6e00       _c10_gazeFollowUserMovec10_ARP_02_RPSs_Bdr_GK_BIS2 100b7e00 f   c10_ARP_02_RPSs_Bdr_GK_BIS2.obj
 0001:000b7900       _c10_encStr2Arr            100b8900 f   c10_ARP_02_RPSs_Bdr_GK_BIS2.obj
 0001:000b7e50       _c10_b_encStr2Arr          100b8e50 f   c10_ARP_02_RPSs_Bdr_GK_BIS2.obj
 0001:000b83c0       _c10_c_encStr2Arr          100b93c0 f   c10_ARP_02_RPSs_Bdr_GK_BIS2.obj
 0001:000b8900       _c10_sf_marshallOut        100b9900 f   c10_ARP_02_RPSs_Bdr_GK_BIS2.obj
 0001:000b8a30       _c10_sf_marshallIn         100b9a30 f   c10_ARP_02_RPSs_Bdr_GK_BIS2.obj
 0001:000b8b20       _c10_emlrt_marshallIn      100b9b20 f   c10_ARP_02_RPSs_Bdr_GK_BIS2.obj
 0001:000b8bd0       _c10_d_sf_marshallOut      100b9bd0 f   c10_ARP_02_RPSs_Bdr_GK_BIS2.obj
 0001:000b8d00       _c10_d_sf_marshallIn       100b9d00 f   c10_ARP_02_RPSs_Bdr_GK_BIS2.obj
 0001:000b8df0       _c10_e_emlrt_marshallIn    100b9df0 f   c10_ARP_02_RPSs_Bdr_GK_BIS2.obj
 0001:000b8e90       _c10_e_sf_marshallOut      100b9e90 f   c10_ARP_02_RPSs_Bdr_GK_BIS2.obj
 0001:000b8fc0       _c10_f_sf_marshallOut      100b9fc0 f   c10_ARP_02_RPSs_Bdr_GK_BIS2.obj
 0001:000b90f0       _c10_g_sf_marshallOut      100ba0f0 f   c10_ARP_02_RPSs_Bdr_GK_BIS2.obj
 0001:000b9220       _c10_h_sf_marshallOut      100ba220 f   c10_ARP_02_RPSs_Bdr_GK_BIS2.obj
 0001:000b9350       _c10_i_sf_marshallOut      100ba350 f   c10_ARP_02_RPSs_Bdr_GK_BIS2.obj
 0001:000b9460       _c10_j_sf_marshallOut      100ba460 f   c10_ARP_02_RPSs_Bdr_GK_BIS2.obj
 0001:000b95b0       _c10_updateDataWrittenToVector 100ba5b0 f   c10_ARP_02_RPSs_Bdr_GK_BIS2.obj
 0001:000b9600       _c10_errorIfDataNotWrittenToFcn 100ba600 f   c10_ARP_02_RPSs_Bdr_GK_BIS2.obj
 0001:000b9680       _c10_set_BML               100ba680 f   c10_ARP_02_RPSs_Bdr_GK_BIS2.obj
 0001:000b9710       _c10_get_STATE_BEFORE      100ba710 f   c10_ARP_02_RPSs_Bdr_GK_BIS2.obj
 0001:000b97a0       _c10_get_STATE_OVER        100ba7a0 f   c10_ARP_02_RPSs_Bdr_GK_BIS2.obj
 0001:000b9830       _c10_get_STATE_READY       100ba830 f   c10_ARP_02_RPSs_Bdr_GK_BIS2.obj
 0001:000b98c0       _c10_set_pr                100ba8c0 f   c10_ARP_02_RPSs_Bdr_GK_BIS2.obj
 0001:000b9de0       _get_sim_state_c10_ARP_02_RPSs_Bdr_GK_BIS2 100bade0 f   c10_ARP_02_RPSs_Bdr_GK_BIS2.obj
 0001:000b9fc0       _sf_get_sim_state_info_c10_ARP_02_RPSs_Bdr_GK_BIS2 100bafc0 f   c10_ARP_02_RPSs_Bdr_GK_BIS2.obj
 0001:000ba140       _set_sim_state_c10_ARP_02_RPSs_Bdr_GK_BIS2 100bb140 f   c10_ARP_02_RPSs_Bdr_GK_BIS2.obj
 0001:000ba2a0       _c10_update_debugger_state_c10_ARP_02_RPSs_Bdr_GK_BIS2 100bb2a0 f   c10_ARP_02_RPSs_Bdr_GK_BIS2.obj
 0001:000ba830       _c10_b_emlrt_marshallIn    100bb830 f   c10_ARP_02_RPSs_Bdr_GK_BIS2.obj
 0001:000ba880       _c10_h_emlrt_marshallIn    100bb880 f   c10_ARP_02_RPSs_Bdr_GK_BIS2.obj
 0001:000ba8d0       _c10_i_emlrt_marshallIn    100bb8d0 f   c10_ARP_02_RPSs_Bdr_GK_BIS2.obj
 0001:000ba920       _c10_j_emlrt_marshallIn    100bb920 f   c10_ARP_02_RPSs_Bdr_GK_BIS2.obj
 0001:000ba980       _c10_k_emlrt_marshallIn    100bb980 f   c10_ARP_02_RPSs_Bdr_GK_BIS2.obj
 0001:000baa20       _mdlProcessParameters_c10_ARP_02_RPSs_Bdr_GK_BIS2 100bba20 f   c10_ARP_02_RPSs_Bdr_GK_BIS2.obj
 0001:000baad0       _initialize_params_c10_ARP_02_RPSs_Bdr_GK_BIS2 100bbad0 f   c10_ARP_02_RPSs_Bdr_GK_BIS2.obj
 0001:000baae0       _mdlSetWorkWidths_c10_ARP_02_RPSs_Bdr_GK_BIS2 100bbae0 f   c10_ARP_02_RPSs_Bdr_GK_BIS2.obj
 0001:000bae80       _sf_get_instance_specialization 100bbe80 f   c10_ARP_02_RPSs_Bdr_GK_BIS2.obj
 0001:000bae90       _mdlStart_c10_ARP_02_RPSs_Bdr_GK_BIS2 100bbe90 f   c10_ARP_02_RPSs_Bdr_GK_BIS2.obj
 0001:000bb030       _init_dsm_address_info     100bc030 f   c10_ARP_02_RPSs_Bdr_GK_BIS2.obj
 0001:000bb260       _chart_debug_initialization 100bc260 f   c10_ARP_02_RPSs_Bdr_GK_BIS2.obj
 0001:000bcc40       _init_script_number_translation 100bdc40 f   c10_ARP_02_RPSs_Bdr_GK_BIS2.obj
 0001:000bcc80       _sf_opaque_initialize_c10_ARP_02_RPSs_Bdr_GK_BIS2 100bdc80 f   c10_ARP_02_RPSs_Bdr_GK_BIS2.obj
 0001:000bccb0       _initialize_c10_ARP_02_RPSs_Bdr_GK_BIS2 100bdcb0 f   c10_ARP_02_RPSs_Bdr_GK_BIS2.obj
 0001:000bccc0       _sf_opaque_enable_c10_ARP_02_RPSs_Bdr_GK_BIS2 100bdcc0 f   c10_ARP_02_RPSs_Bdr_GK_BIS2.obj
 0001:000bcce0       _enable_c10_ARP_02_RPSs_Bdr_GK_BIS2 100bdce0 f   c10_ARP_02_RPSs_Bdr_GK_BIS2.obj
 0001:000bccf0       _sf_opaque_disable_c10_ARP_02_RPSs_Bdr_GK_BIS2 100bdcf0 f   c10_ARP_02_RPSs_Bdr_GK_BIS2.obj
 0001:000bcd10       _disable_c10_ARP_02_RPSs_Bdr_GK_BIS2 100bdd10 f   c10_ARP_02_RPSs_Bdr_GK_BIS2.obj
 0001:000bcd20       _sf_opaque_gateway_c10_ARP_02_RPSs_Bdr_GK_BIS2 100bdd20 f   c10_ARP_02_RPSs_Bdr_GK_BIS2.obj
 0001:000bcd40       _sf_gateway_c10_ARP_02_RPSs_Bdr_GK_BIS2 100bdd40 f   c10_ARP_02_RPSs_Bdr_GK_BIS2.obj
 0001:000bcd60       _c10_set_sim_state_side_effects_c10_ARP_02_RPSs_Bdr_GK_BIS2 100bdd60 f   c10_ARP_02_RPSs_Bdr_GK_BIS2.obj
 0001:000bcf50       _sf_opaque_get_sim_state_c10_ARP_02_RPSs_Bdr_GK_BIS2 100bdf50 f   c10_ARP_02_RPSs_Bdr_GK_BIS2.obj
 0001:000bcf60       _sf_opaque_set_sim_state_c10_ARP_02_RPSs_Bdr_GK_BIS2 100bdf60 f   c10_ARP_02_RPSs_Bdr_GK_BIS2.obj
 0001:000bcf70       _sf_opaque_terminate_c10_ARP_02_RPSs_Bdr_GK_BIS2 100bdf70 f   c10_ARP_02_RPSs_Bdr_GK_BIS2.obj
 0001:000bd000       _finalize_c10_ARP_02_RPSs_Bdr_GK_BIS2 100be000 f   c10_ARP_02_RPSs_Bdr_GK_BIS2.obj
 0001:000bd020       _sf_opaque_init_subchart_simstructs 100be020 f   c10_ARP_02_RPSs_Bdr_GK_BIS2.obj
 0001:000bd040       _initSimStructsc10_ARP_02_RPSs_Bdr_GK_BIS2 100be040 f   c10_ARP_02_RPSs_Bdr_GK_BIS2.obj
 0001:000bd050       _mdlRTW_c10_ARP_02_RPSs_Bdr_GK_BIS2 100be050 f   c10_ARP_02_RPSs_Bdr_GK_BIS2.obj
 0001:000bd100       _c11_info_helper           100be100 f   c11_ARP_02_RPSs_Bdr_GK_BIS2.obj
 0001:000bd2f0       _c11_emlrt_marshallOut     100be2f0 f   c11_ARP_02_RPSs_Bdr_GK_BIS2.obj
 0001:000bd350       _c11_b_emlrt_marshallOut   100be350 f   c11_ARP_02_RPSs_Bdr_GK_BIS2.obj
 0001:000bd3d0       _c11_activate_secsc11_ARP_02_RPSs_Bdr_GK_BIS2 100be3d0 f   c11_ARP_02_RPSs_Bdr_GK_BIS2.obj
 0001:000bd460       _c11_increment_counters_secsc11_ARP_02_RPSs_Bdr_GK_BIS2 100be460 f   c11_ARP_02_RPSs_Bdr_GK_BIS2.obj
 0001:000bd4a0       _c11_reset_counters_secsc11_ARP_02_RPSs_Bdr_GK_BIS2 100be4a0 f   c11_ARP_02_RPSs_Bdr_GK_BIS2.obj
 0001:000bd4e0       _c11_deactivate_secsc11_ARP_02_RPSs_Bdr_GK_BIS2 100be4e0 f   c11_ARP_02_RPSs_Bdr_GK_BIS2.obj
 0001:000bd5a0       _c11_c11_ARP_02_RPSs_Bdr_GK_BIS2 100be5a0 f   c11_ARP_02_RPSs_Bdr_GK_BIS2.obj
 0001:000bf100       _c11_b_sf_marshallOut      100c0100 f   c11_ARP_02_RPSs_Bdr_GK_BIS2.obj
 0001:000bf180       _c11_b_sf_marshallIn       100c0180 f   c11_ARP_02_RPSs_Bdr_GK_BIS2.obj
 0001:000bf200       _c11_c_emlrt_marshallIn    100c0200 f   c11_ARP_02_RPSs_Bdr_GK_BIS2.obj
 0001:000bf250       _c11_c_sf_marshallOut      100c0250 f   c11_ARP_02_RPSs_Bdr_GK_BIS2.obj
 0001:000bf2d0       _c11_c_sf_marshallIn       100c02d0 f   c11_ARP_02_RPSs_Bdr_GK_BIS2.obj
 0001:000bf350       _c11_d_emlrt_marshallIn    100c0350 f   c11_ARP_02_RPSs_Bdr_GK_BIS2.obj
 0001:000bf3f0       _c11_enter_atomic_c11_ARP_02_RPSs_Bdr_GK_BIS2 100c03f0 f   c11_ARP_02_RPSs_Bdr_GK_BIS2.obj
 0001:000bf4a0       _c11_enter_internal_c11_ARP_02_RPSs_Bdr_GK_BIS2 100c04a0 f   c11_ARP_02_RPSs_Bdr_GK_BIS2.obj
 0001:000bf6c0       _c11_exit_internal_c11_ARP_02_RPSs_Bdr_GK_BIS2 100c06c0 f   c11_ARP_02_RPSs_Bdr_GK_BIS2.obj
 0001:000bfb80       _c11_initc11_ARP_02_RPSs_Bdr_GK_BIS2 100c0b80 f   c11_ARP_02_RPSs_Bdr_GK_BIS2.obj
 0001:000bfcd0       _c11_smileTablec11_ARP_02_RPSs_Bdr_GK_BIS2 100c0cd0 f   c11_ARP_02_RPSs_Bdr_GK_BIS2.obj
 0001:000c0a80       _c11_encStr2Arr            100c1a80 f   c11_ARP_02_RPSs_Bdr_GK_BIS2.obj
 0001:000c1010       _c11_sf_marshallOut        100c2010 f   c11_ARP_02_RPSs_Bdr_GK_BIS2.obj
 0001:000c1130       _c11_sf_marshallIn         100c2130 f   c11_ARP_02_RPSs_Bdr_GK_BIS2.obj
 0001:000c1210       _c11_emlrt_marshallIn      100c2210 f   c11_ARP_02_RPSs_Bdr_GK_BIS2.obj
 0001:000c12a0       _c11_d_sf_marshallOut      100c22a0 f   c11_ARP_02_RPSs_Bdr_GK_BIS2.obj
 0001:000c13a0       _c11_d_sf_marshallIn       100c23a0 f   c11_ARP_02_RPSs_Bdr_GK_BIS2.obj
 0001:000c1490       _c11_e_emlrt_marshallIn    100c2490 f   c11_ARP_02_RPSs_Bdr_GK_BIS2.obj
 0001:000c1530       _c11_e_sf_marshallOut      100c2530 f   c11_ARP_02_RPSs_Bdr_GK_BIS2.obj
 0001:000c1650       _c11_f_sf_marshallOut      100c2650 f   c11_ARP_02_RPSs_Bdr_GK_BIS2.obj
 0001:000c1750       _c11_g_sf_marshallOut      100c2750 f   c11_ARP_02_RPSs_Bdr_GK_BIS2.obj
 0001:000c1850       _c11_h_sf_marshallOut      100c2850 f   c11_ARP_02_RPSs_Bdr_GK_BIS2.obj
 0001:000c1990       _c11_updateDataWrittenToVector 100c2990 f   c11_ARP_02_RPSs_Bdr_GK_BIS2.obj
 0001:000c19e0       _c11_set_BML               100c29e0 f   c11_ARP_02_RPSs_Bdr_GK_BIS2.obj
 0001:000c1a70       _c11_get_avert             100c2a70 f   c11_ARP_02_RPSs_Bdr_GK_BIS2.obj
 0001:000c1b00       _c11_set_avert             100c2b00 f   c11_ARP_02_RPSs_Bdr_GK_BIS2.obj
 0001:000c1b90       _c11_set_pr                100c2b90 f   c11_ARP_02_RPSs_Bdr_GK_BIS2.obj
 0001:000c20b0       _get_sim_state_c11_ARP_02_RPSs_Bdr_GK_BIS2 100c30b0 f   c11_ARP_02_RPSs_Bdr_GK_BIS2.obj
 0001:000c2220       _sf_get_sim_state_info_c11_ARP_02_RPSs_Bdr_GK_BIS2 100c3220 f   c11_ARP_02_RPSs_Bdr_GK_BIS2.obj
 0001:000c23a0       _set_sim_state_c11_ARP_02_RPSs_Bdr_GK_BIS2 100c33a0 f   c11_ARP_02_RPSs_Bdr_GK_BIS2.obj
 0001:000c24c0       _c11_update_debugger_state_c11_ARP_02_RPSs_Bdr_GK_BIS2 100c34c0 f   c11_ARP_02_RPSs_Bdr_GK_BIS2.obj
 0001:000c2850       _c11_b_emlrt_marshallIn    100c3850 f   c11_ARP_02_RPSs_Bdr_GK_BIS2.obj
 0001:000c28a0       _c11_h_emlrt_marshallIn    100c38a0 f   c11_ARP_02_RPSs_Bdr_GK_BIS2.obj
 0001:000c28f0       _c11_i_emlrt_marshallIn    100c38f0 f   c11_ARP_02_RPSs_Bdr_GK_BIS2.obj
 0001:000c2940       _c11_j_emlrt_marshallIn    100c3940 f   c11_ARP_02_RPSs_Bdr_GK_BIS2.obj
 0001:000c29a0       _c11_k_emlrt_marshallIn    100c39a0 f   c11_ARP_02_RPSs_Bdr_GK_BIS2.obj
 0001:000c2a40       _mdlProcessParameters_c11_ARP_02_RPSs_Bdr_GK_BIS2 100c3a40 f   c11_ARP_02_RPSs_Bdr_GK_BIS2.obj
 0001:000c2af0       _initialize_params_c11_ARP_02_RPSs_Bdr_GK_BIS2 100c3af0 f   c11_ARP_02_RPSs_Bdr_GK_BIS2.obj
 0001:000c2b00       _mdlSetWorkWidths_c11_ARP_02_RPSs_Bdr_GK_BIS2 100c3b00 f   c11_ARP_02_RPSs_Bdr_GK_BIS2.obj
 0001:000c2e90       _sf_get_instance_specialization 100c3e90 f   c11_ARP_02_RPSs_Bdr_GK_BIS2.obj
 0001:000c2ea0       _mdlStart_c11_ARP_02_RPSs_Bdr_GK_BIS2 100c3ea0 f   c11_ARP_02_RPSs_Bdr_GK_BIS2.obj
 0001:000c3040       _init_dsm_address_info     100c4040 f   c11_ARP_02_RPSs_Bdr_GK_BIS2.obj
 0001:000c3270       _chart_debug_initialization 100c4270 f   c11_ARP_02_RPSs_Bdr_GK_BIS2.obj
 0001:000c4670       _init_script_number_translation 100c5670 f   c11_ARP_02_RPSs_Bdr_GK_BIS2.obj
 0001:000c46b0       _sf_opaque_initialize_c11_ARP_02_RPSs_Bdr_GK_BIS2 100c56b0 f   c11_ARP_02_RPSs_Bdr_GK_BIS2.obj
 0001:000c46e0       _initialize_c11_ARP_02_RPSs_Bdr_GK_BIS2 100c56e0 f   c11_ARP_02_RPSs_Bdr_GK_BIS2.obj
 0001:000c46f0       _sf_opaque_enable_c11_ARP_02_RPSs_Bdr_GK_BIS2 100c56f0 f   c11_ARP_02_RPSs_Bdr_GK_BIS2.obj
 0001:000c4710       _enable_c11_ARP_02_RPSs_Bdr_GK_BIS2 100c5710 f   c11_ARP_02_RPSs_Bdr_GK_BIS2.obj
 0001:000c4720       _sf_opaque_disable_c11_ARP_02_RPSs_Bdr_GK_BIS2 100c5720 f   c11_ARP_02_RPSs_Bdr_GK_BIS2.obj
 0001:000c4740       _disable_c11_ARP_02_RPSs_Bdr_GK_BIS2 100c5740 f   c11_ARP_02_RPSs_Bdr_GK_BIS2.obj
 0001:000c4750       _sf_opaque_gateway_c11_ARP_02_RPSs_Bdr_GK_BIS2 100c5750 f   c11_ARP_02_RPSs_Bdr_GK_BIS2.obj
 0001:000c4770       _sf_gateway_c11_ARP_02_RPSs_Bdr_GK_BIS2 100c5770 f   c11_ARP_02_RPSs_Bdr_GK_BIS2.obj
 0001:000c4790       _c11_set_sim_state_side_effects_c11_ARP_02_RPSs_Bdr_GK_BIS2 100c5790 f   c11_ARP_02_RPSs_Bdr_GK_BIS2.obj
 0001:000c4850       _sf_opaque_get_sim_state_c11_ARP_02_RPSs_Bdr_GK_BIS2 100c5850 f   c11_ARP_02_RPSs_Bdr_GK_BIS2.obj
 0001:000c4860       _sf_opaque_set_sim_state_c11_ARP_02_RPSs_Bdr_GK_BIS2 100c5860 f   c11_ARP_02_RPSs_Bdr_GK_BIS2.obj
 0001:000c4870       _sf_opaque_terminate_c11_ARP_02_RPSs_Bdr_GK_BIS2 100c5870 f   c11_ARP_02_RPSs_Bdr_GK_BIS2.obj
 0001:000c4900       _finalize_c11_ARP_02_RPSs_Bdr_GK_BIS2 100c5900 f   c11_ARP_02_RPSs_Bdr_GK_BIS2.obj
 0001:000c4920       _sf_opaque_init_subchart_simstructs 100c5920 f   c11_ARP_02_RPSs_Bdr_GK_BIS2.obj
 0001:000c4940       _initSimStructsc11_ARP_02_RPSs_Bdr_GK_BIS2 100c5940 f   c11_ARP_02_RPSs_Bdr_GK_BIS2.obj
 0001:000c4950       _mdlRTW_c11_ARP_02_RPSs_Bdr_GK_BIS2 100c5950 f   c11_ARP_02_RPSs_Bdr_GK_BIS2.obj
 0001:000c4f50       _get_sim_state_c12_ARP_02_RPSs_Bdr_GK_BIS2 100c5f50 f   c12_ARP_02_RPSs_Bdr_GK_BIS2.obj
 0001:000c5070       _sf_get_sim_state_info_c12_ARP_02_RPSs_Bdr_GK_BIS2 100c6070 f   c12_ARP_02_RPSs_Bdr_GK_BIS2.obj
 0001:000c51f0       _set_sim_state_c12_ARP_02_RPSs_Bdr_GK_BIS2 100c61f0 f   c12_ARP_02_RPSs_Bdr_GK_BIS2.obj
 0001:000c52b0       _c12_update_debugger_state_c12_ARP_02_RPSs_Bdr_GK_BIS2 100c62b0 f   c12_ARP_02_RPSs_Bdr_GK_BIS2.obj
 0001:000c52c0       _c12_emlrt_marshallIn      100c62c0 f   c12_ARP_02_RPSs_Bdr_GK_BIS2.obj
 0001:000c5310       _c12_b_emlrt_marshallIn    100c6310 f   c12_ARP_02_RPSs_Bdr_GK_BIS2.obj
 0001:000c5360       _c12_e_emlrt_marshallIn    100c6360 f   c12_ARP_02_RPSs_Bdr_GK_BIS2.obj
 0001:000c53b0       _c12_f_emlrt_marshallIn    100c63b0 f   c12_ARP_02_RPSs_Bdr_GK_BIS2.obj
 0001:000c5460       _mdlProcessParameters_c12_ARP_02_RPSs_Bdr_GK_BIS2 100c6460 f   c12_ARP_02_RPSs_Bdr_GK_BIS2.obj
 0001:000c5510       _initialize_params_c12_ARP_02_RPSs_Bdr_GK_BIS2 100c6510 f   c12_ARP_02_RPSs_Bdr_GK_BIS2.obj
 0001:000c5520       _mdlSetWorkWidths_c12_ARP_02_RPSs_Bdr_GK_BIS2 100c6520 f   c12_ARP_02_RPSs_Bdr_GK_BIS2.obj
 0001:000c58c0       _sf_get_instance_specialization 100c68c0 f   c12_ARP_02_RPSs_Bdr_GK_BIS2.obj
 0001:000c58d0       _mdlStart_c12_ARP_02_RPSs_Bdr_GK_BIS2 100c68d0 f   c12_ARP_02_RPSs_Bdr_GK_BIS2.obj
 0001:000c5a70       _init_dsm_address_info     100c6a70 f   c12_ARP_02_RPSs_Bdr_GK_BIS2.obj
 0001:000c5a80       _chart_debug_initialization 100c6a80 f   c12_ARP_02_RPSs_Bdr_GK_BIS2.obj
 0001:000c63a0       _init_script_number_translation 100c73a0 f   c12_ARP_02_RPSs_Bdr_GK_BIS2.obj
 0001:000c63b0       _c12_sf_marshallOut        100c73b0 f   c12_ARP_02_RPSs_Bdr_GK_BIS2.obj
 0001:000c6430       _c12_sf_marshallIn         100c7430 f   c12_ARP_02_RPSs_Bdr_GK_BIS2.obj
 0001:000c64b0       _sf_opaque_initialize_c12_ARP_02_RPSs_Bdr_GK_BIS2 100c74b0 f   c12_ARP_02_RPSs_Bdr_GK_BIS2.obj
 0001:000c64e0       _initialize_c12_ARP_02_RPSs_Bdr_GK_BIS2 100c74e0 f   c12_ARP_02_RPSs_Bdr_GK_BIS2.obj
 0001:000c6510       _sf_opaque_enable_c12_ARP_02_RPSs_Bdr_GK_BIS2 100c7510 f   c12_ARP_02_RPSs_Bdr_GK_BIS2.obj
 0001:000c6530       _enable_c12_ARP_02_RPSs_Bdr_GK_BIS2 100c7530 f   c12_ARP_02_RPSs_Bdr_GK_BIS2.obj
 0001:000c6550       _sf_opaque_disable_c12_ARP_02_RPSs_Bdr_GK_BIS2 100c7550 f   c12_ARP_02_RPSs_Bdr_GK_BIS2.obj
 0001:000c6570       _disable_c12_ARP_02_RPSs_Bdr_GK_BIS2 100c7570 f   c12_ARP_02_RPSs_Bdr_GK_BIS2.obj
 0001:000c6590       _sf_opaque_gateway_c12_ARP_02_RPSs_Bdr_GK_BIS2 100c7590 f   c12_ARP_02_RPSs_Bdr_GK_BIS2.obj
 0001:000c65b0       _sf_gateway_c12_ARP_02_RPSs_Bdr_GK_BIS2 100c75b0 f   c12_ARP_02_RPSs_Bdr_GK_BIS2.obj
 0001:000c6760       _c12_chartstep_c12_ARP_02_RPSs_Bdr_GK_BIS2 100c7760 f   c12_ARP_02_RPSs_Bdr_GK_BIS2.obj
 0001:000c8090       _c12_b_sf_marshallOut      100c9090 f   c12_ARP_02_RPSs_Bdr_GK_BIS2.obj
 0001:000c8110       _c12_b_sf_marshallIn       100c9110 f   c12_ARP_02_RPSs_Bdr_GK_BIS2.obj
 0001:000c8190       _c12_c_emlrt_marshallIn    100c9190 f   c12_ARP_02_RPSs_Bdr_GK_BIS2.obj
 0001:000c81e0       _sf_opaque_get_sim_state_c12_ARP_02_RPSs_Bdr_GK_BIS2 100c91e0 f   c12_ARP_02_RPSs_Bdr_GK_BIS2.obj
 0001:000c8200       _sf_opaque_set_sim_state_c12_ARP_02_RPSs_Bdr_GK_BIS2 100c9200 f   c12_ARP_02_RPSs_Bdr_GK_BIS2.obj
 0001:000c8220       _sf_opaque_terminate_c12_ARP_02_RPSs_Bdr_GK_BIS2 100c9220 f   c12_ARP_02_RPSs_Bdr_GK_BIS2.obj
 0001:000c82b0       _finalize_c12_ARP_02_RPSs_Bdr_GK_BIS2 100c92b0 f   c12_ARP_02_RPSs_Bdr_GK_BIS2.obj
 0001:000c82c0       _sf_opaque_init_subchart_simstructs 100c92c0 f   c12_ARP_02_RPSs_Bdr_GK_BIS2.obj
 0001:000c82e0       _initSimStructsc12_ARP_02_RPSs_Bdr_GK_BIS2 100c92e0 f   c12_ARP_02_RPSs_Bdr_GK_BIS2.obj
 0001:000c82f0       _mdlRTW_c12_ARP_02_RPSs_Bdr_GK_BIS2 100c92f0 f   c12_ARP_02_RPSs_Bdr_GK_BIS2.obj
 0001:000c8800       _get_sim_state_c13_ARP_02_RPSs_Bdr_GK_BIS2 100c9800 f   c13_ARP_02_RPSs_Bdr_GK_BIS2.obj
 0001:000c8920       _sf_get_sim_state_info_c13_ARP_02_RPSs_Bdr_GK_BIS2 100c9920 f   c13_ARP_02_RPSs_Bdr_GK_BIS2.obj
 0001:000c8aa0       _set_sim_state_c13_ARP_02_RPSs_Bdr_GK_BIS2 100c9aa0 f   c13_ARP_02_RPSs_Bdr_GK_BIS2.obj
 0001:000c8b60       _c13_update_debugger_state_c13_ARP_02_RPSs_Bdr_GK_BIS2 100c9b60 f   c13_ARP_02_RPSs_Bdr_GK_BIS2.obj
 0001:000c8b70       _c13_emlrt_marshallIn      100c9b70 f   c13_ARP_02_RPSs_Bdr_GK_BIS2.obj
 0001:000c8bc0       _c13_b_emlrt_marshallIn    100c9bc0 f   c13_ARP_02_RPSs_Bdr_GK_BIS2.obj
 0001:000c8c10       _c13_d_emlrt_marshallIn    100c9c10 f   c13_ARP_02_RPSs_Bdr_GK_BIS2.obj
 0001:000c8c60       _c13_e_emlrt_marshallIn    100c9c60 f   c13_ARP_02_RPSs_Bdr_GK_BIS2.obj
 0001:000c8d10       _mdlProcessParameters_c13_ARP_02_RPSs_Bdr_GK_BIS2 100c9d10 f   c13_ARP_02_RPSs_Bdr_GK_BIS2.obj
 0001:000c8dc0       _initialize_params_c13_ARP_02_RPSs_Bdr_GK_BIS2 100c9dc0 f   c13_ARP_02_RPSs_Bdr_GK_BIS2.obj
 0001:000c8dd0       _mdlSetWorkWidths_c13_ARP_02_RPSs_Bdr_GK_BIS2 100c9dd0 f   c13_ARP_02_RPSs_Bdr_GK_BIS2.obj
 0001:000c9150       _sf_get_instance_specialization 100ca150 f   c13_ARP_02_RPSs_Bdr_GK_BIS2.obj
 0001:000c9160       _mdlStart_c13_ARP_02_RPSs_Bdr_GK_BIS2 100ca160 f   c13_ARP_02_RPSs_Bdr_GK_BIS2.obj
 0001:000c9300       _init_dsm_address_info     100ca300 f   c13_ARP_02_RPSs_Bdr_GK_BIS2.obj
 0001:000c9310       _chart_debug_initialization 100ca310 f   c13_ARP_02_RPSs_Bdr_GK_BIS2.obj
 0001:000c97f0       _init_script_number_translation 100ca7f0 f   c13_ARP_02_RPSs_Bdr_GK_BIS2.obj
 0001:000c9800       _c13_sf_marshallOut        100ca800 f   c13_ARP_02_RPSs_Bdr_GK_BIS2.obj
 0001:000c9880       _c13_sf_marshallIn         100ca880 f   c13_ARP_02_RPSs_Bdr_GK_BIS2.obj
 0001:000c9900       _sf_opaque_initialize_c13_ARP_02_RPSs_Bdr_GK_BIS2 100ca900 f   c13_ARP_02_RPSs_Bdr_GK_BIS2.obj
 0001:000c9930       _initialize_c13_ARP_02_RPSs_Bdr_GK_BIS2 100ca930 f   c13_ARP_02_RPSs_Bdr_GK_BIS2.obj
 0001:000c9960       _sf_opaque_enable_c13_ARP_02_RPSs_Bdr_GK_BIS2 100ca960 f   c13_ARP_02_RPSs_Bdr_GK_BIS2.obj
 0001:000c9980       _enable_c13_ARP_02_RPSs_Bdr_GK_BIS2 100ca980 f   c13_ARP_02_RPSs_Bdr_GK_BIS2.obj
 0001:000c99a0       _sf_opaque_disable_c13_ARP_02_RPSs_Bdr_GK_BIS2 100ca9a0 f   c13_ARP_02_RPSs_Bdr_GK_BIS2.obj
 0001:000c99c0       _disable_c13_ARP_02_RPSs_Bdr_GK_BIS2 100ca9c0 f   c13_ARP_02_RPSs_Bdr_GK_BIS2.obj
 0001:000c99e0       _sf_opaque_gateway_c13_ARP_02_RPSs_Bdr_GK_BIS2 100ca9e0 f   c13_ARP_02_RPSs_Bdr_GK_BIS2.obj
 0001:000c9a00       _sf_gateway_c13_ARP_02_RPSs_Bdr_GK_BIS2 100caa00 f   c13_ARP_02_RPSs_Bdr_GK_BIS2.obj
 0001:000c9f80       _sf_opaque_get_sim_state_c13_ARP_02_RPSs_Bdr_GK_BIS2 100caf80 f   c13_ARP_02_RPSs_Bdr_GK_BIS2.obj
 0001:000c9fa0       _sf_opaque_set_sim_state_c13_ARP_02_RPSs_Bdr_GK_BIS2 100cafa0 f   c13_ARP_02_RPSs_Bdr_GK_BIS2.obj
 0001:000c9fc0       _sf_opaque_terminate_c13_ARP_02_RPSs_Bdr_GK_BIS2 100cafc0 f   c13_ARP_02_RPSs_Bdr_GK_BIS2.obj
 0001:000ca050       _finalize_c13_ARP_02_RPSs_Bdr_GK_BIS2 100cb050 f   c13_ARP_02_RPSs_Bdr_GK_BIS2.obj
 0001:000ca060       _sf_opaque_init_subchart_simstructs 100cb060 f   c13_ARP_02_RPSs_Bdr_GK_BIS2.obj
 0001:000ca080       _initSimStructsc13_ARP_02_RPSs_Bdr_GK_BIS2 100cb080 f   c13_ARP_02_RPSs_Bdr_GK_BIS2.obj
 0001:000ca090       _mdlRTW_c13_ARP_02_RPSs_Bdr_GK_BIS2 100cb090 f   c13_ARP_02_RPSs_Bdr_GK_BIS2.obj
 0001:000ca5a0       _get_sim_state_c14_ARP_02_RPSs_Bdr_GK_BIS2 100cb5a0 f   c14_ARP_02_RPSs_Bdr_GK_BIS2.obj
 0001:000ca6c0       _sf_get_sim_state_info_c14_ARP_02_RPSs_Bdr_GK_BIS2 100cb6c0 f   c14_ARP_02_RPSs_Bdr_GK_BIS2.obj
 0001:000ca840       _set_sim_state_c14_ARP_02_RPSs_Bdr_GK_BIS2 100cb840 f   c14_ARP_02_RPSs_Bdr_GK_BIS2.obj
 0001:000ca900       _c14_update_debugger_state_c14_ARP_02_RPSs_Bdr_GK_BIS2 100cb900 f   c14_ARP_02_RPSs_Bdr_GK_BIS2.obj
 0001:000ca910       _c14_emlrt_marshallIn      100cb910 f   c14_ARP_02_RPSs_Bdr_GK_BIS2.obj
 0001:000ca960       _c14_b_emlrt_marshallIn    100cb960 f   c14_ARP_02_RPSs_Bdr_GK_BIS2.obj
 0001:000ca9b0       _c14_d_emlrt_marshallIn    100cb9b0 f   c14_ARP_02_RPSs_Bdr_GK_BIS2.obj
 0001:000caa00       _c14_e_emlrt_marshallIn    100cba00 f   c14_ARP_02_RPSs_Bdr_GK_BIS2.obj
 0001:000caab0       _mdlProcessParameters_c14_ARP_02_RPSs_Bdr_GK_BIS2 100cbab0 f   c14_ARP_02_RPSs_Bdr_GK_BIS2.obj
 0001:000cab60       _initialize_params_c14_ARP_02_RPSs_Bdr_GK_BIS2 100cbb60 f   c14_ARP_02_RPSs_Bdr_GK_BIS2.obj
 0001:000cab70       _mdlSetWorkWidths_c14_ARP_02_RPSs_Bdr_GK_BIS2 100cbb70 f   c14_ARP_02_RPSs_Bdr_GK_BIS2.obj
 0001:000caef0       _sf_get_instance_specialization 100cbef0 f   c14_ARP_02_RPSs_Bdr_GK_BIS2.obj
 0001:000caf00       _mdlStart_c14_ARP_02_RPSs_Bdr_GK_BIS2 100cbf00 f   c14_ARP_02_RPSs_Bdr_GK_BIS2.obj
 0001:000cb0a0       _init_dsm_address_info     100cc0a0 f   c14_ARP_02_RPSs_Bdr_GK_BIS2.obj
 0001:000cb0b0       _chart_debug_initialization 100cc0b0 f   c14_ARP_02_RPSs_Bdr_GK_BIS2.obj
 0001:000cb650       _init_script_number_translation 100cc650 f   c14_ARP_02_RPSs_Bdr_GK_BIS2.obj
 0001:000cb660       _c14_sf_marshallOut        100cc660 f   c14_ARP_02_RPSs_Bdr_GK_BIS2.obj
 0001:000cb6e0       _c14_sf_marshallIn         100cc6e0 f   c14_ARP_02_RPSs_Bdr_GK_BIS2.obj
 0001:000cb760       _sf_opaque_initialize_c14_ARP_02_RPSs_Bdr_GK_BIS2 100cc760 f   c14_ARP_02_RPSs_Bdr_GK_BIS2.obj
 0001:000cb790       _initialize_c14_ARP_02_RPSs_Bdr_GK_BIS2 100cc790 f   c14_ARP_02_RPSs_Bdr_GK_BIS2.obj
 0001:000cb7c0       _sf_opaque_enable_c14_ARP_02_RPSs_Bdr_GK_BIS2 100cc7c0 f   c14_ARP_02_RPSs_Bdr_GK_BIS2.obj
 0001:000cb7e0       _enable_c14_ARP_02_RPSs_Bdr_GK_BIS2 100cc7e0 f   c14_ARP_02_RPSs_Bdr_GK_BIS2.obj
 0001:000cb800       _sf_opaque_disable_c14_ARP_02_RPSs_Bdr_GK_BIS2 100cc800 f   c14_ARP_02_RPSs_Bdr_GK_BIS2.obj
 0001:000cb820       _disable_c14_ARP_02_RPSs_Bdr_GK_BIS2 100cc820 f   c14_ARP_02_RPSs_Bdr_GK_BIS2.obj
 0001:000cb840       _sf_opaque_gateway_c14_ARP_02_RPSs_Bdr_GK_BIS2 100cc840 f   c14_ARP_02_RPSs_Bdr_GK_BIS2.obj
 0001:000cb860       _sf_gateway_c14_ARP_02_RPSs_Bdr_GK_BIS2 100cc860 f   c14_ARP_02_RPSs_Bdr_GK_BIS2.obj
 0001:000cc0c0       _sf_opaque_get_sim_state_c14_ARP_02_RPSs_Bdr_GK_BIS2 100cd0c0 f   c14_ARP_02_RPSs_Bdr_GK_BIS2.obj
 0001:000cc0e0       _sf_opaque_set_sim_state_c14_ARP_02_RPSs_Bdr_GK_BIS2 100cd0e0 f   c14_ARP_02_RPSs_Bdr_GK_BIS2.obj
 0001:000cc100       _sf_opaque_terminate_c14_ARP_02_RPSs_Bdr_GK_BIS2 100cd100 f   c14_ARP_02_RPSs_Bdr_GK_BIS2.obj
 0001:000cc190       _finalize_c14_ARP_02_RPSs_Bdr_GK_BIS2 100cd190 f   c14_ARP_02_RPSs_Bdr_GK_BIS2.obj
 0001:000cc1a0       _sf_opaque_init_subchart_simstructs 100cd1a0 f   c14_ARP_02_RPSs_Bdr_GK_BIS2.obj
 0001:000cc1c0       _initSimStructsc14_ARP_02_RPSs_Bdr_GK_BIS2 100cd1c0 f   c14_ARP_02_RPSs_Bdr_GK_BIS2.obj
 0001:000cc1d0       _mdlRTW_c14_ARP_02_RPSs_Bdr_GK_BIS2 100cd1d0 f   c14_ARP_02_RPSs_Bdr_GK_BIS2.obj
 0001:000cc910       _getChartInfoFromSimStruct 100cd910 f   ARP_02_RPSs_Bdr_GK_BIS2_sfun_registry.obj
 0001:000cda10       __ssFatalError             100cea10 f   ARP_02_RPSs_Bdr_GK_BIS2_sfun_registry.obj
 0001:000cfd70       _ProcessMexSfunctionCmdLineCall 100d0d70 f   ARP_02_RPSs_Bdr_GK_BIS2_sfun_registry.obj
 0001:000cfe90       _sf_debug_api_wrapper      100d0e90 f   ARP_02_RPSs_Bdr_GK_BIS2_sfun_registry.obj
 0001:000cfec0       _mdlStart                  100d0ec0 f   ARP_02_RPSs_Bdr_GK_BIS2_sfun_registry.obj
 0001:000cfee0       _mdl_start_processing      100d0ee0 f   ARP_02_RPSs_Bdr_GK_BIS2_sfun_registry.obj
 0001:000cff50       _mdlTerminate              100d0f50 f   ARP_02_RPSs_Bdr_GK_BIS2_sfun_registry.obj
 0001:000cff70       _mdl_terminate_processing  100d0f70 f   ARP_02_RPSs_Bdr_GK_BIS2_sfun_registry.obj
 0001:000cffe0       _mdlInitializeSampleTimes  100d0fe0 f   ARP_02_RPSs_Bdr_GK_BIS2_sfun_registry.obj
 0001:000d0000       _mdlZeroCrossings          100d1000 f   ARP_02_RPSs_Bdr_GK_BIS2_sfun_registry.obj
 0001:000d0020       _mdl_zeroCrossings_processing 100d1020 f   ARP_02_RPSs_Bdr_GK_BIS2_sfun_registry.obj
 0001:000d0050       _mdlDerivatives            100d1050 f   ARP_02_RPSs_Bdr_GK_BIS2_sfun_registry.obj
 0001:000d0070       _mdl_derivatives_processing 100d1070 f   ARP_02_RPSs_Bdr_GK_BIS2_sfun_registry.obj
 0001:000d00b0       _mdlInitializeConditions   100d10b0 f   ARP_02_RPSs_Bdr_GK_BIS2_sfun_registry.obj
 0001:000d00d0       _mdl_initialize_conditions_processing 100d10d0 f   ARP_02_RPSs_Bdr_GK_BIS2_sfun_registry.obj
 0001:000d0110       _mdlEnable                 100d1110 f   ARP_02_RPSs_Bdr_GK_BIS2_sfun_registry.obj
 0001:000d0130       _mdl_enable_processing     100d1130 f   ARP_02_RPSs_Bdr_GK_BIS2_sfun_registry.obj
 0001:000d0160       _mdlDisable                100d1160 f   ARP_02_RPSs_Bdr_GK_BIS2_sfun_registry.obj
 0001:000d0180       _mdl_disable_processing    100d1180 f   ARP_02_RPSs_Bdr_GK_BIS2_sfun_registry.obj
 0001:000d01b0       _mdlOutputs                100d11b0 f   ARP_02_RPSs_Bdr_GK_BIS2_sfun_registry.obj
 0001:000d01d0       _mdl_outputs_processing    100d11d0 f   ARP_02_RPSs_Bdr_GK_BIS2_sfun_registry.obj
 0001:000d02a0       _mdl_outputs_continuous_legacy 100d12a0 f   ARP_02_RPSs_Bdr_GK_BIS2_sfun_registry.obj
 0001:000d0370       _mdlGetTimeOfNextVarHit    100d1370 f   ARP_02_RPSs_Bdr_GK_BIS2_sfun_registry.obj
 0001:000d03b0       __ProcessMexSfunctionCmdLineCall 100d13b0 f   ARP_02_RPSs_Bdr_GK_BIS2_sfun_registry.obj
 0001:000d09d0       _mdlSetWorkWidths          100d19d0 f   ARP_02_RPSs_Bdr_GK_BIS2_sfun_registry.obj
 0001:000d09f0       _mdlProcessParameters      100d19f0 f   ARP_02_RPSs_Bdr_GK_BIS2_sfun_registry.obj
 0001:000d0a10       _mdlInitializeSizes        100d1a10 f   ARP_02_RPSs_Bdr_GK_BIS2_sfun_registry.obj
 0001:000d0a30       _mdlExtModeExec            100d1a30 f   ARP_02_RPSs_Bdr_GK_BIS2_sfun_registry.obj
 0001:000d0a50       _mdl_ext_mode_exec_processing 100d1a50 f   ARP_02_RPSs_Bdr_GK_BIS2_sfun_registry.obj
 0001:000d0a90       _mdlRTW                    100d1a90 f   ARP_02_RPSs_Bdr_GK_BIS2_sfun_registry.obj
 0001:000d0ac0       __CreateSimStruct          100d1ac0 f   ARP_02_RPSs_Bdr_GK_BIS2_sfun_registry.obj
 0001:000d0bf0       __RegNumInputPortsCB       100d1bf0 f   ARP_02_RPSs_Bdr_GK_BIS2_sfun_registry.obj
 0001:000d0c50       __RegNumOutputPortsCB      100d1c50 f   ARP_02_RPSs_Bdr_GK_BIS2_sfun_registry.obj
 0001:000d1211       _pre_c_init                100d2211 f   MSVCRT:crtdll.obj
 0001:000d1469       ___DllMainCRTStartup       100d2469 f   MSVCRT:crtdll.obj
