 testWalkStepWorldSim_sfun

 Timestamp is 560b2a9d (Tue Sep 29 17:19:41 2015)

 Preferred load address is 10000000

 Start         Length     Name                   Class
 0001:00000000 0010c174H .text                   CODE
 0002:00000000 000002bcH .idata$5                DATA
 0002:000002bc 00000004H .CRT$XCA                DATA
 0002:000002c0 00000004H .CRT$XCZ                DATA
 0002:000002c4 00000004H .CRT$XIA                DATA
 0002:000002c8 00000004H .CRT$XIAA               DATA
 0002:000002cc 00000004H .CRT$XIC                DATA
 0002:000002d0 00000004H .CRT$XIZ                DATA
 0002:000002d8 00000b80H .rdata                  DATA
 0002:00000e60 00000004H .rdata$sxdata           DATA
 0002:00000e64 00000004H .rtc$IAA                DATA
 0002:00000e68 00000004H .rtc$IZZ                DATA
 0002:00000e6c 00000004H .rtc$TAA                DATA
 0002:00000e70 00000004H .rtc$TZZ                DATA
 0002:00000e78 00000064H .xdata$x                DATA
 0002:00000edc 0000008cH .idata$2                DATA
 0002:00000f68 00000014H .idata$3                DATA
 0002:00000f7c 000002bcH .idata$4                DATA
 0002:00001238 00001008H .idata$6                DATA
 0002:00002240 0000005fH .edata                  DATA
 0003:00000000 0004f050H .data                   DATA
 0003:0004f050 000005d0H .bss                    DATA

  Address         Publics by Value              Rva+Base       Lib:Object

 0000:00000000       __except_list              00000000     <absolute>
 0000:00000001       ___safe_se_handler_count   00000001     <absolute>
 0000:00009876       __fltused                  00009876     <absolute>
 0000:00009876       __ldused                   00009876     <absolute>
 0000:00000000       ___ImageBase               10000000     <linker-defined>
 0001:00000000       _testWalkStepWorldSim_initializer 10001000 f   testWalkStepWorldSim_sfun.obj
 0001:00000010       _testWalkStepWorldSim_terminator 10001010 f   testWalkStepWorldSim_sfun.obj
 0001:00000020       _sf_testWalkStepWorldSim_method_dispatcher 10001020 f   testWalkStepWorldSim_sfun.obj
 0001:000001b0       _sf_testWalkStepWorldSim_process_check_sum_call 100011b0 f   testWalkStepWorldSim_sfun.obj
 0001:00000660       _sf_testWalkStepWorldSim_autoinheritance_info 10001660 f   testWalkStepWorldSim_sfun.obj
 0001:00000a30       _sf_testWalkStepWorldSim_get_eml_resolved_functions_info 10001a30 f   testWalkStepWorldSim_sfun.obj
 0001:00000d40       _sf_testWalkStepWorldSim_third_party_uses_info 10001d40 f   testWalkStepWorldSim_sfun.obj
 0001:00001060       _sf_testWalkStepWorldSim_updateBuildInfo_args_info 10002060 f   testWalkStepWorldSim_sfun.obj
 0001:00001380       _testWalkStepWorldSim_debug_initialize 10002380 f   testWalkStepWorldSim_sfun.obj
 0001:000013e0       _testWalkStepWorldSim_register_exported_symbols 100023e0 f   testWalkStepWorldSim_sfun.obj
 0001:000013f0       _load_testWalkStepWorldSim_optimization_info 100023f0 f   testWalkStepWorldSim_sfun.obj
 0001:00001430       _unload_testWalkStepWorldSim_optimization_info 10002430 f   testWalkStepWorldSim_sfun.obj
 0001:00001470       _sf_c1_testWalkStepWorldSim_get_eml_resolved_functions_info 10002470 f   c1_testWalkStepWorldSim.obj
 0001:00001ef0       _sf_c1_testWalkStepWorldSim_get_check_sum 10002ef0 f   c1_testWalkStepWorldSim.obj
 0001:00001f50       _sf_c1_testWalkStepWorldSim_get_autoinheritance_info 10002f50 f   c1_testWalkStepWorldSim.obj
 0001:00007600       _sf_c1_testWalkStepWorldSim_third_party_uses_info 10008600 f   c1_testWalkStepWorldSim.obj
 0001:00007620       _sf_c1_testWalkStepWorldSim_updateBuildInfo_args_info 10008620 f   c1_testWalkStepWorldSim.obj
 0001:00007640       _sf_internal_get_sim_state_c1_testWalkStepWorldSim 10008640 f   c1_testWalkStepWorldSim.obj
 0001:0000bce0       _sf_internal_set_sim_state_c1_testWalkStepWorldSim 1000cce0 f   c1_testWalkStepWorldSim.obj
 0001:0000ff20       _c1_testWalkStepWorldSim_method_dispatcher 10010f20 f   c1_testWalkStepWorldSim.obj
 0001:00021ba0       _sf_c2_testWalkStepWorldSim_get_eml_resolved_functions_info 10022ba0 f   c2_testWalkStepWorldSim.obj
 0001:00021ea0       _sf_c2_testWalkStepWorldSim_get_check_sum 10022ea0 f   c2_testWalkStepWorldSim.obj
 0001:00021f00       _sf_c2_testWalkStepWorldSim_get_autoinheritance_info 10022f00 f   c2_testWalkStepWorldSim.obj
 0001:00022710       _sf_c2_testWalkStepWorldSim_third_party_uses_info 10023710 f   c2_testWalkStepWorldSim.obj
 0001:00022730       _sf_c2_testWalkStepWorldSim_updateBuildInfo_args_info 10023730 f   c2_testWalkStepWorldSim.obj
 0001:00022750       _sf_internal_get_sim_state_c2_testWalkStepWorldSim 10023750 f   c2_testWalkStepWorldSim.obj
 0001:00022990       _sf_internal_set_sim_state_c2_testWalkStepWorldSim 10023990 f   c2_testWalkStepWorldSim.obj
 0001:00022ba0       _c2_testWalkStepWorldSim_method_dispatcher 10023ba0 f   c2_testWalkStepWorldSim.obj
 0001:00024f60       _sf_c4_testWalkStepWorldSim_get_eml_resolved_functions_info 10025f60 f   c4_testWalkStepWorldSim.obj
 0001:00029bf0       _sf_exported_auto_activate_c4_testWalkStepWorldSim_secs 1002abf0 f   c4_testWalkStepWorldSim.obj
 0001:00029c80       _sf_exported_auto_incrementTemporalCounter_c4_testWalkStepWorldSim_secs 1002ac80 f   c4_testWalkStepWorldSim.obj
 0001:00029ce0       _sf_exported_auto_resetTemporalCounter_c4_testWalkStepWorldSim_secs 1002ace0 f   c4_testWalkStepWorldSim.obj
 0001:00029d20       _sf_exported_auto_deactivate_c4_testWalkStepWorldSim_secs 1002ad20 f   c4_testWalkStepWorldSim.obj
 0001:00029db0       _sf_exported_auto_isStablec4_testWalkStepWorldSim 1002adb0 f   c4_testWalkStepWorldSim.obj
 0001:00029de0       _sf_exported_auto_duringc4_testWalkStepWorldSim 1002ade0 f   c4_testWalkStepWorldSim.obj
 0001:0002e1d0       _sf_exported_auto_enterc4_testWalkStepWorldSim 1002f1d0 f   c4_testWalkStepWorldSim.obj
 0001:0002f360       _sf_exported_auto_exitc4_testWalkStepWorldSim 10030360 f   c4_testWalkStepWorldSim.obj
 0001:0002f770       _sf_exported_auto_gatewayc4_testWalkStepWorldSim 10030770 f   c4_testWalkStepWorldSim.obj
 0001:0002f7a0       _sf_exported_auto_enablec4_testWalkStepWorldSim 100307a0 f   c4_testWalkStepWorldSim.obj
 0001:0002f7d0       _sf_exported_auto_disablec4_testWalkStepWorldSim 100307d0 f   c4_testWalkStepWorldSim.obj
 0001:0002f800       _sf_exported_auto_stepBuffersc4_testWalkStepWorldSim 10030800 f   c4_testWalkStepWorldSim.obj
 0001:0002f820       _sf_exported_auto_initBuffersc4_testWalkStepWorldSim 10030820 f   c4_testWalkStepWorldSim.obj
 0001:0002f840       _sf_exported_auto_activate_callc4_testWalkStepWorldSim 10030840 f   c4_testWalkStepWorldSim.obj
 0001:0002f870       _sf_exported_auto_increment_call_counterc4_testWalkStepWorldSim 10030870 f   c4_testWalkStepWorldSim.obj
 0001:0002f890       _sf_exported_auto_reset_call_counterc4_testWalkStepWorldSim 10030890 f   c4_testWalkStepWorldSim.obj
 0001:0002f8b0       _sf_exported_auto_deactivate_callc4_testWalkStepWorldSim 100308b0 f   c4_testWalkStepWorldSim.obj
 0001:0002f8d0       _sf_exported_auto_initc4_testWalkStepWorldSim 100308d0 f   c4_testWalkStepWorldSim.obj
 0001:0002f9c0       _sf_exported_auto_getSimstatec4_testWalkStepWorldSim 100309c0 f   c4_testWalkStepWorldSim.obj
 0001:0002fa10       _sf_exported_auto_setSimstatec4_testWalkStepWorldSim 10030a10 f   c4_testWalkStepWorldSim.obj
 0001:0002fa50       _sf_exported_auto_check_state_inconsistency_c4_testWalkStepWorldSim 10030a50 f   c4_testWalkStepWorldSim.obj
 0001:0003d640       _sf_exported_user_c4_testWalkStepWorldSim_idlePoseBradTable 1003e640 f   c4_testWalkStepWorldSim.obj
 0001:0003d690       _sf_exported_user_c4_testWalkStepWorldSim_insertQueueLow 1003e690 f   c4_testWalkStepWorldSim.obj
 0001:0003d750       _sf_exported_user_c4_testWalkStepWorldSim_walkInvadingTable 1003e750 f   c4_testWalkStepWorldSim.obj
 0001:000422d0       _sf_c4_testWalkStepWorldSim_get_check_sum 100432d0 f   c4_testWalkStepWorldSim.obj
 0001:00042330       _sf_c4_testWalkStepWorldSim_get_autoinheritance_info 10043330 f   c4_testWalkStepWorldSim.obj
 0001:00042be0       _sf_c4_testWalkStepWorldSim_third_party_uses_info 10043be0 f   c4_testWalkStepWorldSim.obj
 0001:00042c00       _sf_c4_testWalkStepWorldSim_updateBuildInfo_args_info 10043c00 f   c4_testWalkStepWorldSim.obj
 0001:00042c20       _sf_internal_get_sim_state_c4_testWalkStepWorldSim 10043c20 f   c4_testWalkStepWorldSim.obj
 0001:00043540       _sf_internal_set_sim_state_c4_testWalkStepWorldSim 10044540 f   c4_testWalkStepWorldSim.obj
 0001:000444f0       _c4_testWalkStepWorldSim_method_dispatcher 100454f0 f   c4_testWalkStepWorldSim.obj
 0001:00049540       _sf_c5_testWalkStepWorldSim_get_eml_resolved_functions_info 1004a540 f   c5_testWalkStepWorldSim.obj
 0001:0004b290       _sf_exported_auto_activate_c5_testWalkStepWorldSim_secs 1004c290 f   c5_testWalkStepWorldSim.obj
 0001:0004b320       _sf_exported_auto_incrementTemporalCounter_c5_testWalkStepWorldSim_secs 1004c320 f   c5_testWalkStepWorldSim.obj
 0001:0004b3c0       _sf_exported_auto_resetTemporalCounter_c5_testWalkStepWorldSim_secs 1004c3c0 f   c5_testWalkStepWorldSim.obj
 0001:0004b400       _sf_exported_auto_deactivate_c5_testWalkStepWorldSim_secs 1004c400 f   c5_testWalkStepWorldSim.obj
 0001:0004b490       _sf_exported_auto_isStablec5_testWalkStepWorldSim 1004c490 f   c5_testWalkStepWorldSim.obj
 0001:0004b4c0       _sf_exported_auto_duringc5_testWalkStepWorldSim 1004c4c0 f   c5_testWalkStepWorldSim.obj
 0001:000563b0       _sf_exported_auto_enterc5_testWalkStepWorldSim 100573b0 f   c5_testWalkStepWorldSim.obj
 0001:00057420       _sf_exported_auto_exitc5_testWalkStepWorldSim 10058420 f   c5_testWalkStepWorldSim.obj
 0001:00058790       _sf_exported_auto_gatewayc5_testWalkStepWorldSim 10059790 f   c5_testWalkStepWorldSim.obj
 0001:000587c0       _sf_exported_auto_enablec5_testWalkStepWorldSim 100597c0 f   c5_testWalkStepWorldSim.obj
 0001:00058800       _sf_exported_auto_disablec5_testWalkStepWorldSim 10059800 f   c5_testWalkStepWorldSim.obj
 0001:00058840       _sf_exported_auto_stepBuffersc5_testWalkStepWorldSim 10059840 f   c5_testWalkStepWorldSim.obj
 0001:00058860       _sf_exported_auto_initBuffersc5_testWalkStepWorldSim 10059860 f   c5_testWalkStepWorldSim.obj
 0001:00058880       _sf_exported_auto_activate_callc5_testWalkStepWorldSim 10059880 f   c5_testWalkStepWorldSim.obj
 0001:000588b0       _sf_exported_auto_increment_call_counterc5_testWalkStepWorldSim 100598b0 f   c5_testWalkStepWorldSim.obj
 0001:000588d0       _sf_exported_auto_reset_call_counterc5_testWalkStepWorldSim 100598d0 f   c5_testWalkStepWorldSim.obj
 0001:000588f0       _sf_exported_auto_deactivate_callc5_testWalkStepWorldSim 100598f0 f   c5_testWalkStepWorldSim.obj
 0001:00058910       _sf_exported_auto_initc5_testWalkStepWorldSim 10059910 f   c5_testWalkStepWorldSim.obj
 0001:00058b60       _sf_exported_auto_getSimstatec5_testWalkStepWorldSim 10059b60 f   c5_testWalkStepWorldSim.obj
 0001:00058bb0       _sf_exported_auto_setSimstatec5_testWalkStepWorldSim 10059bb0 f   c5_testWalkStepWorldSim.obj
 0001:00058bf0       _sf_exported_auto_check_state_inconsistency_c5_testWalkStepWorldSim 10059bf0 f   c5_testWalkStepWorldSim.obj
 0001:0006c300       _sf_exported_user_c5_testWalkStepWorldSim_handPoseSBTable 1006d300 f   c5_testWalkStepWorldSim.obj
 0001:0006ebe0       _sf_exported_user_c5_testWalkStepWorldSim_idlePoseBradTable 1006fbe0 f   c5_testWalkStepWorldSim.obj
 0001:0006ec30       _sf_exported_user_c5_testWalkStepWorldSim_initialPoseTable 1006fc30 f   c5_testWalkStepWorldSim.obj
 0001:0006ec80       _sf_exported_user_c5_testWalkStepWorldSim_insertQueue 1006fc80 f   c5_testWalkStepWorldSim.obj
 0001:0006ed40       _sf_exported_user_c5_testWalkStepWorldSim_insertQueueLow 1006fd40 f   c5_testWalkStepWorldSim.obj
 0001:0006ee10       _sf_exported_user_c5_testWalkStepWorldSim_paperPoseBradTable 1006fe10 f   c5_testWalkStepWorldSim.obj
 0001:0006ee60       _sf_exported_user_c5_testWalkStepWorldSim_rockPoseTable 1006fe60 f   c5_testWalkStepWorldSim.obj
 0001:0006eeb0       _sf_exported_user_c5_testWalkStepWorldSim_scissorsPoseBradTable 1006feb0 f   c5_testWalkStepWorldSim.obj
 0001:0006ef00       _sf_exported_user_c5_testWalkStepWorldSim_sendSBM 1006ff00 f   c5_testWalkStepWorldSim.obj
 0001:00071740       _sf_c5_testWalkStepWorldSim_get_check_sum 10072740 f   c5_testWalkStepWorldSim.obj
 0001:000717a0       _sf_c5_testWalkStepWorldSim_get_autoinheritance_info 100727a0 f   c5_testWalkStepWorldSim.obj
 0001:00072490       _sf_c5_testWalkStepWorldSim_third_party_uses_info 10073490 f   c5_testWalkStepWorldSim.obj
 0001:000724b0       _sf_c5_testWalkStepWorldSim_updateBuildInfo_args_info 100734b0 f   c5_testWalkStepWorldSim.obj
 0001:000724d0       _sf_internal_get_sim_state_c5_testWalkStepWorldSim 100734d0 f   c5_testWalkStepWorldSim.obj
 0001:00073070       _sf_internal_set_sim_state_c5_testWalkStepWorldSim 10074070 f   c5_testWalkStepWorldSim.obj
 0001:00074d90       _c5_testWalkStepWorldSim_method_dispatcher 10075d90 f   c5_testWalkStepWorldSim.obj
 0001:0007f490       _sf_c8_testWalkStepWorldSim_get_eml_resolved_functions_info 10080490 f   c8_testWalkStepWorldSim.obj
 0001:0007ff10       _sf_exported_auto_activate_c8_testWalkStepWorldSim_secs 10080f10 f   c8_testWalkStepWorldSim.obj
 0001:0007ffa0       _sf_exported_auto_incrementTemporalCounter_c8_testWalkStepWorldSim_secs 10080fa0 f   c8_testWalkStepWorldSim.obj
 0001:00080000       _sf_exported_auto_resetTemporalCounter_c8_testWalkStepWorldSim_secs 10081000 f   c8_testWalkStepWorldSim.obj
 0001:00080040       _sf_exported_auto_deactivate_c8_testWalkStepWorldSim_secs 10081040 f   c8_testWalkStepWorldSim.obj
 0001:000800d0       _sf_exported_auto_isStablec8_testWalkStepWorldSim 100810d0 f   c8_testWalkStepWorldSim.obj
 0001:00080100       _sf_exported_auto_duringc8_testWalkStepWorldSim 10081100 f   c8_testWalkStepWorldSim.obj
 0001:00086b70       _sf_exported_auto_enterc8_testWalkStepWorldSim 10087b70 f   c8_testWalkStepWorldSim.obj
 0001:00088230       _sf_exported_auto_exitc8_testWalkStepWorldSim 10089230 f   c8_testWalkStepWorldSim.obj
 0001:00088a80       _sf_exported_auto_gatewayc8_testWalkStepWorldSim 10089a80 f   c8_testWalkStepWorldSim.obj
 0001:00088ab0       _sf_exported_auto_enablec8_testWalkStepWorldSim 10089ab0 f   c8_testWalkStepWorldSim.obj
 0001:00088ae0       _sf_exported_auto_disablec8_testWalkStepWorldSim 10089ae0 f   c8_testWalkStepWorldSim.obj
 0001:00088b10       _sf_exported_auto_stepBuffersc8_testWalkStepWorldSim 10089b10 f   c8_testWalkStepWorldSim.obj
 0001:00088b30       _sf_exported_auto_initBuffersc8_testWalkStepWorldSim 10089b30 f   c8_testWalkStepWorldSim.obj
 0001:00088b50       _sf_exported_auto_activate_callc8_testWalkStepWorldSim 10089b50 f   c8_testWalkStepWorldSim.obj
 0001:00088b80       _sf_exported_auto_increment_call_counterc8_testWalkStepWorldSim 10089b80 f   c8_testWalkStepWorldSim.obj
 0001:00088ba0       _sf_exported_auto_reset_call_counterc8_testWalkStepWorldSim 10089ba0 f   c8_testWalkStepWorldSim.obj
 0001:00088bc0       _sf_exported_auto_deactivate_callc8_testWalkStepWorldSim 10089bc0 f   c8_testWalkStepWorldSim.obj
 0001:00088be0       _sf_exported_auto_initc8_testWalkStepWorldSim 10089be0 f   c8_testWalkStepWorldSim.obj
 0001:00088d00       _sf_exported_auto_getSimstatec8_testWalkStepWorldSim 10089d00 f   c8_testWalkStepWorldSim.obj
 0001:00088d50       _sf_exported_auto_setSimstatec8_testWalkStepWorldSim 10089d50 f   c8_testWalkStepWorldSim.obj
 0001:00088d90       _sf_exported_auto_check_state_inconsistency_c8_testWalkStepWorldSim 10089d90 f   c8_testWalkStepWorldSim.obj
 0001:0008feb0       _sf_exported_user_c8_testWalkStepWorldSim_insertQueue 10090eb0 f   c8_testWalkStepWorldSim.obj
 0001:0008ff80       _sf_exported_user_c8_testWalkStepWorldSim_insertQueueLow 10090f80 f   c8_testWalkStepWorldSim.obj
 0001:00090d80       _sf_exported_user_c8_testWalkStepWorldSim_walkInvadingTable 10091d80 f   c8_testWalkStepWorldSim.obj
 0001:00091200       _sf_c8_testWalkStepWorldSim_get_check_sum 10092200 f   c8_testWalkStepWorldSim.obj
 0001:00091260       _sf_c8_testWalkStepWorldSim_get_autoinheritance_info 10092260 f   c8_testWalkStepWorldSim.obj
 0001:00092510       _sf_c8_testWalkStepWorldSim_third_party_uses_info 10093510 f   c8_testWalkStepWorldSim.obj
 0001:00092530       _sf_c8_testWalkStepWorldSim_updateBuildInfo_args_info 10093530 f   c8_testWalkStepWorldSim.obj
 0001:00092550       _sf_internal_get_sim_state_c8_testWalkStepWorldSim 10093550 f   c8_testWalkStepWorldSim.obj
 0001:00092f00       _sf_internal_set_sim_state_c8_testWalkStepWorldSim 10093f00 f   c8_testWalkStepWorldSim.obj
 0001:00094180       _c8_testWalkStepWorldSim_method_dispatcher 10095180 f   c8_testWalkStepWorldSim.obj
 0001:00099110       _sf_c9_testWalkStepWorldSim_get_eml_resolved_functions_info 1009a110 f   c9_testWalkStepWorldSim.obj
 0001:000a0320       _sf_exported_auto_activate_c9_testWalkStepWorldSim_secs 100a1320 f   c9_testWalkStepWorldSim.obj
 0001:000a03b0       _sf_exported_auto_incrementTemporalCounter_c9_testWalkStepWorldSim_secs 100a13b0 f   c9_testWalkStepWorldSim.obj
 0001:000a0450       _sf_exported_auto_resetTemporalCounter_c9_testWalkStepWorldSim_secs 100a1450 f   c9_testWalkStepWorldSim.obj
 0001:000a0490       _sf_exported_auto_deactivate_c9_testWalkStepWorldSim_secs 100a1490 f   c9_testWalkStepWorldSim.obj
 0001:000a0520       _sf_exported_auto_isStablec9_testWalkStepWorldSim 100a1520 f   c9_testWalkStepWorldSim.obj
 0001:000a0550       _sf_exported_auto_duringc9_testWalkStepWorldSim 100a1550 f   c9_testWalkStepWorldSim.obj
 0001:000aaba0       _sf_exported_auto_enterc9_testWalkStepWorldSim 100abba0 f   c9_testWalkStepWorldSim.obj
 0001:000ac230       _sf_exported_auto_exitc9_testWalkStepWorldSim 100ad230 f   c9_testWalkStepWorldSim.obj
 0001:000acf60       _sf_exported_auto_gatewayc9_testWalkStepWorldSim 100adf60 f   c9_testWalkStepWorldSim.obj
 0001:000acf90       _sf_exported_auto_enablec9_testWalkStepWorldSim 100adf90 f   c9_testWalkStepWorldSim.obj
 0001:000acfc0       _sf_exported_auto_disablec9_testWalkStepWorldSim 100adfc0 f   c9_testWalkStepWorldSim.obj
 0001:000acff0       _sf_exported_auto_stepBuffersc9_testWalkStepWorldSim 100adff0 f   c9_testWalkStepWorldSim.obj
 0001:000ad010       _sf_exported_auto_initBuffersc9_testWalkStepWorldSim 100ae010 f   c9_testWalkStepWorldSim.obj
 0001:000ad030       _sf_exported_auto_activate_callc9_testWalkStepWorldSim 100ae030 f   c9_testWalkStepWorldSim.obj
 0001:000ad060       _sf_exported_auto_increment_call_counterc9_testWalkStepWorldSim 100ae060 f   c9_testWalkStepWorldSim.obj
 0001:000ad080       _sf_exported_auto_reset_call_counterc9_testWalkStepWorldSim 100ae080 f   c9_testWalkStepWorldSim.obj
 0001:000ad0a0       _sf_exported_auto_deactivate_callc9_testWalkStepWorldSim 100ae0a0 f   c9_testWalkStepWorldSim.obj
 0001:000ad0c0       _sf_exported_auto_initc9_testWalkStepWorldSim 100ae0c0 f   c9_testWalkStepWorldSim.obj
 0001:000ad2c0       _sf_exported_auto_getSimstatec9_testWalkStepWorldSim 100ae2c0 f   c9_testWalkStepWorldSim.obj
 0001:000ad310       _sf_exported_auto_setSimstatec9_testWalkStepWorldSim 100ae310 f   c9_testWalkStepWorldSim.obj
 0001:000ad350       _sf_exported_auto_check_state_inconsistency_c9_testWalkStepWorldSim 100ae350 f   c9_testWalkStepWorldSim.obj
 0001:000c3d90       _sf_exported_user_c9_testWalkStepWorldSim_gazeFollowUserMove 100c4d90 f   c9_testWalkStepWorldSim.obj
 0001:000c5f30       _sf_exported_user_c9_testWalkStepWorldSim_idleGazeFunction 100c6f30 f   c9_testWalkStepWorldSim.obj
 0001:000c5f70       _sf_exported_user_c9_testWalkStepWorldSim_idleGazeInterestedTable 100c6f70 f   c9_testWalkStepWorldSim.obj
 0001:000cb110       _sf_exported_user_c9_testWalkStepWorldSim_idleGazeTable 100cc110 f   c9_testWalkStepWorldSim.obj
 0001:000cb160       _sf_exported_user_c9_testWalkStepWorldSim_insertQueueLow 100cc160 f   c9_testWalkStepWorldSim.obj
 0001:000cb240       _sf_exported_user_c9_testWalkStepWorldSim_successTable 100cc240 f   c9_testWalkStepWorldSim.obj
 0001:000cca00       _sf_c9_testWalkStepWorldSim_get_check_sum 100cda00 f   c9_testWalkStepWorldSim.obj
 0001:000cca60       _sf_c9_testWalkStepWorldSim_get_autoinheritance_info 100cda60 f   c9_testWalkStepWorldSim.obj
 0001:000ce110       _sf_c9_testWalkStepWorldSim_third_party_uses_info 100cf110 f   c9_testWalkStepWorldSim.obj
 0001:000ce130       _sf_c9_testWalkStepWorldSim_updateBuildInfo_args_info 100cf130 f   c9_testWalkStepWorldSim.obj
 0001:000ce150       _sf_internal_get_sim_state_c9_testWalkStepWorldSim 100cf150 f   c9_testWalkStepWorldSim.obj
 0001:000cf460       _sf_internal_set_sim_state_c9_testWalkStepWorldSim 100d0460 f   c9_testWalkStepWorldSim.obj
 0001:000d14b0       _c9_testWalkStepWorldSim_method_dispatcher 100d24b0 f   c9_testWalkStepWorldSim.obj
 0001:000da470       _sf_c10_testWalkStepWorldSim_get_eml_resolved_functions_info 100db470 f   c10_testWalkStepWorldSim.obj
 0001:000da4c0       _sf_exported_auto_activate_c10_testWalkStepWorldSim_secs 100db4c0 f   c10_testWalkStepWorldSim.obj
 0001:000da550       _sf_exported_auto_incrementTemporalCounter_c10_testWalkStepWorldSim_secs 100db550 f   c10_testWalkStepWorldSim.obj
 0001:000da5b0       _sf_exported_auto_resetTemporalCounter_c10_testWalkStepWorldSim_secs 100db5b0 f   c10_testWalkStepWorldSim.obj
 0001:000da5f0       _sf_exported_auto_deactivate_c10_testWalkStepWorldSim_secs 100db5f0 f   c10_testWalkStepWorldSim.obj
 0001:000da680       _sf_exported_auto_isStablec10_testWalkStepWorldSim 100db680 f   c10_testWalkStepWorldSim.obj
 0001:000da6b0       _sf_exported_auto_duringc10_testWalkStepWorldSim 100db6b0 f   c10_testWalkStepWorldSim.obj
 0001:000dbd10       _sf_exported_auto_enterc10_testWalkStepWorldSim 100dcd10 f   c10_testWalkStepWorldSim.obj
 0001:000dc050       _sf_exported_auto_exitc10_testWalkStepWorldSim 100dd050 f   c10_testWalkStepWorldSim.obj
 0001:000dc460       _sf_exported_auto_gatewayc10_testWalkStepWorldSim 100dd460 f   c10_testWalkStepWorldSim.obj
 0001:000dc490       _sf_exported_auto_enablec10_testWalkStepWorldSim 100dd490 f   c10_testWalkStepWorldSim.obj
 0001:000dc4c0       _sf_exported_auto_disablec10_testWalkStepWorldSim 100dd4c0 f   c10_testWalkStepWorldSim.obj
 0001:000dc4f0       _sf_exported_auto_stepBuffersc10_testWalkStepWorldSim 100dd4f0 f   c10_testWalkStepWorldSim.obj
 0001:000dc510       _sf_exported_auto_initBuffersc10_testWalkStepWorldSim 100dd510 f   c10_testWalkStepWorldSim.obj
 0001:000dc530       _sf_exported_auto_activate_callc10_testWalkStepWorldSim 100dd530 f   c10_testWalkStepWorldSim.obj
 0001:000dc560       _sf_exported_auto_increment_call_counterc10_testWalkStepWorldSim 100dd560 f   c10_testWalkStepWorldSim.obj
 0001:000dc580       _sf_exported_auto_reset_call_counterc10_testWalkStepWorldSim 100dd580 f   c10_testWalkStepWorldSim.obj
 0001:000dc5a0       _sf_exported_auto_deactivate_callc10_testWalkStepWorldSim 100dd5a0 f   c10_testWalkStepWorldSim.obj
 0001:000dc5c0       _sf_exported_auto_initc10_testWalkStepWorldSim 100dd5c0 f   c10_testWalkStepWorldSim.obj
 0001:000dc680       _sf_exported_auto_getSimstatec10_testWalkStepWorldSim 100dd680 f   c10_testWalkStepWorldSim.obj
 0001:000dc6d0       _sf_exported_auto_setSimstatec10_testWalkStepWorldSim 100dd6d0 f   c10_testWalkStepWorldSim.obj
 0001:000dc710       _sf_exported_auto_check_state_inconsistency_c10_testWalkStepWorldSim 100dd710 f   c10_testWalkStepWorldSim.obj
 0001:000dc8c0       _sf_c10_testWalkStepWorldSim_get_check_sum 100dd8c0 f   c10_testWalkStepWorldSim.obj
 0001:000dc920       _sf_c10_testWalkStepWorldSim_get_autoinheritance_info 100dd920 f   c10_testWalkStepWorldSim.obj
 0001:000dcc30       _sf_c10_testWalkStepWorldSim_third_party_uses_info 100ddc30 f   c10_testWalkStepWorldSim.obj
 0001:000dcc50       _sf_c10_testWalkStepWorldSim_updateBuildInfo_args_info 100ddc50 f   c10_testWalkStepWorldSim.obj
 0001:000dcc70       _sf_internal_get_sim_state_c10_testWalkStepWorldSim 100ddc70 f   c10_testWalkStepWorldSim.obj
 0001:000dcfc0       _sf_internal_set_sim_state_c10_testWalkStepWorldSim 100ddfc0 f   c10_testWalkStepWorldSim.obj
 0001:000dd860       _c10_testWalkStepWorldSim_method_dispatcher 100de860 f   c10_testWalkStepWorldSim.obj
 0001:000dedb0       _sf_c11_testWalkStepWorldSim_get_eml_resolved_functions_info 100dfdb0 f   c11_testWalkStepWorldSim.obj
 0001:000df830       _sf_exported_auto_activate_c11_testWalkStepWorldSim_secs 100e0830 f   c11_testWalkStepWorldSim.obj
 0001:000df8c0       _sf_exported_auto_incrementTemporalCounter_c11_testWalkStepWorldSim_secs 100e08c0 f   c11_testWalkStepWorldSim.obj
 0001:000df920       _sf_exported_auto_resetTemporalCounter_c11_testWalkStepWorldSim_secs 100e0920 f   c11_testWalkStepWorldSim.obj
 0001:000df960       _sf_exported_auto_deactivate_c11_testWalkStepWorldSim_secs 100e0960 f   c11_testWalkStepWorldSim.obj
 0001:000df9f0       _sf_exported_auto_isStablec11_testWalkStepWorldSim 100e09f0 f   c11_testWalkStepWorldSim.obj
 0001:000dfa20       _sf_exported_auto_duringc11_testWalkStepWorldSim 100e0a20 f   c11_testWalkStepWorldSim.obj
 0001:000e1c70       _sf_exported_auto_enterc11_testWalkStepWorldSim 100e2c70 f   c11_testWalkStepWorldSim.obj
 0001:000e2ca0       _sf_exported_auto_exitc11_testWalkStepWorldSim 100e3ca0 f   c11_testWalkStepWorldSim.obj
 0001:000e30b0       _sf_exported_auto_gatewayc11_testWalkStepWorldSim 100e40b0 f   c11_testWalkStepWorldSim.obj
 0001:000e30e0       _sf_exported_auto_enablec11_testWalkStepWorldSim 100e40e0 f   c11_testWalkStepWorldSim.obj
 0001:000e3110       _sf_exported_auto_disablec11_testWalkStepWorldSim 100e4110 f   c11_testWalkStepWorldSim.obj
 0001:000e3140       _sf_exported_auto_stepBuffersc11_testWalkStepWorldSim 100e4140 f   c11_testWalkStepWorldSim.obj
 0001:000e3160       _sf_exported_auto_initBuffersc11_testWalkStepWorldSim 100e4160 f   c11_testWalkStepWorldSim.obj
 0001:000e3180       _sf_exported_auto_activate_callc11_testWalkStepWorldSim 100e4180 f   c11_testWalkStepWorldSim.obj
 0001:000e31b0       _sf_exported_auto_increment_call_counterc11_testWalkStepWorldSim 100e41b0 f   c11_testWalkStepWorldSim.obj
 0001:000e31d0       _sf_exported_auto_reset_call_counterc11_testWalkStepWorldSim 100e41d0 f   c11_testWalkStepWorldSim.obj
 0001:000e31f0       _sf_exported_auto_deactivate_callc11_testWalkStepWorldSim 100e41f0 f   c11_testWalkStepWorldSim.obj
 0001:000e3210       _sf_exported_auto_initc11_testWalkStepWorldSim 100e4210 f   c11_testWalkStepWorldSim.obj
 0001:000e32d0       _sf_exported_auto_getSimstatec11_testWalkStepWorldSim 100e42d0 f   c11_testWalkStepWorldSim.obj
 0001:000e3320       _sf_exported_auto_setSimstatec11_testWalkStepWorldSim 100e4320 f   c11_testWalkStepWorldSim.obj
 0001:000e3360       _sf_exported_auto_check_state_inconsistency_c11_testWalkStepWorldSim 100e4360 f   c11_testWalkStepWorldSim.obj
 0001:000e6070       _sf_exported_user_c11_testWalkStepWorldSim_insertQueue 100e7070 f   c11_testWalkStepWorldSim.obj
 0001:000e6130       _sf_exported_user_c11_testWalkStepWorldSim_smileTable 100e7130 f   c11_testWalkStepWorldSim.obj
 0001:000e65b0       _sf_c11_testWalkStepWorldSim_get_check_sum 100e75b0 f   c11_testWalkStepWorldSim.obj
 0001:000e6610       _sf_c11_testWalkStepWorldSim_get_autoinheritance_info 100e7610 f   c11_testWalkStepWorldSim.obj
 0001:000e6ea0       _sf_c11_testWalkStepWorldSim_third_party_uses_info 100e7ea0 f   c11_testWalkStepWorldSim.obj
 0001:000e6ec0       _sf_c11_testWalkStepWorldSim_updateBuildInfo_args_info 100e7ec0 f   c11_testWalkStepWorldSim.obj
 0001:000e6ee0       _sf_internal_get_sim_state_c11_testWalkStepWorldSim 100e7ee0 f   c11_testWalkStepWorldSim.obj
 0001:000e75c0       _sf_internal_set_sim_state_c11_testWalkStepWorldSim 100e85c0 f   c11_testWalkStepWorldSim.obj
 0001:000e8160       _c11_testWalkStepWorldSim_method_dispatcher 100e9160 f   c11_testWalkStepWorldSim.obj
 0001:000eafb0       _sf_c17_testWalkStepWorldSim_get_eml_resolved_functions_info 100ebfb0 f   c17_testWalkStepWorldSim.obj
 0001:000eb670       _sf_c17_testWalkStepWorldSim_get_check_sum 100ec670 f   c17_testWalkStepWorldSim.obj
 0001:000eb6d0       _sf_c17_testWalkStepWorldSim_get_autoinheritance_info 100ec6d0 f   c17_testWalkStepWorldSim.obj
 0001:000ec9f0       _sf_c17_testWalkStepWorldSim_third_party_uses_info 100ed9f0 f   c17_testWalkStepWorldSim.obj
 0001:000eca10       _sf_c17_testWalkStepWorldSim_updateBuildInfo_args_info 100eda10 f   c17_testWalkStepWorldSim.obj
 0001:000eca30       _sf_internal_get_sim_state_c17_testWalkStepWorldSim 100eda30 f   c17_testWalkStepWorldSim.obj
 0001:000ecd30       _sf_internal_set_sim_state_c17_testWalkStepWorldSim 100edd30 f   c17_testWalkStepWorldSim.obj
 0001:000ed0e0       _c17_testWalkStepWorldSim_method_dispatcher 100ee0e0 f   c17_testWalkStepWorldSim.obj
 0001:000f0280       _sf_c18_testWalkStepWorldSim_get_eml_resolved_functions_info 100f1280 f   c18_testWalkStepWorldSim.obj
 0001:000f02d0       _sf_c18_testWalkStepWorldSim_get_check_sum 100f12d0 f   c18_testWalkStepWorldSim.obj
 0001:000f0330       _sf_c18_testWalkStepWorldSim_get_autoinheritance_info 100f1330 f   c18_testWalkStepWorldSim.obj
 0001:000f0640       _sf_c18_testWalkStepWorldSim_third_party_uses_info 100f1640 f   c18_testWalkStepWorldSim.obj
 0001:000f0660       _sf_c18_testWalkStepWorldSim_updateBuildInfo_args_info 100f1660 f   c18_testWalkStepWorldSim.obj
 0001:000f0680       _sf_internal_get_sim_state_c18_testWalkStepWorldSim 100f1680 f   c18_testWalkStepWorldSim.obj
 0001:000f0920       _sf_internal_set_sim_state_c18_testWalkStepWorldSim 100f1920 f   c18_testWalkStepWorldSim.obj
 0001:000f0c10       _c18_testWalkStepWorldSim_method_dispatcher 100f1c10 f   c18_testWalkStepWorldSim.obj
 0001:000f2bc0       _sf_c20_testWalkStepWorldSim_get_eml_resolved_functions_info 100f3bc0 f   c20_testWalkStepWorldSim.obj
 0001:000f3a00       _sf_exported_auto_activate_c20_testWalkStepWorldSim_secs 100f4a00 f   c20_testWalkStepWorldSim.obj
 0001:000f3a90       _sf_exported_auto_incrementTemporalCounter_c20_testWalkStepWorldSim_secs 100f4a90 f   c20_testWalkStepWorldSim.obj
 0001:000f3af0       _sf_exported_auto_resetTemporalCounter_c20_testWalkStepWorldSim_secs 100f4af0 f   c20_testWalkStepWorldSim.obj
 0001:000f3b30       _sf_exported_auto_deactivate_c20_testWalkStepWorldSim_secs 100f4b30 f   c20_testWalkStepWorldSim.obj
 0001:000f3bc0       _sf_exported_auto_isStablec20_testWalkStepWorldSim 100f4bc0 f   c20_testWalkStepWorldSim.obj
 0001:000f3bf0       _sf_exported_auto_duringc20_testWalkStepWorldSim 100f4bf0 f   c20_testWalkStepWorldSim.obj
 0001:000f9d10       _sf_exported_auto_enterc20_testWalkStepWorldSim 100fad10 f   c20_testWalkStepWorldSim.obj
 0001:000fae40       _sf_exported_auto_exitc20_testWalkStepWorldSim 100fbe40 f   c20_testWalkStepWorldSim.obj
 0001:000fb420       _sf_exported_auto_gatewayc20_testWalkStepWorldSim 100fc420 f   c20_testWalkStepWorldSim.obj
 0001:000fb450       _sf_exported_auto_enablec20_testWalkStepWorldSim 100fc450 f   c20_testWalkStepWorldSim.obj
 0001:000fb480       _sf_exported_auto_disablec20_testWalkStepWorldSim 100fc480 f   c20_testWalkStepWorldSim.obj
 0001:000fb4b0       _sf_exported_auto_stepBuffersc20_testWalkStepWorldSim 100fc4b0 f   c20_testWalkStepWorldSim.obj
 0001:000fb4d0       _sf_exported_auto_initBuffersc20_testWalkStepWorldSim 100fc4d0 f   c20_testWalkStepWorldSim.obj
 0001:000fb4f0       _sf_exported_auto_activate_callc20_testWalkStepWorldSim 100fc4f0 f   c20_testWalkStepWorldSim.obj
 0001:000fb520       _sf_exported_auto_increment_call_counterc20_testWalkStepWorldSim 100fc520 f   c20_testWalkStepWorldSim.obj
 0001:000fb540       _sf_exported_auto_reset_call_counterc20_testWalkStepWorldSim 100fc540 f   c20_testWalkStepWorldSim.obj
 0001:000fb560       _sf_exported_auto_deactivate_callc20_testWalkStepWorldSim 100fc560 f   c20_testWalkStepWorldSim.obj
 0001:000fb580       _sf_exported_auto_initc20_testWalkStepWorldSim 100fc580 f   c20_testWalkStepWorldSim.obj
 0001:000fb690       _sf_exported_auto_getSimstatec20_testWalkStepWorldSim 100fc690 f   c20_testWalkStepWorldSim.obj
 0001:000fb6e0       _sf_exported_auto_setSimstatec20_testWalkStepWorldSim 100fc6e0 f   c20_testWalkStepWorldSim.obj
 0001:000fb720       _sf_exported_auto_check_state_inconsistency_c20_testWalkStepWorldSim 100fc720 f   c20_testWalkStepWorldSim.obj
 0001:00100a20       _sf_exported_user_c20_testWalkStepWorldSim_insertQueue 10101a20 f   c20_testWalkStepWorldSim.obj
 0001:00100b00       _sf_exported_user_c20_testWalkStepWorldSim_wavePoseBradTable 10101b00 f   c20_testWalkStepWorldSim.obj
 0001:001010a0       _sf_c20_testWalkStepWorldSim_get_check_sum 101020a0 f   c20_testWalkStepWorldSim.obj
 0001:00101100       _sf_c20_testWalkStepWorldSim_get_autoinheritance_info 10102100 f   c20_testWalkStepWorldSim.obj
 0001:00101aa0       _sf_c20_testWalkStepWorldSim_third_party_uses_info 10102aa0 f   c20_testWalkStepWorldSim.obj
 0001:00101ac0       _sf_c20_testWalkStepWorldSim_updateBuildInfo_args_info 10102ac0 f   c20_testWalkStepWorldSim.obj
 0001:00101ae0       _sf_internal_get_sim_state_c20_testWalkStepWorldSim 10102ae0 f   c20_testWalkStepWorldSim.obj
 0001:00102200       _sf_internal_set_sim_state_c20_testWalkStepWorldSim 10103200 f   c20_testWalkStepWorldSim.obj
 0001:00102f00       _c20_testWalkStepWorldSim_method_dispatcher 10103f00 f   c20_testWalkStepWorldSim.obj
 0001:00106860       _sf_process_check_sum_call 10107860 f   testWalkStepWorldSim_sfun_registry.obj
 0001:00106890       _sf_process_autoinheritance_call 10107890 f   testWalkStepWorldSim_sfun_registry.obj
 0001:001069d0       _sf_process_get_third_party_uses_info_call 101079d0 f   testWalkStepWorldSim_sfun_registry.obj
 0001:00106b10       _sf_process_get_updateBuildInfo_args_info_call 10107b10 f   testWalkStepWorldSim_sfun_registry.obj
 0001:00106c50       _sf_process_get_eml_resolved_functions_info_call 10107c50 f   testWalkStepWorldSim_sfun_registry.obj
 0001:00106d70       _sf_mex_unlock_call        10107d70 f   testWalkStepWorldSim_sfun_registry.obj
 0001:00106e00       _sf_machine_global_initializer_called 10107e00 f   testWalkStepWorldSim_sfun_registry.obj
 0001:00106e20       _sf_machine_global_method_dispatcher 10107e20 f   testWalkStepWorldSim_sfun_registry.obj
 0001:00106e60       _sf_machine_global_terminator 10107e60 f   testWalkStepWorldSim_sfun_registry.obj
 0001:00106ea0       _sf_register_machine_exported_symbols 10107ea0 f   testWalkStepWorldSim_sfun_registry.obj
 0001:00106ec0       _callCustomFcn             10107ec0 f   testWalkStepWorldSim_sfun_registry.obj
 0001:00106ed0       _sf_machine_global_initializer 10107ed0 f   testWalkStepWorldSim_sfun_registry.obj
 0001:00106f40       _mdlGetSimState            10107f40 f   testWalkStepWorldSim_sfun_registry.obj
 0001:00106fa0       _mdlSetSimState            10107fa0 f   testWalkStepWorldSim_sfun_registry.obj
 0001:00106fd0       __ssSetStateAbsTol         10107fd0 f   testWalkStepWorldSim_sfun_registry.obj
 0001:00107070       __ssGetAbsTol              10108070 f   testWalkStepWorldSim_sfun_registry.obj
 0001:001070c0       __ssSetInputPortMatrixDimensions 101080c0 f   testWalkStepWorldSim_sfun_registry.obj
 0001:00107170       __ssSetOutputPortMatrixDimensions 10108170 f   testWalkStepWorldSim_sfun_registry.obj
 0001:00107220       __ssSetInputPortVectorDimension 10108220 f   testWalkStepWorldSim_sfun_registry.obj
 0001:001072a0       __ssSetOutputPortVectorDimension 101082a0 f   testWalkStepWorldSim_sfun_registry.obj
 0001:00107320       _ssIsRunTimeParamTunable   10108320 f   testWalkStepWorldSim_sfun_registry.obj
 0001:00107380       _ssGetSFuncBlockHandle     10108380 f   testWalkStepWorldSim_sfun_registry.obj
 0001:001073d0       __ssGetCurrentInputPortWidth 101083d0 f   testWalkStepWorldSim_sfun_registry.obj
 0001:001074a0       __ssGetCurrentOutputPortWidth 101084a0 f   testWalkStepWorldSim_sfun_registry.obj
 0001:00107570       __ssGetCallSystemNumFcnCallDestinations 10108570 f   testWalkStepWorldSim_sfun_registry.obj
 0001:001075d0       _ssWarning                 101085d0 f   testWalkStepWorldSim_sfun_registry.obj
 0001:001076b0       _ssGetIsZeroCrossControlDisabled 101086b0 f   testWalkStepWorldSim_sfun_registry.obj
 0001:00107710       _ssSetIsInputPortUsedForContZcSignal 10108710 f   testWalkStepWorldSim_sfun_registry.obj
 0001:00107760       _ssSetZcSignalIsZcElementDisc 10108760 f   testWalkStepWorldSim_sfun_registry.obj
 0001:001077e0       _ssSetZcSignalName         101087e0 f   testWalkStepWorldSim_sfun_registry.obj
 0001:00107830       _ssSetZcSignalWidth        10108830 f   testWalkStepWorldSim_sfun_registry.obj
 0001:00107880       _ssSetZcSignalZcEventType  10108880 f   testWalkStepWorldSim_sfun_registry.obj
 0001:001078d0       _ssSetZcSignalType         101088d0 f   testWalkStepWorldSim_sfun_registry.obj
 0001:00107920       _ssSetZcSignalZcTol        10108920 f   testWalkStepWorldSim_sfun_registry.obj
 0001:00107970       _ssSetZcSignalNeedsEventNotification 10108970 f   testWalkStepWorldSim_sfun_registry.obj
 0001:001079c0       _ssCreateAndAddZcSignalInfo 101089c0 f   testWalkStepWorldSim_sfun_registry.obj
 0001:00107a20       _ssCloneAndAddZcSignalInfo 10108a20 f   testWalkStepWorldSim_sfun_registry.obj
 0001:00107a80       _ssGetNumZcSignals         10108a80 f   testWalkStepWorldSim_sfun_registry.obj
 0001:00107ae0       _ssGetZcSignalVector       10108ae0 f   testWalkStepWorldSim_sfun_registry.obj
 0001:00107b40       _ssGetZcSignalZcEvents     10108b40 f   testWalkStepWorldSim_sfun_registry.obj
 0001:00107ba0       _ssGetZcSignalName         10108ba0 f   testWalkStepWorldSim_sfun_registry.obj
 0001:00107c00       _ssGetZcSignalWidth        10108c00 f   testWalkStepWorldSim_sfun_registry.obj
 0001:00107c60       _ssGetZcSignalZcEventType  10108c60 f   testWalkStepWorldSim_sfun_registry.obj
 0001:00107cc0       _ssGetZcSignalType         10108cc0 f   testWalkStepWorldSim_sfun_registry.obj
 0001:00107d20       _ssGetZcSignalZcTol        10108d20 f   testWalkStepWorldSim_sfun_registry.obj
 0001:00107d80       _ssGetZcSignalNeedsEventNotification 10108d80 f   testWalkStepWorldSim_sfun_registry.obj
 0001:00107de0       _ssGetZcSignalIsZcElementDisc 10108de0 f   testWalkStepWorldSim_sfun_registry.obj
 0001:00107e60       _ssGetIsInputPortElementContinuous 10108e60 f   testWalkStepWorldSim_sfun_registry.obj
 0001:00107ee0       __ssGetInputPortSignalPtrsFcn 10108ee0 f   testWalkStepWorldSim_sfun_registry.obj
 0001:001080e0       __ssGetInputPortSignalFcn  101090e0 f   testWalkStepWorldSim_sfun_registry.obj
 0001:00108270       __ssSetInputPortDirectFeedThroughFcn 10109270 f   testWalkStepWorldSim_sfun_registry.obj
 0001:001083a0       __ssSetInputPortReusableFcn 101093a0 f   testWalkStepWorldSim_sfun_registry.obj
 0001:00108430       __ssSetOutputPortReusableFcn 10109430 f   testWalkStepWorldSim_sfun_registry.obj
 0001:001084c0       _ssGetDTypeIdFromMxArray   101094c0 f   testWalkStepWorldSim_sfun_registry.obj
 0001:001085b0       _ssWriteRTWStr             101095b0 f   testWalkStepWorldSim_sfun_registry.obj
 0001:001085f0       _ssWriteRTWMxVectParam     101095f0 f   testWalkStepWorldSim_sfun_registry.obj
 0001:00108630       _ssWriteRTWMx2dMatParam    10109630 f   testWalkStepWorldSim_sfun_registry.obj
 0001:00108670       _ssWriteRTWNameValuePair   10109670 f   testWalkStepWorldSim_sfun_registry.obj
 0001:001089e0       _ssWriteRTWParameters      101099e0 f   testWalkStepWorldSim_sfun_registry.obj
 0001:00108d80       _ssWriteRTWParamSettings   10109d80 f   testWalkStepWorldSim_sfun_registry.obj
 0001:00109230       _ssWriteRTWWorkVect        1010a230 f   testWalkStepWorldSim_sfun_registry.obj
 0001:001095c0       _mexFunction               1010a5c0 f   testWalkStepWorldSim_sfun_registry.obj
 0001:0010b310       _ProcessMexSfunctionEveryCall 1010c310 f   testWalkStepWorldSim_sfun_registry.obj
 0001:0010b42e       _sf_debug_set_machine_data_thresholds 1010c42e f   sf_runtime:sf_runtime.dll
 0001:0010b434       _sf_debug_set_machine_event_thresholds 1010c434 f   sf_runtime:sf_runtime.dll
 0001:0010b43a       _sf_debug_initialize_machine 1010c43a f   sf_runtime:sf_runtime.dll
 0001:0010b440       _sf_load_rtw_optimization_info 1010c440 f   sf_runtime:sf_runtime.dll
 0001:0010b446       _sf_mex_emlrtNameCapturePostProcessR2012a 1010c446 f   sf_runtime:sf_runtime.dll
 0001:0010b44c       _sf_mex_assign             1010c44c f   sf_runtime:sf_runtime.dll
 0001:0010b452       _sf_mex_createstruct       1010c452 f   sf_runtime:sf_runtime.dll
 0001:0010b458       _sf_mex_destroy            1010c458 f   sf_runtime:sf_runtime.dll
 0001:0010b45e       _sf_mex_duplicatearraysafe 1010c45e f   sf_runtime:sf_runtime.dll
 0001:0010b464       _sf_mex_createcellmatrix   1010c464 f   sf_runtime:sf_runtime.dll
 0001:0010b46a       _sf_mex_addfield           1010c46a f   sf_runtime:sf_runtime.dll
 0001:0010b470       _sf_mex_create             1010c470 f   sf_runtime:sf_runtime.dll
 0001:0010b476       _sf_mex_error_message      1010c476 f   sf_runtime:sf_runtime.dll
 0001:0010b47c       _sf_mex_call_matlab        1010c47c f   sf_runtime:sf_runtime.dll
 0001:0010b482       _sf_mex_dup                1010c482 f   sf_runtime:sf_runtime.dll
 0001:0010b488       _sf_mex_setcell            1010c488 f   sf_runtime:sf_runtime.dll
 0001:0010b48e       _sf_mex_decode_encoded_mx_struct_array 1010c48e f   sf_runtime:sf_runtime.dll
 0001:0010b494       _sf_mex_getcell            1010c494 f   sf_runtime:sf_runtime.dll
 0001:0010b49a       _sf_debug_animate          1010c49a f   sf_runtime:sf_runtime.dll
 0001:0010b4a0       _sf_debug_call             1010c4a0 f   sf_runtime:sf_runtime.dll
 0001:0010b4a6       _sf_debug_set_honor_breakpoints 1010c4a6 f   sf_runtime:sf_runtime.dll
 0001:0010b4ac       _sf_debug_set_animation    1010c4ac f   sf_runtime:sf_runtime.dll
 0001:0010b4b2       _sf_debug_get_animation    1010c4b2 f   sf_runtime:sf_runtime.dll
 0001:0010b4b8       _sf_mex_import             1010c4b8 f   sf_runtime:sf_runtime.dll
 0001:0010b4be       _sf_set_rtw_dwork_info     1010c4be f   sf_runtime:sf_runtime.dll
 0001:0010b4c4       _sf_mark_chart_reusable_outputs 1010c4c4 f   sf_runtime:sf_runtime.dll
 0001:0010b4ca       _sf_mark_chart_expressionable_inputs 1010c4ca f   sf_runtime:sf_runtime.dll
 0001:0010b4d0       _sf_mark_output_events_with_multiple_callers 1010c4d0 f   sf_runtime:sf_runtime.dll
 0001:0010b4d6       _sf_update_buildInfo       1010c4d6 f   sf_runtime:sf_runtime.dll
 0001:0010b4dc       _sf_rtw_info_uint_prop     1010c4dc f   sf_runtime:sf_runtime.dll
 0001:0010b4e2       _sf_is_chart_inlinable     1010c4e2 f   sf_runtime:sf_runtime.dll
 0001:0010b4e8       _sim_mode_is_external      1010c4e8 f   sf_runtime:sf_runtime.dll
 0001:0010b4ee       _sim_mode_is_rtw_gen       1010c4ee f   sf_runtime:sf_runtime.dll
 0001:0010b4f4       _sf_debug_reset_current_state_configuration 1010c4f4 f   sf_runtime:sf_runtime.dll
 0001:0010b4fa       _sf_debug_set_instance_data_value_ptr 1010c4fa f   sf_runtime:sf_runtime.dll
 0001:0010b500       _sf_debug_set_chart_data_compiled_props 1010c500 f   sf_runtime:sf_runtime.dll
 0001:0010b506       _cv_script_init_fcn        1010c506 f   sf_runtime:sf_runtime.dll
 0001:0010b50c       _cv_script_init_script     1010c50c f   sf_runtime:sf_runtime.dll
 0001:0010b512       _cv_eml_init_for           1010c512 f   sf_runtime:sf_runtime.dll
 0001:0010b518       _cv_eml_init_if            1010c518 f   sf_runtime:sf_runtime.dll
 0001:0010b51e       _cv_eml_init_fcn           1010c51e f   sf_runtime:sf_runtime.dll
 0001:0010b524       _cv_eml_init_script        1010c524 f   sf_runtime:sf_runtime.dll
 0001:0010b52a       _sf_debug_cv_init_trans    1010c52a f   sf_runtime:sf_runtime.dll
 0001:0010b530       _sf_debug_cv_init_state    1010c530 f   sf_runtime:sf_runtime.dll
 0001:0010b536       _sf_debug_cv_init_chart    1010c536 f   sf_runtime:sf_runtime.dll
 0001:0010b53c       _sf_debug_set_chart_state_substate_index 1010c53c f   sf_runtime:sf_runtime.dll
 0001:0010b542       _sf_debug_set_chart_state_substate_count 1010c542 f   sf_runtime:sf_runtime.dll
 0001:0010b548       _sf_debug_set_chart_substate_index 1010c548 f   sf_runtime:sf_runtime.dll
 0001:0010b54e       _sf_debug_set_chart_decomposition 1010c54e f   sf_runtime:sf_runtime.dll
 0001:0010b554       _sf_debug_set_chart_substate_count 1010c554 f   sf_runtime:sf_runtime.dll
 0001:0010b55a       _sf_debug_set_chart_state_info 1010c55a f   sf_runtime:sf_runtime.dll
 0001:0010b560       _sf_debug_set_chart_event_scope 1010c560 f   sf_runtime:sf_runtime.dll
 0001:0010b566       _sf_debug_set_chart_data_props 1010c566 f   sf_runtime:sf_runtime.dll
 0001:0010b56c       _sf_debug_set_chart_event_thresholds 1010c56c f   sf_runtime:sf_runtime.dll
 0001:0010b572       _sf_debug_set_chart_disable_implicit_casting 1010c572 f   sf_runtime:sf_runtime.dll
 0001:0010b578       _sf_debug_initialize_chart 1010c578 f   sf_runtime:sf_runtime.dll
 0001:0010b57e       _sf_debug_set_script_translation 1010c57e f   sf_runtime:sf_runtime.dll
 0001:0010b584       _sf_debug_get_script_id    1010c584 f   sf_runtime:sf_runtime.dll
 0001:0010b58a       _sf_get_output_port_reusable 1010c58a f   sf_runtime:sf_runtime.dll
 0001:0010b590       _sf_get_time               1010c590 f   sf_runtime:sf_runtime.dll
 0001:0010b596       _sf_call_output_fcn_enable 1010c596 f   sf_runtime:sf_runtime.dll
 0001:0010b59c       _sf_call_output_fcn_disable 1010c59c f   sf_runtime:sf_runtime.dll
 0001:0010b5a2       _sf_debug_check_for_state_inconsistency 1010c5a2 f   sf_runtime:sf_runtime.dll
 0001:0010b5a8       _sf_debug_symbol_scope_pop 1010c5a8 f   sf_runtime:sf_runtime.dll
 0001:0010b5ae       _sf_debug_data_range_wrapper 1010c5ae f   sf_runtime:sf_runtime.dll
 0001:0010b5b4       _sf_debug_symbol_scope_push 1010c5b4 f   sf_runtime:sf_runtime.dll
 0001:0010b5ba       _sf_mex_sub                1010c5ba f   sf_runtime:sf_runtime.dll
 0001:0010b5c0       _sf_debug_symbol_scope_add_eml_importable 1010c5c0 f   sf_runtime:sf_runtime.dll
 0001:0010b5c6       _sf_debug_symbol_scope_push_eml 1010c5c6 f   sf_runtime:sf_runtime.dll
 0001:0010b5cc       _cv_eml_eval               1010c5cc f   sf_runtime:sf_runtime.dll
 0001:0010b5d2       _cv_eval_point             1010c5d2 f   sf_runtime:sf_runtime.dll
 0001:0010b5d8       _sf_debug_unset_instance_data_value_ptr 1010c5d8 f   sf_runtime:sf_runtime.dll
 0001:0010b5de       _sf_call_output_fcn_call   1010c5de f   sf_runtime:sf_runtime.dll
 0001:0010b5e4       _sf_debug_symbol_scope_add_importable 1010c5e4 f   sf_runtime:sf_runtime.dll
 0001:0010b5ea       _eml_debug_line_call       1010c5ea f   sf_runtime:sf_runtime.dll
 0001:0010b5f0       _cv_script_eval            1010c5f0 f   sf_runtime:sf_runtime.dll
 0001:0010b5f6       _sf_debug_symbol_scope_add_eml 1010c5f6 f   sf_runtime:sf_runtime.dll
 0001:0010b5fc       _sf_mex_listen_for_ctrl_c  1010c5fc f   sf_runtime:sf_runtime.dll
 0001:0010b602       _sf_debug_eml_data_array_bounds_error_check 1010c602 f   sf_runtime:sf_runtime.dll
 0001:0010b608       _sf_debug_integer_check    1010c608 f   sf_runtime:sf_runtime.dll
 0001:0010b60e       _sf_debug_read_before_write_check 1010c60e f   sf_runtime:sf_runtime.dll
 0001:0010b614       _sf_clear_rtw_identifier   1010c614 f   sf_runtime:sf_runtime.dll
 0001:0010b61a       _sf_get_subchart_simstruct 1010c61a f   sf_runtime:sf_runtime.dll
 0001:0010b620       _sf_mex_call_debug         1010c620 f   sf_runtime:sf_runtime.dll
 0001:0010b626       _cv_eml_init_mcdc          1010c626 f   sf_runtime:sf_runtime.dll
 0001:0010b62c       _sf_debug_temporal_threshold 1010c62c f   sf_runtime:sf_runtime.dll
 0001:0010b632       _sf_debug_symbol_scope_add_eml_dyn_importable 1010c632 f   sf_runtime:sf_runtime.dll
 0001:0010b638       _sf_debug_sub_assign_size_check_nd 1010c638 f   sf_runtime:sf_runtime.dll
 0001:0010b63e       _sf_mex_import_vs          1010c63e f   sf_runtime:sf_runtime.dll
 0001:0010b644       _cv_script_init_mcdc       1010c644 f   sf_runtime:sf_runtime.dll
 0001:0010b64a       _cv_script_init_if         1010c64a f   sf_runtime:sf_runtime.dll
 0001:0010b650       _sf_debug_terminate        1010c650 f   sf_runtime:sf_runtime.dll
 0001:0010b656       _sf_debug_create_debug_instance_struct 1010c656 f   sf_runtime:sf_runtime.dll
 0001:0010b65c       _sf_debug_api              1010c65c f   sf_runtime:sf_runtime.dll
 0001:0010b662       _callMdlMethodAndReportError 1010c662 f   sf_runtime:sf_runtime.dll
 0001:0010b668       _call_sf_machine_global_method_dispatcher 1010c668 f   sf_runtime:sf_runtime.dll
 0001:0010b66e       _sf_clear_error_manager_info 1010c66e f   sf_runtime:sf_runtime.dll
 0001:0010b674       _sf_mex_error_direct_call  1010c674 f   sf_runtime:sf_runtime.dll
 0001:0010b67a       _mxGetScalar               1010c67a f   libmx:libmx.dll
 0001:0010b680       _mxGetPr                   1010c680 f   libmx:libmx.dll
 0001:0010b686       _mxCreateDoubleMatrix_730  1010c686 f   libmx:libmx.dll
 0001:0010b68c       _mxGetString_730           1010c68c f   libmx:libmx.dll
 0001:0010b692       _mxIsChar                  1010c692 f   libmx:libmx.dll
 0001:0010b698       _mxDestroyArray            1010c698 f   libmx:libmx.dll
 0001:0010b69e       _mxDuplicateArray          1010c69e f   libmx:libmx.dll
 0001:0010b6a4       _mxCreateDoubleScalar      1010c6a4 f   libmx:libmx.dll
 0001:0010b6aa       _mxSetField_730            1010c6aa f   libmx:libmx.dll
 0001:0010b6b0       _mxCreateString            1010c6b0 f   libmx:libmx.dll
 0001:0010b6b6       _mxCreateStructMatrix_730  1010c6b6 f   libmx:libmx.dll
 0001:0010b6bc       _mxCreateCellMatrix_730    1010c6bc f   libmx:libmx.dll
 0001:0010b6c2       _mxIsEmpty                 1010c6c2 f   libmx:libmx.dll
 0001:0010b6c8       _mxGetClassID              1010c6c8 f   libmx:libmx.dll
 0001:0010b6ce       _mxIsNumeric               1010c6ce f   libmx:libmx.dll
 0001:0010b6d4       _mxIsComplex               1010c6d4 f   libmx:libmx.dll
 0001:0010b6da       _mxGetN                    1010c6da f   libmx:libmx.dll
 0001:0010b6e0       _mxGetM                    1010c6e0 f   libmx:libmx.dll
 0001:0010b6e6       _mxCalloc                  1010c6e6 f   libmx:libmx.dll
 0001:0010b6ec       _mexMakeArrayPersistent    1010c6ec f   libmex:libmex.dll
 0001:0010b6f2       _mexUnlock                 1010c6f2 f   libmex:libmex.dll
 0001:0010b6f8       _mexIsLocked               1010c6f8 f   libmex:libmex.dll
 0001:0010b6fe       _mexWarnMsgTxt             1010c6fe f   libmex:libmex.dll
 0001:0010b704       _mexCallMATLAB             1010c704 f   libmex:libmex.dll
 0001:0010b70a       _mexErrMsgTxt              1010c70a f   libmex:libmex.dll
 0001:0010b710       _mexLock                   1010c710 f   libmex:libmex.dll
 0001:0010b716       _utMalloc                  1010c716 f   libut:libut.dll
 0001:0010b71c       _utFree                    1010c71c f   libut:libut.dll
 0001:0010b722       _muDoubleScalarFloor       1010c722 f   libmwmathutil:libmwmathutil.dll
 0001:0010b728       _muDoubleScalarRound       1010c728 f   libmwmathutil:libmwmathutil.dll
 0001:0010b72e       _muDoubleScalarLog         1010c72e f   libmwmathutil:libmwmathutil.dll
 0001:0010b734       _muDoubleScalarAbs         1010c734 f   libmwmathutil:libmwmathutil.dll
 0001:0010b73a       _strcmp                    1010c73a f   MSVCRT:MSVCR100.dll
 0001:0010b740       @__security_check_cookie@4 1010c740 f   MSVCRT:secchk.obj
 0001:0010b750       _strlen                    1010c750 f   MSVCRT:MSVCR100.dll
 0001:0010b760       __chkstk                   1010c760 f   MSVCRT:chkstk.obj
 0001:0010b760       __alloca_probe             1010c760     MSVCRT:chkstk.obj
 0001:0010b78c       _memset                    1010c78c f   MSVCRT:MSVCR100.dll
 0001:0010b7a0       __ftol2_sse                1010c7a0 f   MSVCRT:ftol2.obj
 0001:0010b7a9       __ftol2_pentium4           1010c7a9 f   MSVCRT:ftol2.obj
 0001:0010b7bc       __ftol2_sse_excpt          1010c7bc f   MSVCRT:ftol2.obj
 0001:0010b7d6       __ftol2                    1010c7d6 f   MSVCRT:ftol2.obj
 0001:0010b84c       _free                      1010c84c f   MSVCRT:MSVCR100.dll
 0001:0010b852       _sprintf                   1010c852 f   MSVCRT:MSVCR100.dll
 0001:0010b858       _malloc                    1010c858 f   MSVCRT:MSVCR100.dll
 0001:0010b85e       _strcat                    1010c85e f   MSVCRT:MSVCR100.dll
 0001:0010b864       _memcpy                    1010c864 f   MSVCRT:MSVCR100.dll
 0001:0010b86a       _NtCurrentTeb              1010c86a f i MSVCRT:crtdll.obj
 0001:0010b8bf       __CRT_INIT@12              1010c8bf f   MSVCRT:crtdll.obj
 0001:0010bbdf       __DllMainCRTStartup@12     1010cbdf f   MSVCRT:crtdll.obj
 0001:0010bc02       ___report_gsfailure        1010cc02 f   MSVCRT:gs_report.obj
 0001:0010bd08       ___sse2_available_init     1010cd08 f   MSVCRT:cpu_disp.obj
 0001:0010bd18       ___clean_type_info_names   1010cd18 f   MSVCRT:tncleanup.obj
 0001:0010bd24       __onexit                   1010cd24 f   MSVCRT:atonexit.obj
 0001:0010bdc5       _atexit                    1010cdc5 f   MSVCRT:atonexit.obj
 0001:0010bddc       __RTC_Initialize           1010cddc f   MSVCRT:_initsect_.obj
 0001:0010be02       __RTC_Terminate            1010ce02 f   MSVCRT:_initsect_.obj
 0001:0010be28       __malloc_crt               1010ce28 f   MSVCRT:MSVCR100.dll
 0001:0010be2e       __encoded_null             1010ce2e f   MSVCRT:MSVCR100.dll
 0001:0010be40       __ValidateImageBase        1010ce40 f   MSVCRT:pesect.obj
 0001:0010be80       __FindPESection            1010ce80 f   MSVCRT:pesect.obj
 0001:0010bed0       __IsNonwritableInCurrentImage 1010ced0 f   MSVCRT:pesect.obj
 0001:0010bf8c       __initterm                 1010cf8c f   MSVCRT:MSVCR100.dll
 0001:0010bf92       __initterm_e               1010cf92 f   MSVCRT:MSVCR100.dll
 0001:0010bf98       __amsg_exit                1010cf98 f   MSVCRT:MSVCR100.dll
 0001:0010bf9e       ___CppXcptFilter           1010cf9e f   MSVCRT:MSVCR100.dll
 0001:0010bfa4       _DllMain@12                1010cfa4 f   MSVCRT:dllmain.obj
 0001:0010bfd0       __SEH_prolog4              1010cfd0 f   MSVCRT:sehprolg4.obj
 0001:0010c015       __SEH_epilog4              1010d015 f   MSVCRT:sehprolg4.obj
 0001:0010c029       __except_handler4          1010d029 f   MSVCRT:chandler4gs.obj
 0001:0010c04e       ___security_init_cookie    1010d04e f   MSVCRT:gs_support.obj
 0001:0010c0ea       __crt_debugger_hook        1010d0ea f   MSVCRT:MSVCR100.dll
 0001:0010c0f0       ___clean_type_info_names_internal 1010d0f0 f   MSVCRT:MSVCR100.dll
 0001:0010c0f6       __unlock                   1010d0f6 f   MSVCRT:MSVCR100.dll
 0001:0010c0fc       ___dllonexit               1010d0fc f   MSVCRT:MSVCR100.dll
 0001:0010c102       __lock                     1010d102 f   MSVCRT:MSVCR100.dll
 0001:0010c108       __except_handler4_common   1010d108 f   MSVCRT:MSVCR100.dll
 0001:0010c10e       _EncodePointer@4           1010d10e f   kernel32:KERNEL32.dll
 0001:0010c114       _DecodePointer@4           1010d114 f   kernel32:KERNEL32.dll
 0001:0010c11a       _InterlockedExchange@8     1010d11a f   kernel32:KERNEL32.dll
 0001:0010c120       _Sleep@4                   1010d120 f   kernel32:KERNEL32.dll
 0001:0010c126       _InterlockedCompareExchange@12 1010d126 f   kernel32:KERNEL32.dll
 0001:0010c12c       _TerminateProcess@8        1010d12c f   kernel32:KERNEL32.dll
 0001:0010c132       _GetCurrentProcess@0       1010d132 f   kernel32:KERNEL32.dll
 0001:0010c138       _UnhandledExceptionFilter@4 1010d138 f   kernel32:KERNEL32.dll
 0001:0010c13e       _SetUnhandledExceptionFilter@4 1010d13e f   kernel32:KERNEL32.dll
 0001:0010c144       _IsDebuggerPresent@0       1010d144 f   kernel32:KERNEL32.dll
 0001:0010c14a       _IsProcessorFeaturePresent@4 1010d14a f   kernel32:KERNEL32.dll
 0001:0010c150       _DisableThreadLibraryCalls@4 1010d150 f   kernel32:KERNEL32.dll
 0001:0010c156       _QueryPerformanceCounter@4 1010d156 f   kernel32:KERNEL32.dll
 0001:0010c15c       _GetTickCount@0            1010d15c f   kernel32:KERNEL32.dll
 0001:0010c162       _GetCurrentThreadId@0      1010d162 f   kernel32:KERNEL32.dll
 0001:0010c168       _GetCurrentProcessId@0     1010d168 f   kernel32:KERNEL32.dll
 0001:0010c16e       _GetSystemTimeAsFileTime@4 1010d16e f   kernel32:KERNEL32.dll
 0002:00000000       __imp__GetCurrentProcessId@0 1010e000     kernel32:KERNEL32.dll
 0002:00000004       __imp__GetCurrentThreadId@0 1010e004     kernel32:KERNEL32.dll
 0002:00000008       __imp__GetTickCount@0      1010e008     kernel32:KERNEL32.dll
 0002:0000000c       __imp__QueryPerformanceCounter@4 1010e00c     kernel32:KERNEL32.dll
 0002:00000010       __imp__DisableThreadLibraryCalls@4 1010e010     kernel32:KERNEL32.dll
 0002:00000014       __imp__IsProcessorFeaturePresent@4 1010e014     kernel32:KERNEL32.dll
 0002:00000018       __imp__IsDebuggerPresent@0 1010e018     kernel32:KERNEL32.dll
 0002:0000001c       __imp__SetUnhandledExceptionFilter@4 1010e01c     kernel32:KERNEL32.dll
 0002:00000020       __imp__UnhandledExceptionFilter@4 1010e020     kernel32:KERNEL32.dll
 0002:00000024       __imp__GetCurrentProcess@0 1010e024     kernel32:KERNEL32.dll
 0002:00000028       __imp__TerminateProcess@8  1010e028     kernel32:KERNEL32.dll
 0002:0000002c       __imp__InterlockedCompareExchange@12 1010e02c     kernel32:KERNEL32.dll
 0002:00000030       __imp__Sleep@4             1010e030     kernel32:KERNEL32.dll
 0002:00000034       __imp__InterlockedExchange@8 1010e034     kernel32:KERNEL32.dll
 0002:00000038       __imp__DecodePointer@4     1010e038     kernel32:KERNEL32.dll
 0002:0000003c       __imp__EncodePointer@4     1010e03c     kernel32:KERNEL32.dll
 0002:00000040       __imp__GetSystemTimeAsFileTime@4 1010e040     kernel32:KERNEL32.dll
 0002:00000044       \177KERNEL32_NULL_THUNK_DATA 1010e044     kernel32:KERNEL32.dll
 0002:00000048       __imp___except_handler4_common 1010e048     MSVCRT:MSVCR100.dll
 0002:0000004c       __imp___lock               1010e04c     MSVCRT:MSVCR100.dll
 0002:00000050       __imp____dllonexit         1010e050     MSVCRT:MSVCR100.dll
 0002:00000054       __imp___unlock             1010e054     MSVCRT:MSVCR100.dll
 0002:00000058       __imp____clean_type_info_names_internal 1010e058     MSVCRT:MSVCR100.dll
 0002:0000005c       __imp___crt_debugger_hook  1010e05c     MSVCRT:MSVCR100.dll
 0002:00000060       __imp____CppXcptFilter     1010e060     MSVCRT:MSVCR100.dll
 0002:00000064       __imp___amsg_exit          1010e064     MSVCRT:MSVCR100.dll
 0002:00000068       __imp___initterm_e         1010e068     MSVCRT:MSVCR100.dll
 0002:0000006c       __imp___initterm           1010e06c     MSVCRT:MSVCR100.dll
 0002:00000070       __imp___encoded_null       1010e070     MSVCRT:MSVCR100.dll
 0002:00000074       __imp___malloc_crt         1010e074     MSVCRT:MSVCR100.dll
 0002:00000078       __imp__memcpy              1010e078     MSVCRT:MSVCR100.dll
 0002:0000007c       __imp__strcat              1010e07c     MSVCRT:MSVCR100.dll
 0002:00000080       __imp__malloc              1010e080     MSVCRT:MSVCR100.dll
 0002:00000084       __imp__sprintf             1010e084     MSVCRT:MSVCR100.dll
 0002:00000088       __imp__free                1010e088     MSVCRT:MSVCR100.dll
 0002:0000008c       __imp__memset              1010e08c     MSVCRT:MSVCR100.dll
 0002:00000090       __imp__strlen              1010e090     MSVCRT:MSVCR100.dll
 0002:00000094       __imp__strcmp              1010e094     MSVCRT:MSVCR100.dll
 0002:00000098       __imp___onexit             1010e098     MSVCRT:MSVCR100.dll
 0002:0000009c       \177MSVCR100_NULL_THUNK_DATA 1010e09c     MSVCRT:MSVCR100.dll
 0002:000000a0       __imp__mexErrMsgTxt        1010e0a0     libmex:libmex.dll
 0002:000000a4       __imp__mexUnlock           1010e0a4     libmex:libmex.dll
 0002:000000a8       __imp__mexIsLocked         1010e0a8     libmex:libmex.dll
 0002:000000ac       __imp__mexWarnMsgTxt       1010e0ac     libmex:libmex.dll
 0002:000000b0       __imp__mexLock             1010e0b0     libmex:libmex.dll
 0002:000000b4       __imp__mexMakeArrayPersistent 1010e0b4     libmex:libmex.dll
 0002:000000b8       __imp__mexCallMATLAB       1010e0b8     libmex:libmex.dll
 0002:000000bc       \177libmex_NULL_THUNK_DATA 1010e0bc     libmex:libmex.dll
 0002:000000c0       __imp__muDoubleScalarRound 1010e0c0     libmwmathutil:libmwmathutil.dll
 0002:000000c4       __imp__muDoubleScalarLog   1010e0c4     libmwmathutil:libmwmathutil.dll
 0002:000000c8       __imp__muDoubleScalarFloor 1010e0c8     libmwmathutil:libmwmathutil.dll
 0002:000000cc       __imp__muDoubleScalarAbs   1010e0cc     libmwmathutil:libmwmathutil.dll
 0002:000000d0       \177libmwmathutil_NULL_THUNK_DATA 1010e0d0     libmwmathutil:libmwmathutil.dll
 0002:000000d4       __imp__mxCreateStructMatrix_730 1010e0d4     libmx:libmx.dll
 0002:000000d8       __imp__mxGetPr             1010e0d8     libmx:libmx.dll
 0002:000000dc       __imp__mxCalloc            1010e0dc     libmx:libmx.dll
 0002:000000e0       __imp__mxGetM              1010e0e0     libmx:libmx.dll
 0002:000000e4       __imp__mxGetN              1010e0e4     libmx:libmx.dll
 0002:000000e8       __imp__mxIsComplex         1010e0e8     libmx:libmx.dll
 0002:000000ec       __imp__mxIsNumeric         1010e0ec     libmx:libmx.dll
 0002:000000f0       __imp__mxGetClassID        1010e0f0     libmx:libmx.dll
 0002:000000f4       __imp__mxIsEmpty           1010e0f4     libmx:libmx.dll
 0002:000000f8       __imp__mxCreateCellMatrix_730 1010e0f8     libmx:libmx.dll
 0002:000000fc       __imp__mxGetScalar         1010e0fc     libmx:libmx.dll
 0002:00000100       __imp__mxCreateString      1010e100     libmx:libmx.dll
 0002:00000104       __imp__mxSetField_730      1010e104     libmx:libmx.dll
 0002:00000108       __imp__mxCreateDoubleScalar 1010e108     libmx:libmx.dll
 0002:0000010c       __imp__mxDuplicateArray    1010e10c     libmx:libmx.dll
 0002:00000110       __imp__mxDestroyArray      1010e110     libmx:libmx.dll
 0002:00000114       __imp__mxIsChar            1010e114     libmx:libmx.dll
 0002:00000118       __imp__mxGetString_730     1010e118     libmx:libmx.dll
 0002:0000011c       __imp__mxCreateDoubleMatrix_730 1010e11c     libmx:libmx.dll
 0002:00000120       \177libmx_NULL_THUNK_DATA  1010e120     libmx:libmx.dll
 0002:00000124       __imp__utMalloc            1010e124     libut:libut.dll
 0002:00000128       __imp__utFree              1010e128     libut:libut.dll
 0002:0000012c       \177libut_NULL_THUNK_DATA  1010e12c     libut:libut.dll
 0002:00000130       __imp__sf_debug_symbol_scope_add_eml 1010e130     sf_runtime:sf_runtime.dll
 0002:00000134       __imp__sf_mex_listen_for_ctrl_c 1010e134     sf_runtime:sf_runtime.dll
 0002:00000138       __imp__sf_debug_eml_data_array_bounds_error_check 1010e138     sf_runtime:sf_runtime.dll
 0002:0000013c       __imp__sf_debug_integer_check 1010e13c     sf_runtime:sf_runtime.dll
 0002:00000140       __imp__sf_debug_read_before_write_check 1010e140     sf_runtime:sf_runtime.dll
 0002:00000144       __imp__sf_clear_rtw_identifier 1010e144     sf_runtime:sf_runtime.dll
 0002:00000148       __imp__sf_get_subchart_simstruct 1010e148     sf_runtime:sf_runtime.dll
 0002:0000014c       __imp__sf_mex_call_debug   1010e14c     sf_runtime:sf_runtime.dll
 0002:00000150       __imp__cv_eml_init_mcdc    1010e150     sf_runtime:sf_runtime.dll
 0002:00000154       __imp__sf_debug_temporal_threshold 1010e154     sf_runtime:sf_runtime.dll
 0002:00000158       __imp__sf_debug_symbol_scope_add_eml_dyn_importable 1010e158     sf_runtime:sf_runtime.dll
 0002:0000015c       __imp__sf_debug_set_chart_data_props 1010e15c     sf_runtime:sf_runtime.dll
 0002:00000160       __imp__sf_mex_import_vs    1010e160     sf_runtime:sf_runtime.dll
 0002:00000164       __imp__cv_script_init_mcdc 1010e164     sf_runtime:sf_runtime.dll
 0002:00000168       __imp__cv_script_init_if   1010e168     sf_runtime:sf_runtime.dll
 0002:0000016c       __imp__cv_script_eval      1010e16c     sf_runtime:sf_runtime.dll
 0002:00000170       __imp__sf_debug_create_debug_instance_struct 1010e170     sf_runtime:sf_runtime.dll
 0002:00000174       __imp__sf_debug_api        1010e174     sf_runtime:sf_runtime.dll
 0002:00000178       __imp__callMdlMethodAndReportError 1010e178     sf_runtime:sf_runtime.dll
 0002:0000017c       __imp__call_sf_machine_global_method_dispatcher 1010e17c     sf_runtime:sf_runtime.dll
 0002:00000180       __imp__sf_clear_error_manager_info 1010e180     sf_runtime:sf_runtime.dll
 0002:00000184       __imp__sf_mex_error_direct_call 1010e184     sf_runtime:sf_runtime.dll
 0002:00000188       __imp__eml_debug_line_call 1010e188     sf_runtime:sf_runtime.dll
 0002:0000018c       __imp__sf_debug_symbol_scope_add_importable 1010e18c     sf_runtime:sf_runtime.dll
 0002:00000190       __imp__sf_call_output_fcn_call 1010e190     sf_runtime:sf_runtime.dll
 0002:00000194       __imp__sf_debug_unset_instance_data_value_ptr 1010e194     sf_runtime:sf_runtime.dll
 0002:00000198       __imp__cv_eval_point       1010e198     sf_runtime:sf_runtime.dll
 0002:0000019c       __imp__cv_eml_eval         1010e19c     sf_runtime:sf_runtime.dll
 0002:000001a0       __imp__sf_debug_symbol_scope_push_eml 1010e1a0     sf_runtime:sf_runtime.dll
 0002:000001a4       __imp__sf_debug_symbol_scope_add_eml_importable 1010e1a4     sf_runtime:sf_runtime.dll
 0002:000001a8       __imp__sf_mex_sub          1010e1a8     sf_runtime:sf_runtime.dll
 0002:000001ac       __imp__sf_debug_symbol_scope_push 1010e1ac     sf_runtime:sf_runtime.dll
 0002:000001b0       __imp__sf_debug_data_range_wrapper 1010e1b0     sf_runtime:sf_runtime.dll
 0002:000001b4       __imp__sf_debug_symbol_scope_pop 1010e1b4     sf_runtime:sf_runtime.dll
 0002:000001b8       __imp__sf_debug_check_for_state_inconsistency 1010e1b8     sf_runtime:sf_runtime.dll
 0002:000001bc       __imp__sf_call_output_fcn_disable 1010e1bc     sf_runtime:sf_runtime.dll
 0002:000001c0       __imp__sf_call_output_fcn_enable 1010e1c0     sf_runtime:sf_runtime.dll
 0002:000001c4       __imp__sf_get_time         1010e1c4     sf_runtime:sf_runtime.dll
 0002:000001c8       __imp__sf_get_output_port_reusable 1010e1c8     sf_runtime:sf_runtime.dll
 0002:000001cc       __imp__sf_debug_get_script_id 1010e1cc     sf_runtime:sf_runtime.dll
 0002:000001d0       __imp__sf_debug_set_script_translation 1010e1d0     sf_runtime:sf_runtime.dll
 0002:000001d4       __imp__sf_debug_initialize_chart 1010e1d4     sf_runtime:sf_runtime.dll
 0002:000001d8       __imp__sf_debug_set_chart_event_scope 1010e1d8     sf_runtime:sf_runtime.dll
 0002:000001dc       __imp__sf_debug_set_chart_state_info 1010e1dc     sf_runtime:sf_runtime.dll
 0002:000001e0       __imp__sf_debug_set_chart_substate_count 1010e1e0     sf_runtime:sf_runtime.dll
 0002:000001e4       __imp__sf_debug_set_chart_decomposition 1010e1e4     sf_runtime:sf_runtime.dll
 0002:000001e8       __imp__sf_debug_set_chart_substate_index 1010e1e8     sf_runtime:sf_runtime.dll
 0002:000001ec       __imp__sf_debug_set_chart_state_substate_count 1010e1ec     sf_runtime:sf_runtime.dll
 0002:000001f0       __imp__sf_debug_set_chart_state_substate_index 1010e1f0     sf_runtime:sf_runtime.dll
 0002:000001f4       __imp__sf_debug_cv_init_chart 1010e1f4     sf_runtime:sf_runtime.dll
 0002:000001f8       __imp__sf_debug_set_chart_disable_implicit_casting 1010e1f8     sf_runtime:sf_runtime.dll
 0002:000001fc       __imp__sf_debug_terminate  1010e1fc     sf_runtime:sf_runtime.dll
 0002:00000200       __imp__sf_debug_set_chart_event_thresholds 1010e200     sf_runtime:sf_runtime.dll
 0002:00000204       __imp__sf_debug_cv_init_state 1010e204     sf_runtime:sf_runtime.dll
 0002:00000208       __imp__sf_debug_cv_init_trans 1010e208     sf_runtime:sf_runtime.dll
 0002:0000020c       __imp__cv_eml_init_script  1010e20c     sf_runtime:sf_runtime.dll
 0002:00000210       __imp__cv_eml_init_if      1010e210     sf_runtime:sf_runtime.dll
 0002:00000214       __imp__cv_eml_init_fcn     1010e214     sf_runtime:sf_runtime.dll
 0002:00000218       __imp__cv_eml_init_for     1010e218     sf_runtime:sf_runtime.dll
 0002:0000021c       __imp__cv_script_init_script 1010e21c     sf_runtime:sf_runtime.dll
 0002:00000220       __imp__cv_script_init_fcn  1010e220     sf_runtime:sf_runtime.dll
 0002:00000224       __imp__sf_debug_set_chart_data_compiled_props 1010e224     sf_runtime:sf_runtime.dll
 0002:00000228       __imp__sf_debug_set_instance_data_value_ptr 1010e228     sf_runtime:sf_runtime.dll
 0002:0000022c       __imp__sf_debug_reset_current_state_configuration 1010e22c     sf_runtime:sf_runtime.dll
 0002:00000230       __imp__sim_mode_is_rtw_gen 1010e230     sf_runtime:sf_runtime.dll
 0002:00000234       __imp__sim_mode_is_external 1010e234     sf_runtime:sf_runtime.dll
 0002:00000238       __imp__sf_is_chart_inlinable 1010e238     sf_runtime:sf_runtime.dll
 0002:0000023c       __imp__sf_rtw_info_uint_prop 1010e23c     sf_runtime:sf_runtime.dll
 0002:00000240       __imp__sf_update_buildInfo 1010e240     sf_runtime:sf_runtime.dll
 0002:00000244       __imp__sf_mark_output_events_with_multiple_callers 1010e244     sf_runtime:sf_runtime.dll
 0002:00000248       __imp__sf_mark_chart_expressionable_inputs 1010e248     sf_runtime:sf_runtime.dll
 0002:0000024c       __imp__sf_mark_chart_reusable_outputs 1010e24c     sf_runtime:sf_runtime.dll
 0002:00000250       __imp__sf_set_rtw_dwork_info 1010e250     sf_runtime:sf_runtime.dll
 0002:00000254       __imp__sf_mex_import       1010e254     sf_runtime:sf_runtime.dll
 0002:00000258       __imp__sf_debug_get_animation 1010e258     sf_runtime:sf_runtime.dll
 0002:0000025c       __imp__sf_debug_set_animation 1010e25c     sf_runtime:sf_runtime.dll
 0002:00000260       __imp__sf_debug_set_honor_breakpoints 1010e260     sf_runtime:sf_runtime.dll
 0002:00000264       __imp__sf_debug_call       1010e264     sf_runtime:sf_runtime.dll
 0002:00000268       __imp__sf_mex_getcell      1010e268     sf_runtime:sf_runtime.dll
 0002:0000026c       __imp__sf_debug_animate    1010e26c     sf_runtime:sf_runtime.dll
 0002:00000270       __imp__sf_mex_decode_encoded_mx_struct_array 1010e270     sf_runtime:sf_runtime.dll
 0002:00000274       __imp__sf_mex_setcell      1010e274     sf_runtime:sf_runtime.dll
 0002:00000278       __imp__sf_mex_dup          1010e278     sf_runtime:sf_runtime.dll
 0002:0000027c       __imp__sf_mex_call_matlab  1010e27c     sf_runtime:sf_runtime.dll
 0002:00000280       __imp__sf_mex_error_message 1010e280     sf_runtime:sf_runtime.dll
 0002:00000284       __imp__sf_mex_create       1010e284     sf_runtime:sf_runtime.dll
 0002:00000288       __imp__sf_mex_addfield     1010e288     sf_runtime:sf_runtime.dll
 0002:0000028c       __imp__sf_mex_createcellmatrix 1010e28c     sf_runtime:sf_runtime.dll
 0002:00000290       __imp__sf_mex_duplicatearraysafe 1010e290     sf_runtime:sf_runtime.dll
 0002:00000294       __imp__sf_mex_destroy      1010e294     sf_runtime:sf_runtime.dll
 0002:00000298       __imp__sf_mex_createstruct 1010e298     sf_runtime:sf_runtime.dll
 0002:0000029c       __imp__sf_mex_assign       1010e29c     sf_runtime:sf_runtime.dll
 0002:000002a0       __imp__sf_mex_emlrtNameCapturePostProcessR2012a 1010e2a0     sf_runtime:sf_runtime.dll
 0002:000002a4       __imp__sf_load_rtw_optimization_info 1010e2a4     sf_runtime:sf_runtime.dll
 0002:000002a8       __imp__sf_debug_initialize_machine 1010e2a8     sf_runtime:sf_runtime.dll
 0002:000002ac       __imp__sf_debug_set_machine_event_thresholds 1010e2ac     sf_runtime:sf_runtime.dll
 0002:000002b0       __imp__sf_debug_sub_assign_size_check_nd 1010e2b0     sf_runtime:sf_runtime.dll
 0002:000002b4       __imp__sf_debug_set_machine_data_thresholds 1010e2b4     sf_runtime:sf_runtime.dll
 0002:000002b8       \177sf_runtime_NULL_THUNK_DATA 1010e2b8     sf_runtime:sf_runtime.dll
 0002:000002bc       ___xc_a                    1010e2bc     MSVCRT:cinitexe.obj
 0002:000002c0       ___xc_z                    1010e2c0     MSVCRT:cinitexe.obj
 0002:000002c4       ___xi_a                    1010e2c4     MSVCRT:cinitexe.obj
 0002:000002d0       ___xi_z                    1010e2d0     MSVCRT:cinitexe.obj
 0002:000002d8       __real@41c8294448800000    1010e2d8     testWalkStepWorldSim_sfun.obj
 0002:000002e0       __real@41e4b124c4600000    1010e2e0     testWalkStepWorldSim_sfun.obj
 0002:000002e8       __real@41e4319e59c00000    1010e2e8     testWalkStepWorldSim_sfun.obj
 0002:000002f0       __real@41d2cd08bf000000    1010e2f0     testWalkStepWorldSim_sfun.obj
 0002:000002f8       __real@41b0fb04df000000    1010e2f8     testWalkStepWorldSim_sfun.obj
 0002:00000300       __real@41da14ed17400000    1010e300     testWalkStepWorldSim_sfun.obj
 0002:00000308       __real@41d47f2e8cc00000    1010e308     testWalkStepWorldSim_sfun.obj
 0002:00000310       __real@41eb0e6e75400000    1010e310     testWalkStepWorldSim_sfun.obj
 0002:00000318       __real@41db8917e6000000    1010e318     testWalkStepWorldSim_sfun.obj
 0002:00000320       __real@41ecfc0a54000000    1010e320     testWalkStepWorldSim_sfun.obj
 0002:00000328       __real@41b576448a000000    1010e328     testWalkStepWorldSim_sfun.obj
 0002:00000330       __real@41c624c3b7000000    1010e330     testWalkStepWorldSim_sfun.obj
 0002:00000338       __real@0000000000000000    1010e338     testWalkStepWorldSim_sfun.obj
 0002:00000340       __real@41ee260324e00000    1010e340     testWalkStepWorldSim_sfun.obj
 0002:00000348       __real@41d2aa2367c00000    1010e348     testWalkStepWorldSim_sfun.obj
 0002:00000350       __real@41d149eee3400000    1010e350     testWalkStepWorldSim_sfun.obj
 0002:00000358       __real@41d74f0c09c00000    1010e358     testWalkStepWorldSim_sfun.obj
 0002:00000360       __real@41d7883788800000    1010e360     c1_testWalkStepWorldSim.obj
 0002:00000368       __real@4192f344c4000000    1010e368     c1_testWalkStepWorldSim.obj
 0002:00000370       __real@41e9db70ae400000    1010e370     c1_testWalkStepWorldSim.obj
 0002:00000378       __real@41d283958a400000    1010e378     c1_testWalkStepWorldSim.obj
 0002:00000380       __real@4014000000000000    1010e380     c1_testWalkStepWorldSim.obj
 0002:00000388       __real@4070000000000000    1010e388     c1_testWalkStepWorldSim.obj
 0002:00000390       __real@4024000000000000    1010e390     c1_testWalkStepWorldSim.obj
 0002:00000398       __real@4030000000000000    1010e398     c1_testWalkStepWorldSim.obj
 0002:000003a0       __real@3ff0000000000000    1010e3a0     c1_testWalkStepWorldSim.obj
 0002:000003a8       __real@4018000000000000    1010e3a8     c1_testWalkStepWorldSim.obj
 0002:000003b0       __real@4010000000000000    1010e3b0     c1_testWalkStepWorldSim.obj
 0002:000003b8       __real@4008000000000000    1010e3b8     c1_testWalkStepWorldSim.obj
 0002:000003c0       __real@4000000000000000    1010e3c0     c1_testWalkStepWorldSim.obj
 0002:000003c8       __real@4040000000000000    1010e3c8     c1_testWalkStepWorldSim.obj
 0002:000003d0       __real@41ed3bfe59800000    1010e3d0     c2_testWalkStepWorldSim.obj
 0002:000003d8       __real@419da584fc000000    1010e3d8     c2_testWalkStepWorldSim.obj
 0002:000003e0       __real@41e3856f02e00000    1010e3e0     c2_testWalkStepWorldSim.obj
 0002:000003e8       __real@41a27472c2000000    1010e3e8     c2_testWalkStepWorldSim.obj
 0002:000003f0       __real@401c000000000000    1010e3f0     c2_testWalkStepWorldSim.obj
 0002:000003f8       __real@4020000000000000    1010e3f8     c4_testWalkStepWorldSim.obj
 0002:00000400       __real@3defffffffffffff    1010e400     c4_testWalkStepWorldSim.obj
 0002:00000408       __real@3e00000000200000    1010e408     c4_testWalkStepWorldSim.obj
 0002:00000410       __real@40b5710000000000    1010e410     c4_testWalkStepWorldSim.obj
 0002:00000418       __real@4036000000000000    1010e418     c4_testWalkStepWorldSim.obj
 0002:00000420       __real@4035000000000000    1010e420     c4_testWalkStepWorldSim.obj
 0002:00000428       __real@4034000000000000    1010e428     c4_testWalkStepWorldSim.obj
 0002:00000430       __real@4033000000000000    1010e430     c4_testWalkStepWorldSim.obj
 0002:00000438       __real@4032000000000000    1010e438     c4_testWalkStepWorldSim.obj
 0002:00000440       __real@4031000000000000    1010e440     c4_testWalkStepWorldSim.obj
 0002:00000448       __real@402e000000000000    1010e448     c4_testWalkStepWorldSim.obj
 0002:00000450       __real@402c000000000000    1010e450     c4_testWalkStepWorldSim.obj
 0002:00000458       __real@402a000000000000    1010e458     c4_testWalkStepWorldSim.obj
 0002:00000460       __real@4028000000000000    1010e460     c4_testWalkStepWorldSim.obj
 0002:00000468       __real@4026000000000000    1010e468     c4_testWalkStepWorldSim.obj
 0002:00000470       __real@4022000000000000    1010e470     c4_testWalkStepWorldSim.obj
 0002:00000478       __real@405b000000000000    1010e478     c4_testWalkStepWorldSim.obj
 0002:00000480       __real@405a000000000000    1010e480     c4_testWalkStepWorldSim.obj
 0002:00000488       __real@405a800000000000    1010e488     c4_testWalkStepWorldSim.obj
 0002:00000490       __real@4062a00000000000    1010e490     c4_testWalkStepWorldSim.obj
 0002:00000498       __real@4056c00000000000    1010e498     c4_testWalkStepWorldSim.obj
 0002:000004a0       __real@405a400000000000    1010e4a0     c4_testWalkStepWorldSim.obj
 0002:000004a8       __real@4063400000000000    1010e4a8     c4_testWalkStepWorldSim.obj
 0002:000004b0       __real@4057400000000000    1010e4b0     c4_testWalkStepWorldSim.obj
 0002:000004b8       __real@4057000000000000    1010e4b8     c4_testWalkStepWorldSim.obj
 0002:000004c0       __real@405b400000000000    1010e4c0     c4_testWalkStepWorldSim.obj
 0002:000004c8       __real@405ac00000000000    1010e4c8     c4_testWalkStepWorldSim.obj
 0002:000004d0       __real@405cc00000000000    1010e4d0     c4_testWalkStepWorldSim.obj
 0002:000004d8       __real@4061200000000000    1010e4d8     c4_testWalkStepWorldSim.obj
 0002:000004e0       __real@4061800000000000    1010e4e0     c4_testWalkStepWorldSim.obj
 0002:000004e8       __real@4061600000000000    1010e4e8     c4_testWalkStepWorldSim.obj
 0002:000004f0       __real@41f0000000000000    1010e4f0     c4_testWalkStepWorldSim.obj
 0002:000004f8       __real@3ca0000000000000    1010e4f8     c4_testWalkStepWorldSim.obj
 0002:00000500       __real@4190000000000000    1010e500     c4_testWalkStepWorldSim.obj
 0002:00000508       __real@406c800000000000    1010e508     c4_testWalkStepWorldSim.obj
 0002:00000510       __real@4078d00000000000    1010e510     c4_testWalkStepWorldSim.obj
 0002:00000518       __real@4083880000000000    1010e518     c4_testWalkStepWorldSim.obj
 0002:00000520       __real@41eeaf58fec00000    1010e520     c4_testWalkStepWorldSim.obj
 0002:00000528       __real@41ebc42bd6a00000    1010e528     c4_testWalkStepWorldSim.obj
 0002:00000530       __real@41e34c035d200000    1010e530     c4_testWalkStepWorldSim.obj
 0002:00000538       __real@41e148b617c00000    1010e538     c4_testWalkStepWorldSim.obj
 0002:00000540       __real@4058c00000000000    1010e540     c5_testWalkStepWorldSim.obj
 0002:00000548       __real@4062000000000000    1010e548     c5_testWalkStepWorldSim.obj
 0002:00000550       __real@405f400000000000    1010e550     c5_testWalkStepWorldSim.obj
 0002:00000558       __real@405fc00000000000    1010e558     c5_testWalkStepWorldSim.obj
 0002:00000560       __real@4055800000000000    1010e560     c5_testWalkStepWorldSim.obj
 0002:00000568       __real@4059800000000000    1010e568     c5_testWalkStepWorldSim.obj
 0002:00000570       __real@4055c00000000000    1010e570     c5_testWalkStepWorldSim.obj
 0002:00000578       __real@4057800000000000    1010e578     c5_testWalkStepWorldSim.obj
 0002:00000580       __real@4057c00000000000    1010e580     c5_testWalkStepWorldSim.obj
 0002:00000588       __real@4056000000000000    1010e588     c5_testWalkStepWorldSim.obj
 0002:00000590       __real@4058400000000000    1010e590     c5_testWalkStepWorldSim.obj
 0002:00000598       __real@4051000000000000    1010e598     c5_testWalkStepWorldSim.obj
 0002:000005a0       __real@4064000000000000    1010e5a0     c5_testWalkStepWorldSim.obj
 0002:000005a8       __real@4063800000000000    1010e5a8     c5_testWalkStepWorldSim.obj
 0002:000005b0       __real@41e3d82534800000    1010e5b0     c5_testWalkStepWorldSim.obj
 0002:000005b8       __real@41acfca42c000000    1010e5b8     c5_testWalkStepWorldSim.obj
 0002:000005c0       __real@41e5ea6ba0600000    1010e5c0     c5_testWalkStepWorldSim.obj
 0002:000005c8       __real@41ecc87c06600000    1010e5c8     c5_testWalkStepWorldSim.obj
 0002:000005d0       __real@4060600000000000    1010e5d0     c8_testWalkStepWorldSim.obj
 0002:000005d8       __real@4061a00000000000    1010e5d8     c8_testWalkStepWorldSim.obj
 0002:000005e0       __real@4062800000000000    1010e5e0     c8_testWalkStepWorldSim.obj
 0002:000005e8       __real@4062400000000000    1010e5e8     c8_testWalkStepWorldSim.obj
 0002:000005f0       __real@405dc00000000000    1010e5f0     c8_testWalkStepWorldSim.obj
 0002:000005f8       __real@4069400000000000    1010e5f8     c8_testWalkStepWorldSim.obj
 0002:00000600       __real@4056400000000000    1010e600     c8_testWalkStepWorldSim.obj
 0002:00000608       __real@41cd5a0da6800000    1010e608     c8_testWalkStepWorldSim.obj
 0002:00000610       __real@41ef1018b7000000    1010e610     c8_testWalkStepWorldSim.obj
 0002:00000618       __real@41e06c7cdf200000    1010e618     c8_testWalkStepWorldSim.obj
 0002:00000620       __real@41dc2c8371c00000    1010e620     c8_testWalkStepWorldSim.obj
 0002:00000628       __real@4044000000000000    1010e628     c9_testWalkStepWorldSim.obj
 0002:00000630       __real@4039000000000000    1010e630     c9_testWalkStepWorldSim.obj
 0002:00000638       __real@4004000000000000    1010e638     c9_testWalkStepWorldSim.obj
 0002:00000640       __real@c01b99999999999a    1010e640     c9_testWalkStepWorldSim.obj
 0002:00000648       __real@402f666666666666    1010e648     c9_testWalkStepWorldSim.obj
 0002:00000650       __real@4037000000000000    1010e650     c9_testWalkStepWorldSim.obj
 0002:00000658       __real@406fe00000000000    1010e658     c9_testWalkStepWorldSim.obj
 0002:00000660       __real@4060c00000000000    1010e660     c9_testWalkStepWorldSim.obj
 0002:00000668       __real@405e800000000000    1010e668     c9_testWalkStepWorldSim.obj
 0002:00000670       __real@4060a00000000000    1010e670     c9_testWalkStepWorldSim.obj
 0002:00000678       __real@405ec00000000000    1010e678     c9_testWalkStepWorldSim.obj
 0002:00000680       __real@4061000000000000    1010e680     c9_testWalkStepWorldSim.obj
 0002:00000688       __real@405e000000000000    1010e688     c9_testWalkStepWorldSim.obj
 0002:00000690       __real@4060800000000000    1010e690     c9_testWalkStepWorldSim.obj
 0002:00000698       __real@405f000000000000    1010e698     c9_testWalkStepWorldSim.obj
 0002:000006a0       __real@4060400000000000    1010e6a0     c9_testWalkStepWorldSim.obj
 0002:000006a8       __real@405f800000000000    1010e6a8     c9_testWalkStepWorldSim.obj
 0002:000006b0       __real@4060200000000000    1010e6b0     c9_testWalkStepWorldSim.obj
 0002:000006b8       __real@405d000000000000    1010e6b8     c9_testWalkStepWorldSim.obj
 0002:000006c0       __real@405d400000000000    1010e6c0     c9_testWalkStepWorldSim.obj
 0002:000006c8       __real@405d800000000000    1010e6c8     c9_testWalkStepWorldSim.obj
 0002:000006d0       __real@4061400000000000    1010e6d0     c9_testWalkStepWorldSim.obj
 0002:000006d8       __real@4049000000000000    1010e6d8     c9_testWalkStepWorldSim.obj
 0002:000006e0       __real@4069c00000000000    1010e6e0     c9_testWalkStepWorldSim.obj
 0002:000006e8       __real@406e400000000000    1010e6e8     c9_testWalkStepWorldSim.obj
 0002:000006f0       __real@4062e00000000000    1010e6f0     c9_testWalkStepWorldSim.obj
 0002:000006f8       __real@406f600000000000    1010e6f8     c9_testWalkStepWorldSim.obj
 0002:00000700       __real@405c800000000000    1010e700     c9_testWalkStepWorldSim.obj
 0002:00000708       __real@4061c00000000000    1010e708     c9_testWalkStepWorldSim.obj
 0002:00000710       __real@4051c00000000000    1010e710     c9_testWalkStepWorldSim.obj
 0002:00000718       __real@4067200000000000    1010e718     c9_testWalkStepWorldSim.obj
 0002:00000720       __real@406da00000000000    1010e720     c9_testWalkStepWorldSim.obj
 0002:00000728       __real@408f380000000000    1010e728     c9_testWalkStepWorldSim.obj
 0002:00000730       __real@4059000000000000    1010e730     c9_testWalkStepWorldSim.obj
 0002:00000738       __real@4052c00000000000    1010e738     c9_testWalkStepWorldSim.obj
 0002:00000740       __real@4052800000000000    1010e740     c9_testWalkStepWorldSim.obj
 0002:00000748       __real@4048800000000000    1010e748     c9_testWalkStepWorldSim.obj
 0002:00000750       __real@4038000000000000    1010e750     c9_testWalkStepWorldSim.obj
 0002:00000758       __real@4062600000000000    1010e758     c9_testWalkStepWorldSim.obj
 0002:00000760       __real@4064a00000000000    1010e760     c9_testWalkStepWorldSim.obj
 0002:00000768       __real@4060e00000000000    1010e768     c9_testWalkStepWorldSim.obj
 0002:00000770       __real@405e400000000000    1010e770     c9_testWalkStepWorldSim.obj
 0002:00000778       __real@41e17b7f96400000    1010e778     c9_testWalkStepWorldSim.obj
 0002:00000780       __real@41eb3d559ba00000    1010e780     c9_testWalkStepWorldSim.obj
 0002:00000788       __real@41d3ae62d0800000    1010e788     c9_testWalkStepWorldSim.obj
 0002:00000790       __real@41c787ef19000000    1010e790     c9_testWalkStepWorldSim.obj
 0002:00000798       __real@4069000000000000    1010e798     c10_testWalkStepWorldSim.obj
 0002:000007a0       __real@41e0d72fdfa00000    1010e7a0     c10_testWalkStepWorldSim.obj
 0002:000007a8       __real@41d6be737b800000    1010e7a8     c10_testWalkStepWorldSim.obj
 0002:000007b0       __real@41b358379f000000    1010e7b0     c10_testWalkStepWorldSim.obj
 0002:000007b8       __real@41d23a10bb000000    1010e7b8     c10_testWalkStepWorldSim.obj
 0002:000007c0       __real@406cc00000000000    1010e7c0     c11_testWalkStepWorldSim.obj
 0002:000007c8       __real@41c57ade9b000000    1010e7c8     c11_testWalkStepWorldSim.obj
 0002:000007d0       __real@41e8a17e06a00000    1010e7d0     c11_testWalkStepWorldSim.obj
 0002:000007d8       __real@41b31ca5f9000000    1010e7d8     c11_testWalkStepWorldSim.obj
 0002:000007e0       __real@41eba77a1a200000    1010e7e0     c11_testWalkStepWorldSim.obj
 0002:000007e8       __real@41ebdea937800000    1010e7e8     c17_testWalkStepWorldSim.obj
 0002:000007f0       __real@41e8107d18200000    1010e7f0     c17_testWalkStepWorldSim.obj
 0002:000007f8       __real@41ed7b35f8000000    1010e7f8     c17_testWalkStepWorldSim.obj
 0002:00000800       __real@41d7613076c00000    1010e800     c17_testWalkStepWorldSim.obj
 0002:00000808       __real@41ed57036be00000    1010e808     c18_testWalkStepWorldSim.obj
 0002:00000810       __real@41e472d1fb000000    1010e810     c18_testWalkStepWorldSim.obj
 0002:00000818       __real@41d79287e4400000    1010e818     c18_testWalkStepWorldSim.obj
 0002:00000820       __real@41b96fbf37000000    1010e820     c18_testWalkStepWorldSim.obj
 0002:00000828       __real@4062c00000000000    1010e828     c18_testWalkStepWorldSim.obj
 0002:00000830       __real@406b800000000000    1010e830     c18_testWalkStepWorldSim.obj
 0002:00000838       __real@405b800000000000    1010e838     c20_testWalkStepWorldSim.obj
 0002:00000840       __real@405bc00000000000    1010e840     c20_testWalkStepWorldSim.obj
 0002:00000848       __real@4059c00000000000    1010e848     c20_testWalkStepWorldSim.obj
 0002:00000850       __real@41dd4fd411000000    1010e850     c20_testWalkStepWorldSim.obj
 0002:00000858       __real@41daa01476000000    1010e858     c20_testWalkStepWorldSim.obj
 0002:00000860       __real@41e0eddba5c00000    1010e860     c20_testWalkStepWorldSim.obj
 0002:00000868       __real@41e2a15e11400000    1010e868     c20_testWalkStepWorldSim.obj
 0002:00000870       _DYNAMIC_DIMENSION_DEF     1010e870     testWalkStepWorldSim_sfun_registry.obj
 0002:00000880       __ssBadLevel2InputAccessMsg 1010e880     testWalkStepWorldSim_sfun_registry.obj
 0002:00000a08       __ssBadLevel2DirectFeedMsg 1010ea08     testWalkStepWorldSim_sfun_registry.obj
 0002:00000b48       __ssBadLevel2DirectFeedSolutionMsg 1010eb48     testWalkStepWorldSim_sfun_registry.obj
 0002:00000bb8       __ssBadLevel2ZeroDirectFeedMsg 1010ebb8     testWalkStepWorldSim_sfun_registry.obj
 0002:00000cf8       __ssBadLevel2ZeroDirectFeedMsg2 1010ecf8     testWalkStepWorldSim_sfun_registry.obj
 0002:00000de0       __real@bff0000000000000    1010ede0     testWalkStepWorldSim_sfun_registry.obj
 0002:00000de8       __real@4153d65940000000    1010ede8     testWalkStepWorldSim_sfun_registry.obj
 0002:00000df0       __pDefaultRawDllMain       1010edf0     MSVCRT:crtdll.obj
 0002:00000df0       __pRawDllMain              1010edf0     MSVCRT:crtdll.obj
 0002:00000dfc       ?ProcessDetach@NativeDll@<CrtImplementationDetails>@@0IB 1010edfc     MSVCRT:tncleanup.obj
 0002:00000e00       ?ProcessAttach@NativeDll@<CrtImplementationDetails>@@0IB 1010ee00     MSVCRT:tncleanup.obj
 0002:00000e04       ?ThreadAttach@NativeDll@<CrtImplementationDetails>@@0IB 1010ee04     MSVCRT:tncleanup.obj
 0002:00000e08       ?ThreadDetach@NativeDll@<CrtImplementationDetails>@@0IB 1010ee08     MSVCRT:tncleanup.obj
 0002:00000e0c       ?ProcessVerifier@NativeDll@<CrtImplementationDetails>@@0IB 1010ee0c     MSVCRT:tncleanup.obj
 0002:00000e10       __load_config_used         1010ee10     MSVCRT:loadcfg.obj
 0002:00000e60       ___safe_se_handler_table   1010ee60     <linker-defined>
 0002:00000e64       ___rtc_iaa                 1010ee64     MSVCRT:_initsect_.obj
 0002:00000e68       ___rtc_izz                 1010ee68     MSVCRT:_initsect_.obj
 0002:00000e6c       ___rtc_taa                 1010ee6c     MSVCRT:_initsect_.obj
 0002:00000e70       ___rtc_tzz                 1010ee70     MSVCRT:_initsect_.obj
 0002:00000edc       __IMPORT_DESCRIPTOR_sf_runtime 1010eedc     sf_runtime:sf_runtime.dll
 0002:00000ef0       __IMPORT_DESCRIPTOR_libmx  1010eef0     libmx:libmx.dll
 0002:00000f04       __IMPORT_DESCRIPTOR_libmex 1010ef04     libmex:libmex.dll
 0002:00000f18       __IMPORT_DESCRIPTOR_libut  1010ef18     libut:libut.dll
 0002:00000f2c       __IMPORT_DESCRIPTOR_libmwmathutil 1010ef2c     libmwmathutil:libmwmathutil.dll
 0002:00000f40       __IMPORT_DESCRIPTOR_MSVCR100 1010ef40     MSVCRT:MSVCR100.dll
 0002:00000f54       __IMPORT_DESCRIPTOR_KERNEL32 1010ef54     kernel32:KERNEL32.dll
 0002:00000f68       __NULL_IMPORT_DESCRIPTOR   1010ef68     sf_runtime:sf_runtime.dll
 0003:0004e4ac       _DYNAMIC_DIMENSION         1015f4ac     testWalkStepWorldSim_sfun_registry.obj
 0003:0004f038       ___security_cookie         10160038     MSVCRT:gs_cookie.obj
 0003:0004f03c       ___security_cookie_complement 1016003c     MSVCRT:gs_cookie.obj
 0003:0004f040       ___native_dllmain_reason   10160040     MSVCRT:natstart.obj
 0003:0004f044       ___native_vcclrit_reason   10160044     MSVCRT:natstart.obj
 0003:0004f2c8       _sfGlobalDebugInstanceStruct 101602c8     testWalkStepWorldSim_sfun_registry.obj
 0003:0004f5fc       ?__type_info_root_node@@3U__type_info_node@@A 101605fc     MSVCRT:tncleanup.obj
 0003:0004f604       __testWalkStepWorldSimMachineNumber_ 10160604     <common>
 0003:0004f608       ___native_startup_state    10160608     <common>
 0003:0004f60c       ___native_startup_lock     1016060c     <common>
 0003:0004f610       ___onexitend               10160610     <common>
 0003:0004f614       ___onexitbegin             10160614     <common>
 0003:0004f618       ___sse2_available          10160618     <common>
 0003:0004f61c       ___dyn_tls_init_callback   1016061c     <common>

 entry point at        0001:0010bbdf

 Static symbols

 0001:000014d0       _c1_info_helper            100024d0 f   c1_testWalkStepWorldSim.obj
 0001:00001e40       _c1_emlrt_marshallOut      10002e40 f   c1_testWalkStepWorldSim.obj
 0001:00001ea0       _c1_b_emlrt_marshallOut    10002ea0 f   c1_testWalkStepWorldSim.obj
 0001:00007720       _get_sim_state_c1_testWalkStepWorldSim 10008720 f   c1_testWalkStepWorldSim.obj
 0001:0000a110       _c1_get_BML                1000b110 f   c1_testWalkStepWorldSim.obj
 0001:0000a1a0       _c1_get_BML1               1000b1a0 f   c1_testWalkStepWorldSim.obj
 0001:0000a230       _c1_get_BML2               1000b230 f   c1_testWalkStepWorldSim.obj
 0001:0000a2c0       _c1_get_BORED              1000b2c0 f   c1_testWalkStepWorldSim.obj
 0001:0000a350       _c1_get_BOREDOM_THRESHOLD  1000b350 f   c1_testWalkStepWorldSim.obj
 0001:0000a3e0       _c1_get_CONTEMPT           1000b3e0 f   c1_testWalkStepWorldSim.obj
 0001:0000a470       _c1_get_EXCITE             1000b470 f   c1_testWalkStepWorldSim.obj
 0001:0000a500       _c1_get_FEAR               1000b500 f   c1_testWalkStepWorldSim.obj
 0001:0000a590       _c1_get_FRUST              1000b590 f   c1_testWalkStepWorldSim.obj
 0001:0000a620       _c1_get_GAZE_GUI           1000b620 f   c1_testWalkStepWorldSim.obj
 0001:0000a6b0       _c1_get_GAZE_SOFTEYE       1000b6b0 f   c1_testWalkStepWorldSim.obj
 0001:0000a740       _c1_get_GAZE_USER_HAND     1000b740 f   c1_testWalkStepWorldSim.obj
 0001:0000a7d0       _c1_get_GAZE_WIN           1000b7d0 f   c1_testWalkStepWorldSim.obj
 0001:0000a860       _c1_get_HAPPY              1000b860 f   c1_testWalkStepWorldSim.obj
 0001:0000a8f0       _c1_get_IDLE               1000b8f0 f   c1_testWalkStepWorldSim.obj
 0001:0000a980       _c1_get_P                  1000b980 f   c1_testWalkStepWorldSim.obj
 0001:0000aa10       _c1_get_SAD                1000ba10 f   c1_testWalkStepWorldSim.obj
 0001:0000aaa0       _c1_get_STATE_BEFORE       1000baa0 f   c1_testWalkStepWorldSim.obj
 0001:0000ab30       _c1_get_STATE_GO           1000bb30 f   c1_testWalkStepWorldSim.obj
 0001:0000abc0       _c1_get_STATE_HAND         1000bbc0 f   c1_testWalkStepWorldSim.obj
 0001:0000ac50       _c1_get_STATE_OVER         1000bc50 f   c1_testWalkStepWorldSim.obj
 0001:0000ace0       _c1_get_STATE_READY        1000bce0 f   c1_testWalkStepWorldSim.obj
 0001:0000ad70       _c1_get_STATE_RESULT       1000bd70 f   c1_testWalkStepWorldSim.obj
 0001:0000ae00       _c1_get_STATE_WAIT         1000be00 f   c1_testWalkStepWorldSim.obj
 0001:0000ae90       _c1_get_avert              1000be90 f   c1_testWalkStepWorldSim.obj
 0001:0000af20       _c1_get_bHand              1000bf20 f   c1_testWalkStepWorldSim.obj
 0001:0000afb0       _c1_get_bmlsH              1000bfb0 f   c1_testWalkStepWorldSim.obj
 0001:0000b040       _c1_get_bmlsL              1000c040 f   c1_testWalkStepWorldSim.obj
 0001:0000b0d0       _c1_get_bmlsM              1000c0d0 f   c1_testWalkStepWorldSim.obj
 0001:0000b160       _c1_get_boredom            1000c160 f   c1_testWalkStepWorldSim.obj
 0001:0000b1f0       _c1_get_changeFlag         1000c1f0 f   c1_testWalkStepWorldSim.obj
 0001:0000b280       _c1_get_diff               1000c280 f   c1_testWalkStepWorldSim.obj
 0001:0000b310       _c1_get_fileID             1000c310 f   c1_testWalkStepWorldSim.obj
 0001:0000b3a0       _c1_get_gazing             1000c3a0 f   c1_testWalkStepWorldSim.obj
 0001:0000b430       _c1_get_interest           1000c430 f   c1_testWalkStepWorldSim.obj
 0001:0000b4c0       _c1_get_n                  1000c4c0 f   c1_testWalkStepWorldSim.obj
 0001:0000b550       _c1_get_pa                 1000c550 f   c1_testWalkStepWorldSim.obj
 0001:0000b5e0       _c1_get_pr                 1000c5e0 f   c1_testWalkStepWorldSim.obj
 0001:0000b670       _c1_get_r                  1000c670 f   c1_testWalkStepWorldSim.obj
 0001:0000b700       _c1_get_randAvertGazeChance 1000c700 f   c1_testWalkStepWorldSim.obj
 0001:0000b790       _c1_get_randGazeDur        1000c790 f   c1_testWalkStepWorldSim.obj
 0001:0000b820       _c1_get_randPoseChance     1000c820 f   c1_testWalkStepWorldSim.obj
 0001:0000b8b0       _c1_get_randSlowPose       1000c8b0 f   c1_testWalkStepWorldSim.obj
 0001:0000b940       _c1_get_randSmile          1000c940 f   c1_testWalkStepWorldSim.obj
 0001:0000b9d0       _c1_get_s                  1000c9d0 f   c1_testWalkStepWorldSim.obj
 0001:0000ba60       _c1_get_t                  1000ca60 f   c1_testWalkStepWorldSim.obj
 0001:0000baf0       _c1_get_temp               1000caf0 f   c1_testWalkStepWorldSim.obj
 0001:0000bb80       _c1_get_uHand              1000cb80 f   c1_testWalkStepWorldSim.obj
 0001:0000bc10       _sf_get_sim_state_info_c1_testWalkStepWorldSim 1000cc10 f   c1_testWalkStepWorldSim.obj
 0001:0000bdc0       _set_sim_state_c1_testWalkStepWorldSim 1000cdc0 f   c1_testWalkStepWorldSim.obj
 0001:0000d550       _c1_update_debugger_state_c1_testWalkStepWorldSim 1000e550 f   c1_testWalkStepWorldSim.obj
 0001:0000e040       _c1_emlrt_marshallIn       1000f040 f   c1_testWalkStepWorldSim.obj
 0001:0000e090       _c1_b_emlrt_marshallIn     1000f090 f   c1_testWalkStepWorldSim.obj
 0001:0000e0e0       _c1_d_emlrt_marshallIn     1000f0e0 f   c1_testWalkStepWorldSim.obj
 0001:0000e130       _c1_e_emlrt_marshallIn     1000f130 f   c1_testWalkStepWorldSim.obj
 0001:0000e1e0       _c1_i_emlrt_marshallIn     1000f1e0 f   c1_testWalkStepWorldSim.obj
 0001:0000e230       _c1_j_emlrt_marshallIn     1000f230 f   c1_testWalkStepWorldSim.obj
 0001:0000e280       _c1_k_emlrt_marshallIn     1000f280 f   c1_testWalkStepWorldSim.obj
 0001:0000e2d0       _c1_l_emlrt_marshallIn     1000f2d0 f   c1_testWalkStepWorldSim.obj
 0001:0000e380       _c1_m_emlrt_marshallIn     1000f380 f   c1_testWalkStepWorldSim.obj
 0001:0000e3e0       _c1_n_emlrt_marshallIn     1000f3e0 f   c1_testWalkStepWorldSim.obj
 0001:0000e420       _c1_set_BML                1000f420 f   c1_testWalkStepWorldSim.obj
 0001:0000e4b0       _c1_set_BML1               1000f4b0 f   c1_testWalkStepWorldSim.obj
 0001:0000e540       _c1_set_BML2               1000f540 f   c1_testWalkStepWorldSim.obj
 0001:0000e5d0       _c1_set_BORED              1000f5d0 f   c1_testWalkStepWorldSim.obj
 0001:0000e660       _c1_set_BOREDOM_THRESHOLD  1000f660 f   c1_testWalkStepWorldSim.obj
 0001:0000e6f0       _c1_set_CONTEMPT           1000f6f0 f   c1_testWalkStepWorldSim.obj
 0001:0000e780       _c1_set_EXCITE             1000f780 f   c1_testWalkStepWorldSim.obj
 0001:0000e810       _c1_set_FEAR               1000f810 f   c1_testWalkStepWorldSim.obj
 0001:0000e8a0       _c1_set_FRUST              1000f8a0 f   c1_testWalkStepWorldSim.obj
 0001:0000e930       _c1_set_GAZE_GUI           1000f930 f   c1_testWalkStepWorldSim.obj
 0001:0000e9c0       _c1_set_GAZE_SOFTEYE       1000f9c0 f   c1_testWalkStepWorldSim.obj
 0001:0000ea50       _c1_set_GAZE_USER_HAND     1000fa50 f   c1_testWalkStepWorldSim.obj
 0001:0000eae0       _c1_set_GAZE_WIN           1000fae0 f   c1_testWalkStepWorldSim.obj
 0001:0000eb70       _c1_set_HAPPY              1000fb70 f   c1_testWalkStepWorldSim.obj
 0001:0000ec00       _c1_set_IDLE               1000fc00 f   c1_testWalkStepWorldSim.obj
 0001:0000ec90       _c1_set_P                  1000fc90 f   c1_testWalkStepWorldSim.obj
 0001:0000ed20       _c1_set_SAD                1000fd20 f   c1_testWalkStepWorldSim.obj
 0001:0000edb0       _c1_set_STATE_BEFORE       1000fdb0 f   c1_testWalkStepWorldSim.obj
 0001:0000ee40       _c1_set_STATE_GO           1000fe40 f   c1_testWalkStepWorldSim.obj
 0001:0000eed0       _c1_set_STATE_HAND         1000fed0 f   c1_testWalkStepWorldSim.obj
 0001:0000ef60       _c1_set_STATE_OVER         1000ff60 f   c1_testWalkStepWorldSim.obj
 0001:0000eff0       _c1_set_STATE_READY        1000fff0 f   c1_testWalkStepWorldSim.obj
 0001:0000f080       _c1_set_STATE_RESULT       10010080 f   c1_testWalkStepWorldSim.obj
 0001:0000f110       _c1_set_STATE_WAIT         10010110 f   c1_testWalkStepWorldSim.obj
 0001:0000f1a0       _c1_set_avert              100101a0 f   c1_testWalkStepWorldSim.obj
 0001:0000f230       _c1_set_bHand              10010230 f   c1_testWalkStepWorldSim.obj
 0001:0000f2c0       _c1_set_bmlsH              100102c0 f   c1_testWalkStepWorldSim.obj
 0001:0000f350       _c1_set_bmlsL              10010350 f   c1_testWalkStepWorldSim.obj
 0001:0000f3e0       _c1_set_bmlsM              100103e0 f   c1_testWalkStepWorldSim.obj
 0001:0000f470       _c1_set_boredom            10010470 f   c1_testWalkStepWorldSim.obj
 0001:0000f500       _c1_set_changeFlag         10010500 f   c1_testWalkStepWorldSim.obj
 0001:0000f590       _c1_set_diff               10010590 f   c1_testWalkStepWorldSim.obj
 0001:0000f620       _c1_set_fileID             10010620 f   c1_testWalkStepWorldSim.obj
 0001:0000f6b0       _c1_set_gazing             100106b0 f   c1_testWalkStepWorldSim.obj
 0001:0000f740       _c1_set_interest           10010740 f   c1_testWalkStepWorldSim.obj
 0001:0000f7d0       _c1_set_n                  100107d0 f   c1_testWalkStepWorldSim.obj
 0001:0000f860       _c1_set_pa                 10010860 f   c1_testWalkStepWorldSim.obj
 0001:0000f8f0       _c1_set_pr                 100108f0 f   c1_testWalkStepWorldSim.obj
 0001:0000f980       _c1_set_r                  10010980 f   c1_testWalkStepWorldSim.obj
 0001:0000fa10       _c1_set_randAvertGazeChance 10010a10 f   c1_testWalkStepWorldSim.obj
 0001:0000faa0       _c1_set_randGazeDur        10010aa0 f   c1_testWalkStepWorldSim.obj
 0001:0000fb30       _c1_set_randPoseChance     10010b30 f   c1_testWalkStepWorldSim.obj
 0001:0000fbc0       _c1_set_randSlowPose       10010bc0 f   c1_testWalkStepWorldSim.obj
 0001:0000fc50       _c1_set_randSmile          10010c50 f   c1_testWalkStepWorldSim.obj
 0001:0000fce0       _c1_set_s                  10010ce0 f   c1_testWalkStepWorldSim.obj
 0001:0000fd70       _c1_set_t                  10010d70 f   c1_testWalkStepWorldSim.obj
 0001:0000fe00       _c1_set_temp               10010e00 f   c1_testWalkStepWorldSim.obj
 0001:0000fe90       _c1_set_uHand              10010e90 f   c1_testWalkStepWorldSim.obj
 0001:0000ff80       _mdlProcessParameters_c1_testWalkStepWorldSim 10010f80 f   c1_testWalkStepWorldSim.obj
 0001:00010030       _initialize_params_c1_testWalkStepWorldSim 10011030 f   c1_testWalkStepWorldSim.obj
 0001:00010040       _mdlSetWorkWidths_c1_testWalkStepWorldSim 10011040 f   c1_testWalkStepWorldSim.obj
 0001:00010590       _sf_get_instance_specialization 10011590 f   c1_testWalkStepWorldSim.obj
 0001:000105a0       _mdlStart_c1_testWalkStepWorldSim 100115a0 f   c1_testWalkStepWorldSim.obj
 0001:00010740       _init_dsm_address_info     10011740 f   c1_testWalkStepWorldSim.obj
 0001:00011fd0       _chart_debug_initialization 10012fd0 f   c1_testWalkStepWorldSim.obj
 0001:00017730       _init_script_number_translation 10018730 f   c1_testWalkStepWorldSim.obj
 0001:00017770       _c1_sf_marshallOut         10018770 f   c1_testWalkStepWorldSim.obj
 0001:000177f0       _c1_sf_marshallIn          100187f0 f   c1_testWalkStepWorldSim.obj
 0001:00017870       _c1_d_sf_marshallOut       10018870 f   c1_testWalkStepWorldSim.obj
 0001:00017a20       _c1_c_sf_marshallIn        10018a20 f   c1_testWalkStepWorldSim.obj
 0001:00017b20       _c1_e_sf_marshallOut       10018b20 f   c1_testWalkStepWorldSim.obj
 0001:00017ba0       _c1_i_sf_marshallOut       10018ba0 f   c1_testWalkStepWorldSim.obj
 0001:00017ca0       _c1_j_sf_marshallOut       10018ca0 f   c1_testWalkStepWorldSim.obj
 0001:00017dd0       _c1_h_sf_marshallIn        10018dd0 f   c1_testWalkStepWorldSim.obj
 0001:00017ea0       _sf_opaque_initialize_c1_testWalkStepWorldSim 10018ea0 f   c1_testWalkStepWorldSim.obj
 0001:00017ed0       _initialize_c1_testWalkStepWorldSim 10018ed0 f   c1_testWalkStepWorldSim.obj
 0001:000186d0       _sf_opaque_enable_c1_testWalkStepWorldSim 100196d0 f   c1_testWalkStepWorldSim.obj
 0001:000186f0       _enable_c1_testWalkStepWorldSim 100196f0 f   c1_testWalkStepWorldSim.obj
 0001:00018820       _sf_opaque_disable_c1_testWalkStepWorldSim 10019820 f   c1_testWalkStepWorldSim.obj
 0001:00018840       _disable_c1_testWalkStepWorldSim 10019840 f   c1_testWalkStepWorldSim.obj
 0001:00018970       _sf_opaque_gateway_c1_testWalkStepWorldSim 10019970 f   c1_testWalkStepWorldSim.obj
 0001:00018990       _sf_gateway_c1_testWalkStepWorldSim 10019990 f   c1_testWalkStepWorldSim.obj
 0001:0001a250       _c1_set_sim_state_side_effects_c1_testWalkStepWorldSim 1001b250 f   c1_testWalkStepWorldSim.obj
 0001:0001a520       _c1_broadcast_secs         1001b520 f   c1_testWalkStepWorldSim.obj
 0001:0001b770       _c1_sendBMLbyPriority      1001c770 f   c1_testWalkStepWorldSim.obj
 0001:0001e160       _c1_enter_atomic_sendH     1001f160 f   c1_testWalkStepWorldSim.obj
 0001:0001e7b0       _c1_enter_atomic_sendM     1001f7b0 f   c1_testWalkStepWorldSim.obj
 0001:0001ee50       _c1_low                    1001fe50 f   c1_testWalkStepWorldSim.obj
 0001:000201a0       _c1_encStr2Arr             100211a0 f   c1_testWalkStepWorldSim.obj
 0001:00020660       _c1_b_sf_marshallOut       10021660 f   c1_testWalkStepWorldSim.obj
 0001:00020790       _c1_b_sf_marshallIn        10021790 f   c1_testWalkStepWorldSim.obj
 0001:00020860       _c1_c_emlrt_marshallIn     10021860 f   c1_testWalkStepWorldSim.obj
 0001:00020900       _c1_c_sf_marshallOut       10021900 f   c1_testWalkStepWorldSim.obj
 0001:00020980       _c1_d_sf_marshallIn        10021980 f   c1_testWalkStepWorldSim.obj
 0001:00020a00       _c1_f_emlrt_marshallIn     10021a00 f   c1_testWalkStepWorldSim.obj
 0001:00020a50       _c1_removeQueue            10021a50 f   c1_testWalkStepWorldSim.obj
 0001:000210f0       _c1_isEmptyQueue           100220f0 f   c1_testWalkStepWorldSim.obj
 0001:00021860       _c1_updateDataWrittenToVector 10022860 f   c1_testWalkStepWorldSim.obj
 0001:000218b0       _c1_errorIfDataNotWrittenToFcn 100228b0 f   c1_testWalkStepWorldSim.obj
 0001:00021930       _sf_opaque_get_sim_state_c1_testWalkStepWorldSim 10022930 f   c1_testWalkStepWorldSim.obj
 0001:00021950       _sf_opaque_set_sim_state_c1_testWalkStepWorldSim 10022950 f   c1_testWalkStepWorldSim.obj
 0001:00021970       _sf_opaque_terminate_c1_testWalkStepWorldSim 10022970 f   c1_testWalkStepWorldSim.obj
 0001:00021a00       _finalize_c1_testWalkStepWorldSim 10022a00 f   c1_testWalkStepWorldSim.obj
 0001:00021a80       _sf_opaque_init_subchart_simstructs 10022a80 f   c1_testWalkStepWorldSim.obj
 0001:00021aa0       _initSimStructsc1_testWalkStepWorldSim 10022aa0 f   c1_testWalkStepWorldSim.obj
 0001:00021b70       _mdlRTW_c1_testWalkStepWorldSim 10022b70 f   c1_testWalkStepWorldSim.obj
 0001:00021c00       _c2_info_helper            10022c00 f   c2_testWalkStepWorldSim.obj
 0001:00021df0       _c2_emlrt_marshallOut      10022df0 f   c2_testWalkStepWorldSim.obj
 0001:00021e50       _c2_b_emlrt_marshallOut    10022e50 f   c2_testWalkStepWorldSim.obj
 0001:00022830       _get_sim_state_c2_testWalkStepWorldSim 10023830 f   c2_testWalkStepWorldSim.obj
 0001:000228f0       _sf_get_sim_state_info_c2_testWalkStepWorldSim 100238f0 f   c2_testWalkStepWorldSim.obj
 0001:00022a70       _set_sim_state_c2_testWalkStepWorldSim 10023a70 f   c2_testWalkStepWorldSim.obj
 0001:00022af0       _c2_update_debugger_state_c2_testWalkStepWorldSim 10023af0 f   c2_testWalkStepWorldSim.obj
 0001:00022b00       _c2_c_emlrt_marshallIn     10023b00 f   c2_testWalkStepWorldSim.obj
 0001:00022b50       _c2_d_emlrt_marshallIn     10023b50 f   c2_testWalkStepWorldSim.obj
 0001:00022c00       _mdlProcessParameters_c2_testWalkStepWorldSim 10023c00 f   c2_testWalkStepWorldSim.obj
 0001:00022cb0       _initialize_params_c2_testWalkStepWorldSim 10023cb0 f   c2_testWalkStepWorldSim.obj
 0001:00022cc0       _mdlSetWorkWidths_c2_testWalkStepWorldSim 10023cc0 f   c2_testWalkStepWorldSim.obj
 0001:00023100       _sf_get_instance_specialization 10024100 f   c2_testWalkStepWorldSim.obj
 0001:00023110       _mdlStart_c2_testWalkStepWorldSim 10024110 f   c2_testWalkStepWorldSim.obj
 0001:000232b0       _init_dsm_address_info     100242b0 f   c2_testWalkStepWorldSim.obj
 0001:000232c0       _chart_debug_initialization 100242c0 f   c2_testWalkStepWorldSim.obj
 0001:00023af0       _init_script_number_translation 10024af0 f   c2_testWalkStepWorldSim.obj
 0001:00023b00       _c2_sf_marshallOut         10024b00 f   c2_testWalkStepWorldSim.obj
 0001:00023b80       _sf_opaque_initialize_c2_testWalkStepWorldSim 10024b80 f   c2_testWalkStepWorldSim.obj
 0001:00023bb0       _initialize_c2_testWalkStepWorldSim 10024bb0 f   c2_testWalkStepWorldSim.obj
 0001:00023be0       _sf_opaque_enable_c2_testWalkStepWorldSim 10024be0 f   c2_testWalkStepWorldSim.obj
 0001:00023c00       _enable_c2_testWalkStepWorldSim 10024c00 f   c2_testWalkStepWorldSim.obj
 0001:00023c20       _sf_opaque_disable_c2_testWalkStepWorldSim 10024c20 f   c2_testWalkStepWorldSim.obj
 0001:00023c40       _disable_c2_testWalkStepWorldSim 10024c40 f   c2_testWalkStepWorldSim.obj
 0001:00023c60       _sf_opaque_gateway_c2_testWalkStepWorldSim 10024c60 f   c2_testWalkStepWorldSim.obj
 0001:00023c80       _sf_gateway_c2_testWalkStepWorldSim 10024c80 f   c2_testWalkStepWorldSim.obj
 0001:00024d30       _c2_sf_marshallIn          10025d30 f   c2_testWalkStepWorldSim.obj
 0001:00024db0       _c2_emlrt_marshallIn       10025db0 f   c2_testWalkStepWorldSim.obj
 0001:00024e00       _sf_opaque_get_sim_state_c2_testWalkStepWorldSim 10025e00 f   c2_testWalkStepWorldSim.obj
 0001:00024e20       _sf_opaque_set_sim_state_c2_testWalkStepWorldSim 10025e20 f   c2_testWalkStepWorldSim.obj
 0001:00024e40       _sf_opaque_terminate_c2_testWalkStepWorldSim 10025e40 f   c2_testWalkStepWorldSim.obj
 0001:00024ed0       _finalize_c2_testWalkStepWorldSim 10025ed0 f   c2_testWalkStepWorldSim.obj
 0001:00024ee0       _sf_opaque_init_subchart_simstructs 10025ee0 f   c2_testWalkStepWorldSim.obj
 0001:00024f00       _initSimStructsc2_testWalkStepWorldSim 10025f00 f   c2_testWalkStepWorldSim.obj
 0001:00024f10       _mdlRTW_c2_testWalkStepWorldSim 10025f10 f   c2_testWalkStepWorldSim.obj
 0001:00024fc0       _c4_info_helper            10025fc0 f   c4_testWalkStepWorldSim.obj
 0001:00029b40       _c4_emlrt_marshallOut      1002ab40 f   c4_testWalkStepWorldSim.obj
 0001:00029ba0       _c4_b_emlrt_marshallOut    1002aba0 f   c4_testWalkStepWorldSim.obj
 0001:00029c20       _c4_activate_secsc4_testWalkStepWorldSim 1002ac20 f   c4_testWalkStepWorldSim.obj
 0001:00029cb0       _c4_increment_counters_secsc4_testWalkStepWorldSim 1002acb0 f   c4_testWalkStepWorldSim.obj
 0001:00029d10       _c4_reset_counters_secsc4_testWalkStepWorldSim 1002ad10 f   c4_testWalkStepWorldSim.obj
 0001:00029d50       _c4_deactivate_secsc4_testWalkStepWorldSim 1002ad50 f   c4_testWalkStepWorldSim.obj
 0001:00029e10       _c4_c4_testWalkStepWorldSim 1002ae10 f   c4_testWalkStepWorldSim.obj
 0001:0002b570       _c4_enter_atomic_statePoseChance 1002c570 f   c4_testWalkStepWorldSim.obj
 0001:0002b7a0       _c4_statePoseChance        1002c7a0 f   c4_testWalkStepWorldSim.obj
 0001:0002d2b0       _c4_enter_atomic_stateBoredPose 1002e2b0 f   c4_testWalkStepWorldSim.obj
 0001:0002d6d0       _c4_enter_atomic_stateBoredPoseGameOver 1002e6d0 f   c4_testWalkStepWorldSim.obj
 0001:0002db00       _c4_rand                   1002eb00 f   c4_testWalkStepWorldSim.obj
 0001:0002db20       _c4_eml_rand               1002eb20 f   c4_testWalkStepWorldSim.obj
 0001:0002ded0       _c4_eml_rand_mt19937ar     1002eed0 f   c4_testWalkStepWorldSim.obj
 0001:0002df30       _c4_b_sf_marshallOut       1002ef30 f   c4_testWalkStepWorldSim.obj
 0001:0002dfb0       _c4_b_sf_marshallIn        1002efb0 f   c4_testWalkStepWorldSim.obj
 0001:0002e030       _c4_d_emlrt_marshallIn     1002f030 f   c4_testWalkStepWorldSim.obj
 0001:0002e080       _c4_c_sf_marshallOut       1002f080 f   c4_testWalkStepWorldSim.obj
 0001:0002e100       _c4_c_sf_marshallIn        1002f100 f   c4_testWalkStepWorldSim.obj
 0001:0002e180       _c4_e_emlrt_marshallIn     1002f180 f   c4_testWalkStepWorldSim.obj
 0001:0002e220       _c4_enter_atomic_c4_testWalkStepWorldSim 1002f220 f   c4_testWalkStepWorldSim.obj
 0001:0002e2d0       _c4_enter_internal_c4_testWalkStepWorldSim 1002f2d0 f   c4_testWalkStepWorldSim.obj
 0001:0002f030       _c4_d_sf_marshallOut       10030030 f   c4_testWalkStepWorldSim.obj
 0001:0002f160       _c4_d_sf_marshallIn        10030160 f   c4_testWalkStepWorldSim.obj
 0001:0002f250       _c4_g_emlrt_marshallIn     10030250 f   c4_testWalkStepWorldSim.obj
 0001:0002f2e0       _c4_lb_sf_marshallOut      100302e0 f   c4_testWalkStepWorldSim.obj
 0001:0002f3a0       _c4_exit_internal_c4_testWalkStepWorldSim 100303a0 f   c4_testWalkStepWorldSim.obj
 0001:0002f900       _c4_initc4_testWalkStepWorldSim 10030900 f   c4_testWalkStepWorldSim.obj
 0001:0002faa0       _c4_idlePoseBradTablec4_testWalkStepWorldSim 10030aa0 f   c4_testWalkStepWorldSim.obj
 0001:000344b0       _c4_encStr2Arr             100354b0 f   c4_testWalkStepWorldSim.obj
 0001:00034a30       _c4_b_encStr2Arr           10035a30 f   c4_testWalkStepWorldSim.obj
 0001:00034fc0       _c4_c_encStr2Arr           10035fc0 f   c4_testWalkStepWorldSim.obj
 0001:00035550       _c4_d_encStr2Arr           10036550 f   c4_testWalkStepWorldSim.obj
 0001:00035ae0       _c4_e_encStr2Arr           10036ae0 f   c4_testWalkStepWorldSim.obj
 0001:00036070       _c4_f_encStr2Arr           10037070 f   c4_testWalkStepWorldSim.obj
 0001:00036600       _c4_g_encStr2Arr           10037600 f   c4_testWalkStepWorldSim.obj
 0001:00036b90       _c4_h_encStr2Arr           10037b90 f   c4_testWalkStepWorldSim.obj
 0001:00037110       _c4_i_encStr2Arr           10038110 f   c4_testWalkStepWorldSim.obj
 0001:00037690       _c4_j_encStr2Arr           10038690 f   c4_testWalkStepWorldSim.obj
 0001:00037c10       _c4_k_encStr2Arr           10038c10 f   c4_testWalkStepWorldSim.obj
 0001:000381a0       _c4_l_encStr2Arr           100391a0 f   c4_testWalkStepWorldSim.obj
 0001:00038720       _c4_m_encStr2Arr           10039720 f   c4_testWalkStepWorldSim.obj
 0001:00038cb0       _c4_n_encStr2Arr           10039cb0 f   c4_testWalkStepWorldSim.obj
 0001:00039240       _c4_o_encStr2Arr           1003a240 f   c4_testWalkStepWorldSim.obj
 0001:000397d0       _c4_p_encStr2Arr           1003a7d0 f   c4_testWalkStepWorldSim.obj
 0001:00039d60       _c4_q_encStr2Arr           1003ad60 f   c4_testWalkStepWorldSim.obj
 0001:0003a2c0       _c4_r_encStr2Arr           1003b2c0 f   c4_testWalkStepWorldSim.obj
 0001:0003a850       _c4_sf_marshallOut         1003b850 f   c4_testWalkStepWorldSim.obj
 0001:0003a980       _c4_sf_marshallIn          1003b980 f   c4_testWalkStepWorldSim.obj
 0001:0003aa70       _c4_b_emlrt_marshallIn     1003ba70 f   c4_testWalkStepWorldSim.obj
 0001:0003ab00       _c4_e_sf_marshallOut       1003bb00 f   c4_testWalkStepWorldSim.obj
 0001:0003ac10       _c4_f_sf_marshallOut       1003bc10 f   c4_testWalkStepWorldSim.obj
 0001:0003ad40       _c4_g_sf_marshallOut       1003bd40 f   c4_testWalkStepWorldSim.obj
 0001:0003ae50       _c4_h_sf_marshallOut       1003be50 f   c4_testWalkStepWorldSim.obj
 0001:0003af80       _c4_i_sf_marshallOut       1003bf80 f   c4_testWalkStepWorldSim.obj
 0001:0003b090       _c4_j_sf_marshallOut       1003c090 f   c4_testWalkStepWorldSim.obj
 0001:0003b1c0       _c4_k_sf_marshallOut       1003c1c0 f   c4_testWalkStepWorldSim.obj
 0001:0003b2f0       _c4_l_sf_marshallOut       1003c2f0 f   c4_testWalkStepWorldSim.obj
 0001:0003b420       _c4_m_sf_marshallOut       1003c420 f   c4_testWalkStepWorldSim.obj
 0001:0003b530       _c4_n_sf_marshallOut       1003c530 f   c4_testWalkStepWorldSim.obj
 0001:0003b660       _c4_o_sf_marshallOut       1003c660 f   c4_testWalkStepWorldSim.obj
 0001:0003b770       _c4_p_sf_marshallOut       1003c770 f   c4_testWalkStepWorldSim.obj
 0001:0003b8a0       _c4_q_sf_marshallOut       1003c8a0 f   c4_testWalkStepWorldSim.obj
 0001:0003b9d0       _c4_r_sf_marshallOut       1003c9d0 f   c4_testWalkStepWorldSim.obj
 0001:0003bb00       _c4_s_sf_marshallOut       1003cb00 f   c4_testWalkStepWorldSim.obj
 0001:0003bc10       _c4_t_sf_marshallOut       1003cc10 f   c4_testWalkStepWorldSim.obj
 0001:0003bd40       _c4_u_sf_marshallOut       1003cd40 f   c4_testWalkStepWorldSim.obj
 0001:0003be40       _c4_v_sf_marshallOut       1003ce40 f   c4_testWalkStepWorldSim.obj
 0001:0003bf70       _c4_w_sf_marshallOut       1003cf70 f   c4_testWalkStepWorldSim.obj
 0001:0003c070       _c4_x_sf_marshallOut       1003d070 f   c4_testWalkStepWorldSim.obj
 0001:0003c1a0       _c4_y_sf_marshallOut       1003d1a0 f   c4_testWalkStepWorldSim.obj
 0001:0003c2b0       _c4_ab_sf_marshallOut      1003d2b0 f   c4_testWalkStepWorldSim.obj
 0001:0003c3e0       _c4_insertQueueLowc4_testWalkStepWorldSim 1003d3e0 f   c4_testWalkStepWorldSim.obj
 0001:0003d290       _c4_kb_sf_marshallOut      1003e290 f   c4_testWalkStepWorldSim.obj
 0001:0003d460       _c4_f_sf_marshallIn        1003e460 f   c4_testWalkStepWorldSim.obj
 0001:0003d5a0       _c4_j_emlrt_marshallIn     1003e5a0 f   c4_testWalkStepWorldSim.obj
 0001:0003d790       _c4_walkInvadingTablec4_testWalkStepWorldSim 1003e790 f   c4_testWalkStepWorldSim.obj
 0001:0003eda0       _c4_s_encStr2Arr           1003fda0 f   c4_testWalkStepWorldSim.obj
 0001:0003f330       _c4_t_encStr2Arr           10040330 f   c4_testWalkStepWorldSim.obj
 0001:0003f8c0       _c4_u_encStr2Arr           100408c0 f   c4_testWalkStepWorldSim.obj
 0001:0003fe40       _c4_bb_sf_marshallOut      10040e40 f   c4_testWalkStepWorldSim.obj
 0001:0003fee0       _c4_e_sf_marshallIn        10040ee0 f   c4_testWalkStepWorldSim.obj
 0001:0003ff90       _c4_h_emlrt_marshallIn     10040f90 f   c4_testWalkStepWorldSim.obj
 0001:00040020       _c4_cb_sf_marshallOut      10041020 f   c4_testWalkStepWorldSim.obj
 0001:00040150       _c4_db_sf_marshallOut      10041150 f   c4_testWalkStepWorldSim.obj
 0001:00040280       _c4_eb_sf_marshallOut      10041280 f   c4_testWalkStepWorldSim.obj
 0001:000403b0       _c4_fb_sf_marshallOut      100413b0 f   c4_testWalkStepWorldSim.obj
 0001:000404e0       _c4_gb_sf_marshallOut      100414e0 f   c4_testWalkStepWorldSim.obj
 0001:00040610       _c4_hb_sf_marshallOut      10041610 f   c4_testWalkStepWorldSim.obj
 0001:00040740       _c4_ib_sf_marshallOut      10041740 f   c4_testWalkStepWorldSim.obj
 0001:00040860       _c4_jb_sf_marshallOut      10041860 f   c4_testWalkStepWorldSim.obj
 0001:00040990       _c4_updateDataWrittenToVector 10041990 f   c4_testWalkStepWorldSim.obj
 0001:000409e0       _c4_errorIfDataNotWrittenToFcn 100419e0 f   c4_testWalkStepWorldSim.obj
 0001:00040a60       _c4_b_twister_state_vector 10041a60 f   c4_testWalkStepWorldSim.obj
 0001:00040c40       _c4_c_eml_rand_mt19937ar   10041c40 f   c4_testWalkStepWorldSim.obj
 0001:00041640       _c4_eml_error              10042640 f   c4_testWalkStepWorldSim.obj
 0001:00041700       _c4_get_BOREDOM_THRESHOLD  10042700 f   c4_testWalkStepWorldSim.obj
 0001:00041790       _c4_get_FEAR               10042790 f   c4_testWalkStepWorldSim.obj
 0001:00041820       _c4_get_FRUST              10042820 f   c4_testWalkStepWorldSim.obj
 0001:000418b0       _c4_set_P                  100428b0 f   c4_testWalkStepWorldSim.obj
 0001:00041940       _c4_set_STATE_BEFORE       10042940 f   c4_testWalkStepWorldSim.obj
 0001:000419d0       _c4_get_STATE_GO           100429d0 f   c4_testWalkStepWorldSim.obj
 0001:00041a60       _c4_set_STATE_GO           10042a60 f   c4_testWalkStepWorldSim.obj
 0001:00041af0       _c4_get_STATE_OVER         10042af0 f   c4_testWalkStepWorldSim.obj
 0001:00041b80       _c4_set_STATE_OVER         10042b80 f   c4_testWalkStepWorldSim.obj
 0001:00041c10       _c4_get_STATE_READY        10042c10 f   c4_testWalkStepWorldSim.obj
 0001:00041ca0       _c4_set_STATE_READY        10042ca0 f   c4_testWalkStepWorldSim.obj
 0001:00041d30       _c4_get_bmlsL              10042d30 f   c4_testWalkStepWorldSim.obj
 0001:00041dc0       _c4_set_bmlsL              10042dc0 f   c4_testWalkStepWorldSim.obj
 0001:00041e50       _c4_get_boredom            10042e50 f   c4_testWalkStepWorldSim.obj
 0001:00041ee0       _c4_get_changeFlag         10042ee0 f   c4_testWalkStepWorldSim.obj
 0001:00041f70       _c4_get_interest           10042f70 f   c4_testWalkStepWorldSim.obj
 0001:00042000       _c4_set_interest           10043000 f   c4_testWalkStepWorldSim.obj
 0001:00042090       _c4_get_randPoseChance     10043090 f   c4_testWalkStepWorldSim.obj
 0001:00042120       _c4_set_randPoseChance     10043120 f   c4_testWalkStepWorldSim.obj
 0001:000421b0       _c4_get_randSlowPose       100431b0 f   c4_testWalkStepWorldSim.obj
 0001:00042240       _c4_set_randSlowPose       10043240 f   c4_testWalkStepWorldSim.obj
 0001:00042d00       _get_sim_state_c4_testWalkStepWorldSim 10043d00 f   c4_testWalkStepWorldSim.obj
 0001:000434a0       _sf_get_sim_state_info_c4_testWalkStepWorldSim 100444a0 f   c4_testWalkStepWorldSim.obj
 0001:00043620       _set_sim_state_c4_testWalkStepWorldSim 10044620 f   c4_testWalkStepWorldSim.obj
 0001:00043a80       _c4_update_debugger_state_c4_testWalkStepWorldSim 10044a80 f   c4_testWalkStepWorldSim.obj
 0001:00043ec0       _c4_emlrt_marshallIn       10044ec0 f   c4_testWalkStepWorldSim.obj
 0001:00043f10       _c4_c_emlrt_marshallIn     10044f10 f   c4_testWalkStepWorldSim.obj
 0001:00043f60       _c4_f_emlrt_marshallIn     10044f60 f   c4_testWalkStepWorldSim.obj
 0001:00043fb0       _c4_i_emlrt_marshallIn     10044fb0 f   c4_testWalkStepWorldSim.obj
 0001:00044000       _c4_m_emlrt_marshallIn     10045000 f   c4_testWalkStepWorldSim.obj
 0001:00044050       _c4_n_emlrt_marshallIn     10045050 f   c4_testWalkStepWorldSim.obj
 0001:000440a0       _c4_o_emlrt_marshallIn     100450a0 f   c4_testWalkStepWorldSim.obj
 0001:000440f0       _c4_p_emlrt_marshallIn     100450f0 f   c4_testWalkStepWorldSim.obj
 0001:00044170       _c4_q_emlrt_marshallIn     10045170 f   c4_testWalkStepWorldSim.obj
 0001:000441c0       _c4_r_emlrt_marshallIn     100451c0 f   c4_testWalkStepWorldSim.obj
 0001:00044240       _c4_s_emlrt_marshallIn     10045240 f   c4_testWalkStepWorldSim.obj
 0001:00044290       _c4_t_emlrt_marshallIn     10045290 f   c4_testWalkStepWorldSim.obj
 0001:00044360       _c4_u_emlrt_marshallIn     10045360 f   c4_testWalkStepWorldSim.obj
 0001:000443b0       _c4_v_emlrt_marshallIn     100453b0 f   c4_testWalkStepWorldSim.obj
 0001:00044450       _c4_w_emlrt_marshallIn     10045450 f   c4_testWalkStepWorldSim.obj
 0001:000444b0       _c4_x_emlrt_marshallIn     100454b0 f   c4_testWalkStepWorldSim.obj
 0001:00044550       _mdlProcessParameters_c4_testWalkStepWorldSim 10045550 f   c4_testWalkStepWorldSim.obj
 0001:00044600       _initialize_params_c4_testWalkStepWorldSim 10045600 f   c4_testWalkStepWorldSim.obj
 0001:00044610       _mdlSetWorkWidths_c4_testWalkStepWorldSim 10045610 f   c4_testWalkStepWorldSim.obj
 0001:00044a00       _sf_get_instance_specialization 10045a00 f   c4_testWalkStepWorldSim.obj
 0001:00044a10       _mdlStart_c4_testWalkStepWorldSim 10045a10 f   c4_testWalkStepWorldSim.obj
 0001:00044bb0       _init_dsm_address_info     10045bb0 f   c4_testWalkStepWorldSim.obj
 0001:000456c0       _chart_debug_initialization 100466c0 f   c4_testWalkStepWorldSim.obj
 0001:00049060       _init_script_number_translation 1004a060 f   c4_testWalkStepWorldSim.obj
 0001:000490a0       _c4_pb_sf_marshallOut      1004a0a0 f   c4_testWalkStepWorldSim.obj
 0001:000491d0       _sf_opaque_initialize_c4_testWalkStepWorldSim 1004a1d0 f   c4_testWalkStepWorldSim.obj
 0001:00049200       _initialize_c4_testWalkStepWorldSim 1004a200 f   c4_testWalkStepWorldSim.obj
 0001:00049210       _sf_opaque_enable_c4_testWalkStepWorldSim 1004a210 f   c4_testWalkStepWorldSim.obj
 0001:00049230       _enable_c4_testWalkStepWorldSim 1004a230 f   c4_testWalkStepWorldSim.obj
 0001:00049240       _sf_opaque_disable_c4_testWalkStepWorldSim 1004a240 f   c4_testWalkStepWorldSim.obj
 0001:00049260       _disable_c4_testWalkStepWorldSim 1004a260 f   c4_testWalkStepWorldSim.obj
 0001:00049270       _sf_opaque_gateway_c4_testWalkStepWorldSim 1004a270 f   c4_testWalkStepWorldSim.obj
 0001:00049290       _sf_gateway_c4_testWalkStepWorldSim 1004a290 f   c4_testWalkStepWorldSim.obj
 0001:000492b0       _c4_set_sim_state_side_effects_c4_testWalkStepWorldSim 1004a2b0 f   c4_testWalkStepWorldSim.obj
 0001:000493f0       _sf_opaque_get_sim_state_c4_testWalkStepWorldSim 1004a3f0 f   c4_testWalkStepWorldSim.obj
 0001:00049400       _sf_opaque_set_sim_state_c4_testWalkStepWorldSim 1004a400 f   c4_testWalkStepWorldSim.obj
 0001:00049410       _sf_opaque_terminate_c4_testWalkStepWorldSim 1004a410 f   c4_testWalkStepWorldSim.obj
 0001:000494a0       _finalize_c4_testWalkStepWorldSim 1004a4a0 f   c4_testWalkStepWorldSim.obj
 0001:000494c0       _sf_opaque_init_subchart_simstructs 1004a4c0 f   c4_testWalkStepWorldSim.obj
 0001:000494e0       _initSimStructsc4_testWalkStepWorldSim 1004a4e0 f   c4_testWalkStepWorldSim.obj
 0001:000494f0       _mdlRTW_c4_testWalkStepWorldSim 1004a4f0 f   c4_testWalkStepWorldSim.obj
 0001:000495a0       _c5_info_helper            1004a5a0 f   c5_testWalkStepWorldSim.obj
 0001:0004b1e0       _c5_emlrt_marshallOut      1004c1e0 f   c5_testWalkStepWorldSim.obj
 0001:0004b240       _c5_b_emlrt_marshallOut    1004c240 f   c5_testWalkStepWorldSim.obj
 0001:0004b2c0       _c5_activate_secsc5_testWalkStepWorldSim 1004c2c0 f   c5_testWalkStepWorldSim.obj
 0001:0004b350       _c5_increment_counters_secsc5_testWalkStepWorldSim 1004c350 f   c5_testWalkStepWorldSim.obj
 0001:0004b3f0       _c5_reset_counters_secsc5_testWalkStepWorldSim 1004c3f0 f   c5_testWalkStepWorldSim.obj
 0001:0004b430       _c5_deactivate_secsc5_testWalkStepWorldSim 1004c430 f   c5_testWalkStepWorldSim.obj
 0001:0004b4f0       _c5_c5_testWalkStepWorldSim 1004c4f0 f   c5_testWalkStepWorldSim.obj
 0001:0004cdc0       _c5_stateGame              1004ddc0 f   c5_testWalkStepWorldSim.obj
 0001:0004f430       _c5_stateSt1               10050430 f   c5_testWalkStepWorldSim.obj
 0001:0004ff30       _c5_stateStart             10050f30 f   c5_testWalkStepWorldSim.obj
 0001:00050610       _c5_stateInit              10051610 f   c5_testWalkStepWorldSim.obj
 0001:00050d80       _c5_enter_atomic_stateReady 10051d80 f   c5_testWalkStepWorldSim.obj
 0001:00051000       _c5_stateReady             10052000 f   c5_testWalkStepWorldSim.obj
 0001:00051770       _c5_statePoseReady         10052770 f   c5_testWalkStepWorldSim.obj
 0001:00051cc0       _c5_stateGo                10052cc0 f   c5_testWalkStepWorldSim.obj
 0001:00052190       _c5_stateReadUserHand      10053190 f   c5_testWalkStepWorldSim.obj
 0001:00052880       _c5_stateShowHands         10053880 f   c5_testWalkStepWorldSim.obj
 0001:00052c70       _c5_stateUserWin           10053c70 f   c5_testWalkStepWorldSim.obj
 0001:00052f80       _c5_stateShowResult        10053f80 f   c5_testWalkStepWorldSim.obj
 0001:00053300       _c5_statePlayHand          10054300 f   c5_testWalkStepWorldSim.obj
 0001:000550d0       _c5_enter_atomic_statePoseRock 100560d0 f   c5_testWalkStepWorldSim.obj
 0001:00055520       _c5_enter_atomic_statePosePaper 10056520 f   c5_testWalkStepWorldSim.obj
 0001:00055920       _c5_encStr2Arr             10056920 f   c5_testWalkStepWorldSim.obj
 0001:00055e00       _c5_c_sf_marshallOut       10056e00 f   c5_testWalkStepWorldSim.obj
 0001:00055e80       _c5_c_sf_marshallIn        10056e80 f   c5_testWalkStepWorldSim.obj
 0001:00055f00       _c5_e_emlrt_marshallIn     10056f00 f   c5_testWalkStepWorldSim.obj
 0001:00055f50       _c5_d_sf_marshallOut       10056f50 f   c5_testWalkStepWorldSim.obj
 0001:00056060       _c5_d_sf_marshallIn        10057060 f   c5_testWalkStepWorldSim.obj
 0001:00056150       _c5_f_emlrt_marshallIn     10057150 f   c5_testWalkStepWorldSim.obj
 0001:000561e0       _c5_e_sf_marshallOut       100571e0 f   c5_testWalkStepWorldSim.obj
 0001:00056260       _c5_f_sf_marshallOut       10057260 f   c5_testWalkStepWorldSim.obj
 0001:000562e0       _c5_e_sf_marshallIn        100572e0 f   c5_testWalkStepWorldSim.obj
 0001:00056360       _c5_g_emlrt_marshallIn     10057360 f   c5_testWalkStepWorldSim.obj
 0001:00056410       _c5_enter_atomic_c5_testWalkStepWorldSim 10057410 f   c5_testWalkStepWorldSim.obj
 0001:000564c0       _c5_enter_internal_c5_testWalkStepWorldSim 100574c0 f   c5_testWalkStepWorldSim.obj
 0001:00057470       _c5_exit_internal_c5_testWalkStepWorldSim 10058470 f   c5_testWalkStepWorldSim.obj
 0001:00058940       _c5_initc5_testWalkStepWorldSim 10059940 f   c5_testWalkStepWorldSim.obj
 0001:00058c40       _c5_insertQueuec5_testWalkStepWorldSim 10059c40 f   c5_testWalkStepWorldSim.obj
 0001:00059920       _c5_sf_marshallOut         1005a920 f   c5_testWalkStepWorldSim.obj
 0001:00059ad0       _c5_sf_marshallIn          1005aad0 f   c5_testWalkStepWorldSim.obj
 0001:00059c10       _c5_b_emlrt_marshallIn     1005ac10 f   c5_testWalkStepWorldSim.obj
 0001:00059cc0       _c5_b_sf_marshallOut       1005acc0 f   c5_testWalkStepWorldSim.obj
 0001:00059df0       _c5_b_sf_marshallIn        1005adf0 f   c5_testWalkStepWorldSim.obj
 0001:00059ee0       _c5_c_emlrt_marshallIn     1005aee0 f   c5_testWalkStepWorldSim.obj
 0001:00059f70       _c5_insertQueueLowc5_testWalkStepWorldSim 1005af70 f   c5_testWalkStepWorldSim.obj
 0001:0005ac40       _c5_rockPoseTablec5_testWalkStepWorldSim 1005bc40 f   c5_testWalkStepWorldSim.obj
 0001:0005be90       _c5_b_encStr2Arr           1005ce90 f   c5_testWalkStepWorldSim.obj
 0001:0005c400       _c5_c_encStr2Arr           1005d400 f   c5_testWalkStepWorldSim.obj
 0001:0005c980       _c5_g_sf_marshallOut       1005d980 f   c5_testWalkStepWorldSim.obj
 0001:0005ca90       _c5_h_sf_marshallOut       1005da90 f   c5_testWalkStepWorldSim.obj
 0001:0005cbb0       _c5_i_sf_marshallOut       1005dbb0 f   c5_testWalkStepWorldSim.obj
 0001:0005ccb0       _c5_j_sf_marshallOut       1005dcb0 f   c5_testWalkStepWorldSim.obj
 0001:0005cdd0       _c5_paperPoseBradTablec5_testWalkStepWorldSim 1005ddd0 f   c5_testWalkStepWorldSim.obj
 0001:0005e010       _c5_d_encStr2Arr           1005f010 f   c5_testWalkStepWorldSim.obj
 0001:0005e5a0       _c5_e_encStr2Arr           1005f5a0 f   c5_testWalkStepWorldSim.obj
 0001:0005eb20       _c5_k_sf_marshallOut       1005fb20 f   c5_testWalkStepWorldSim.obj
 0001:0005ec30       _c5_l_sf_marshallOut       1005fc30 f   c5_testWalkStepWorldSim.obj
 0001:0005ed50       _c5_m_sf_marshallOut       1005fd50 f   c5_testWalkStepWorldSim.obj
 0001:0005ee70       _c5_n_sf_marshallOut       1005fe70 f   c5_testWalkStepWorldSim.obj
 0001:0005ef90       _c5_scissorsPoseBradTablec5_testWalkStepWorldSim 1005ff90 f   c5_testWalkStepWorldSim.obj
 0001:0005fc20       _c5_f_encStr2Arr           10060c20 f   c5_testWalkStepWorldSim.obj
 0001:000601a0       _c5_g_encStr2Arr           100611a0 f   c5_testWalkStepWorldSim.obj
 0001:00060730       _c5_o_sf_marshallOut       10061730 f   c5_testWalkStepWorldSim.obj
 0001:00060830       _c5_p_sf_marshallOut       10061830 f   c5_testWalkStepWorldSim.obj
 0001:00060950       _c5_q_sf_marshallOut       10061950 f   c5_testWalkStepWorldSim.obj
 0001:00060a50       _c5_r_sf_marshallOut       10061a50 f   c5_testWalkStepWorldSim.obj
 0001:00060b70       _c5_idlePoseBradTablec5_testWalkStepWorldSim 10061b70 f   c5_testWalkStepWorldSim.obj
 0001:00064930       _c5_k_encStr2Arr           10065930 f   c5_testWalkStepWorldSim.obj
 0001:00064ec0       _c5_l_encStr2Arr           10065ec0 f   c5_testWalkStepWorldSim.obj
 0001:00065450       _c5_m_encStr2Arr           10066450 f   c5_testWalkStepWorldSim.obj
 0001:000659d0       _c5_n_encStr2Arr           100669d0 f   c5_testWalkStepWorldSim.obj
 0001:00065f60       _c5_o_encStr2Arr           10066f60 f   c5_testWalkStepWorldSim.obj
 0001:000664f0       _c5_p_encStr2Arr           100674f0 f   c5_testWalkStepWorldSim.obj
 0001:00066a70       _c5_q_encStr2Arr           10067a70 f   c5_testWalkStepWorldSim.obj
 0001:00066ff0       _c5_r_encStr2Arr           10067ff0 f   c5_testWalkStepWorldSim.obj
 0001:00067580       _c5_s_encStr2Arr           10068580 f   c5_testWalkStepWorldSim.obj
 0001:00067b00       _c5_t_encStr2Arr           10068b00 f   c5_testWalkStepWorldSim.obj
 0001:00068090       _c5_u_encStr2Arr           10069090 f   c5_testWalkStepWorldSim.obj
 0001:00068620       _c5_w_sf_marshallOut       10069620 f   c5_testWalkStepWorldSim.obj
 0001:00068700       _c5_x_sf_marshallOut       10069700 f   c5_testWalkStepWorldSim.obj
 0001:00068820       _c5_y_sf_marshallOut       10069820 f   c5_testWalkStepWorldSim.obj
 0001:00068930       _c5_ab_sf_marshallOut      10069930 f   c5_testWalkStepWorldSim.obj
 0001:00068a40       _c5_bb_sf_marshallOut      10069a40 f   c5_testWalkStepWorldSim.obj
 0001:00068b40       _c5_cb_sf_marshallOut      10069b40 f   c5_testWalkStepWorldSim.obj
 0001:00068c50       _c5_db_sf_marshallOut      10069c50 f   c5_testWalkStepWorldSim.obj
 0001:00068d50       _c5_eb_sf_marshallOut      10069d50 f   c5_testWalkStepWorldSim.obj
 0001:00068e70       _c5_fb_sf_marshallOut      10069e70 f   c5_testWalkStepWorldSim.obj
 0001:00068f70       _c5_gb_sf_marshallOut      10069f70 f   c5_testWalkStepWorldSim.obj
 0001:00069080       _c5_hb_sf_marshallOut      1006a080 f   c5_testWalkStepWorldSim.obj
 0001:00069180       _c5_ib_sf_marshallOut      1006a180 f   c5_testWalkStepWorldSim.obj
 0001:00069290       _c5_jb_sf_marshallOut      1006a290 f   c5_testWalkStepWorldSim.obj
 0001:00069370       _c5_kb_sf_marshallOut      1006a370 f   c5_testWalkStepWorldSim.obj
 0001:00069480       _c5_lb_sf_marshallOut      1006a480 f   c5_testWalkStepWorldSim.obj
 0001:00069580       _c5_mb_sf_marshallOut      1006a580 f   c5_testWalkStepWorldSim.obj
 0001:000696a0       _c5_initialPoseTablec5_testWalkStepWorldSim 1006a6a0 f   c5_testWalkStepWorldSim.obj
 0001:0006ac40       _c5_v_encStr2Arr           1006bc40 f   c5_testWalkStepWorldSim.obj
 0001:0006b1d0       _c5_w_encStr2Arr           1006c1d0 f   c5_testWalkStepWorldSim.obj
 0001:0006b760       _c5_x_encStr2Arr           1006c760 f   c5_testWalkStepWorldSim.obj
 0001:0006bcf0       _c5_nb_sf_marshallOut      1006ccf0 f   c5_testWalkStepWorldSim.obj
 0001:0006bdd0       _c5_ob_sf_marshallOut      1006cdd0 f   c5_testWalkStepWorldSim.obj
 0001:0006bef0       _c5_pb_sf_marshallOut      1006cef0 f   c5_testWalkStepWorldSim.obj
 0001:0006c010       _c5_qb_sf_marshallOut      1006d010 f   c5_testWalkStepWorldSim.obj
 0001:0006c120       _c5_sendSBM                1006d120 f   c5_testWalkStepWorldSim.obj
 0001:0006c140       _c5_b_sendSBM              1006d140 f   c5_testWalkStepWorldSim.obj
 0001:0006c160       _c5_isequal                1006d160 f   c5_testWalkStepWorldSim.obj
 0001:0006c340       _c5_handPoseSBTablec5_testWalkStepWorldSim 1006d340 f   c5_testWalkStepWorldSim.obj
 0001:0006d6c0       _c5_h_encStr2Arr           1006e6c0 f   c5_testWalkStepWorldSim.obj
 0001:0006dc50       _c5_i_encStr2Arr           1006ec50 f   c5_testWalkStepWorldSim.obj
 0001:0006e1d0       _c5_j_encStr2Arr           1006f1d0 f   c5_testWalkStepWorldSim.obj
 0001:0006e760       _c5_s_sf_marshallOut       1006f760 f   c5_testWalkStepWorldSim.obj
 0001:0006e880       _c5_t_sf_marshallOut       1006f880 f   c5_testWalkStepWorldSim.obj
 0001:0006e9a0       _c5_u_sf_marshallOut       1006f9a0 f   c5_testWalkStepWorldSim.obj
 0001:0006eac0       _c5_v_sf_marshallOut       1006fac0 f   c5_testWalkStepWorldSim.obj
 0001:0006ef80       _c5_sendSBMc5_testWalkStepWorldSim 1006ff80 f   c5_testWalkStepWorldSim.obj
 0001:0006f270       _c5_updateDataWrittenToVector 10070270 f   c5_testWalkStepWorldSim.obj
 0001:0006f2c0       _c5_errorIfDataNotWrittenToFcn 100702c0 f   c5_testWalkStepWorldSim.obj
 0001:0006f340       _c5_get_BML                10070340 f   c5_testWalkStepWorldSim.obj
 0001:0006f3d0       _c5_set_BML                100703d0 f   c5_testWalkStepWorldSim.obj
 0001:0006f460       _c5_get_BML2               10070460 f   c5_testWalkStepWorldSim.obj
 0001:0006f4f0       _c5_set_BML2               100704f0 f   c5_testWalkStepWorldSim.obj
 0001:0006f580       _c5_set_BORED              10070580 f   c5_testWalkStepWorldSim.obj
 0001:0006f610       _c5_get_BOREDOM_THRESHOLD  10070610 f   c5_testWalkStepWorldSim.obj
 0001:0006f6a0       _c5_set_BOREDOM_THRESHOLD  100706a0 f   c5_testWalkStepWorldSim.obj
 0001:0006f730       _c5_set_CONTEMPT           10070730 f   c5_testWalkStepWorldSim.obj
 0001:0006f7c0       _c5_set_EXCITE             100707c0 f   c5_testWalkStepWorldSim.obj
 0001:0006f850       _c5_set_FEAR               10070850 f   c5_testWalkStepWorldSim.obj
 0001:0006f8e0       _c5_set_FRUST              100708e0 f   c5_testWalkStepWorldSim.obj
 0001:0006f970       _c5_get_GAZE_GUI           10070970 f   c5_testWalkStepWorldSim.obj
 0001:0006fa00       _c5_set_GAZE_GUI           10070a00 f   c5_testWalkStepWorldSim.obj
 0001:0006fa90       _c5_set_GAZE_SOFTEYE       10070a90 f   c5_testWalkStepWorldSim.obj
 0001:0006fb20       _c5_get_GAZE_USER_HAND     10070b20 f   c5_testWalkStepWorldSim.obj
 0001:0006fbb0       _c5_set_GAZE_USER_HAND     10070bb0 f   c5_testWalkStepWorldSim.obj
 0001:0006fc40       _c5_get_GAZE_WIN           10070c40 f   c5_testWalkStepWorldSim.obj
 0001:0006fcd0       _c5_set_GAZE_WIN           10070cd0 f   c5_testWalkStepWorldSim.obj
 0001:0006fd60       _c5_set_HAPPY              10070d60 f   c5_testWalkStepWorldSim.obj
 0001:0006fdf0       _c5_set_IDLE               10070df0 f   c5_testWalkStepWorldSim.obj
 0001:0006fe80       _c5_set_P                  10070e80 f   c5_testWalkStepWorldSim.obj
 0001:0006ff10       _c5_set_SAD                10070f10 f   c5_testWalkStepWorldSim.obj
 0001:0006ffa0       _c5_set_STATE_BEFORE       10070fa0 f   c5_testWalkStepWorldSim.obj
 0001:00070030       _c5_get_STATE_GO           10071030 f   c5_testWalkStepWorldSim.obj
 0001:000700c0       _c5_set_STATE_GO           100710c0 f   c5_testWalkStepWorldSim.obj
 0001:00070150       _c5_get_STATE_HAND         10071150 f   c5_testWalkStepWorldSim.obj
 0001:000701e0       _c5_set_STATE_HAND         100711e0 f   c5_testWalkStepWorldSim.obj
 0001:00070270       _c5_get_STATE_OVER         10071270 f   c5_testWalkStepWorldSim.obj
 0001:00070300       _c5_set_STATE_OVER         10071300 f   c5_testWalkStepWorldSim.obj
 0001:00070390       _c5_get_STATE_READY        10071390 f   c5_testWalkStepWorldSim.obj
 0001:00070420       _c5_set_STATE_READY        10071420 f   c5_testWalkStepWorldSim.obj
 0001:000704b0       _c5_get_STATE_RESULT       100714b0 f   c5_testWalkStepWorldSim.obj
 0001:00070540       _c5_set_STATE_RESULT       10071540 f   c5_testWalkStepWorldSim.obj
 0001:000705d0       _c5_get_STATE_WAIT         100715d0 f   c5_testWalkStepWorldSim.obj
 0001:00070660       _c5_set_STATE_WAIT         10071660 f   c5_testWalkStepWorldSim.obj
 0001:000706f0       _c5_set_avert              100716f0 f   c5_testWalkStepWorldSim.obj
 0001:00070780       _c5_get_bHand              10071780 f   c5_testWalkStepWorldSim.obj
 0001:00070810       _c5_set_bHand              10071810 f   c5_testWalkStepWorldSim.obj
 0001:000708a0       _c5_get_bmlsH              100718a0 f   c5_testWalkStepWorldSim.obj
 0001:00070930       _c5_set_bmlsH              10071930 f   c5_testWalkStepWorldSim.obj
 0001:000709c0       _c5_get_bmlsL              100719c0 f   c5_testWalkStepWorldSim.obj
 0001:00070a50       _c5_set_bmlsL              10071a50 f   c5_testWalkStepWorldSim.obj
 0001:00070ae0       _c5_get_boredom            10071ae0 f   c5_testWalkStepWorldSim.obj
 0001:00070b70       _c5_set_boredom            10071b70 f   c5_testWalkStepWorldSim.obj
 0001:00070c00       _c5_get_diff               10071c00 f   c5_testWalkStepWorldSim.obj
 0001:00070c90       _c5_set_diff               10071c90 f   c5_testWalkStepWorldSim.obj
 0001:00070d20       _c5_set_gazing             10071d20 f   c5_testWalkStepWorldSim.obj
 0001:00070db0       _c5_get_n                  10071db0 f   c5_testWalkStepWorldSim.obj
 0001:00070e40       _c5_set_n                  10071e40 f   c5_testWalkStepWorldSim.obj
 0001:00070ed0       _c5_get_pa                 10071ed0 f   c5_testWalkStepWorldSim.obj
 0001:00070f60       _c5_set_pa                 10071f60 f   c5_testWalkStepWorldSim.obj
 0001:00070ff0       _c5_get_r                  10071ff0 f   c5_testWalkStepWorldSim.obj
 0001:00071080       _c5_set_r                  10072080 f   c5_testWalkStepWorldSim.obj
 0001:00071110       _c5_set_randAvertGazeChance 10072110 f   c5_testWalkStepWorldSim.obj
 0001:000711a0       _c5_set_randPoseChance     100721a0 f   c5_testWalkStepWorldSim.obj
 0001:00071230       _c5_set_randSmile          10072230 f   c5_testWalkStepWorldSim.obj
 0001:000712c0       _c5_get_s                  100722c0 f   c5_testWalkStepWorldSim.obj
 0001:00071350       _c5_set_s                  10072350 f   c5_testWalkStepWorldSim.obj
 0001:000713e0       _c5_get_t                  100723e0 f   c5_testWalkStepWorldSim.obj
 0001:00071470       _c5_set_t                  10072470 f   c5_testWalkStepWorldSim.obj
 0001:00071500       _c5_get_temp               10072500 f   c5_testWalkStepWorldSim.obj
 0001:00071590       _c5_set_temp               10072590 f   c5_testWalkStepWorldSim.obj
 0001:00071620       _c5_get_uHand              10072620 f   c5_testWalkStepWorldSim.obj
 0001:000716b0       _c5_set_uHand              100726b0 f   c5_testWalkStepWorldSim.obj
 0001:000725b0       _get_sim_state_c5_testWalkStepWorldSim 100735b0 f   c5_testWalkStepWorldSim.obj
 0001:00072fd0       _sf_get_sim_state_info_c5_testWalkStepWorldSim 10073fd0 f   c5_testWalkStepWorldSim.obj
 0001:00073150       _set_sim_state_c5_testWalkStepWorldSim 10074150 f   c5_testWalkStepWorldSim.obj
 0001:000736c0       _c5_update_debugger_state_c5_testWalkStepWorldSim 100746c0 f   c5_testWalkStepWorldSim.obj
 0001:00074b10       _c5_emlrt_marshallIn       10075b10 f   c5_testWalkStepWorldSim.obj
 0001:00074b60       _c5_d_emlrt_marshallIn     10075b60 f   c5_testWalkStepWorldSim.obj
 0001:00074bb0       _c5_j_emlrt_marshallIn     10075bb0 f   c5_testWalkStepWorldSim.obj
 0001:00074c00       _c5_k_emlrt_marshallIn     10075c00 f   c5_testWalkStepWorldSim.obj
 0001:00074c50       _c5_l_emlrt_marshallIn     10075c50 f   c5_testWalkStepWorldSim.obj
 0001:00074ca0       _c5_m_emlrt_marshallIn     10075ca0 f   c5_testWalkStepWorldSim.obj
 0001:00074cf0       _c5_n_emlrt_marshallIn     10075cf0 f   c5_testWalkStepWorldSim.obj
 0001:00074d50       _c5_o_emlrt_marshallIn     10075d50 f   c5_testWalkStepWorldSim.obj
 0001:00074df0       _mdlProcessParameters_c5_testWalkStepWorldSim 10075df0 f   c5_testWalkStepWorldSim.obj
 0001:00074ea0       _initialize_params_c5_testWalkStepWorldSim 10075ea0 f   c5_testWalkStepWorldSim.obj
 0001:00074eb0       _mdlSetWorkWidths_c5_testWalkStepWorldSim 10075eb0 f   c5_testWalkStepWorldSim.obj
 0001:00075290       _sf_get_instance_specialization 10076290 f   c5_testWalkStepWorldSim.obj
 0001:000752a0       _mdlStart_c5_testWalkStepWorldSim 100762a0 f   c5_testWalkStepWorldSim.obj
 0001:00075440       _init_dsm_address_info     10076440 f   c5_testWalkStepWorldSim.obj
 0001:000769b0       _chart_debug_initialization 100779b0 f   c5_testWalkStepWorldSim.obj
 0001:0007ea90       _init_script_number_translation 1007fa90 f   c5_testWalkStepWorldSim.obj
 0001:0007ead0       _c5_ub_sf_marshallOut      1007fad0 f   c5_testWalkStepWorldSim.obj
 0001:0007ebe0       _sf_opaque_initialize_c5_testWalkStepWorldSim 1007fbe0 f   c5_testWalkStepWorldSim.obj
 0001:0007ec10       _initialize_c5_testWalkStepWorldSim 1007fc10 f   c5_testWalkStepWorldSim.obj
 0001:0007ec20       _sf_opaque_enable_c5_testWalkStepWorldSim 1007fc20 f   c5_testWalkStepWorldSim.obj
 0001:0007ec40       _enable_c5_testWalkStepWorldSim 1007fc40 f   c5_testWalkStepWorldSim.obj
 0001:0007ec50       _sf_opaque_disable_c5_testWalkStepWorldSim 1007fc50 f   c5_testWalkStepWorldSim.obj
 0001:0007ec70       _disable_c5_testWalkStepWorldSim 1007fc70 f   c5_testWalkStepWorldSim.obj
 0001:0007ec80       _sf_opaque_gateway_c5_testWalkStepWorldSim 1007fc80 f   c5_testWalkStepWorldSim.obj
 0001:0007eca0       _sf_gateway_c5_testWalkStepWorldSim 1007fca0 f   c5_testWalkStepWorldSim.obj
 0001:0007ecc0       _c5_set_sim_state_side_effects_c5_testWalkStepWorldSim 1007fcc0 f   c5_testWalkStepWorldSim.obj
 0001:0007f340       _sf_opaque_get_sim_state_c5_testWalkStepWorldSim 10080340 f   c5_testWalkStepWorldSim.obj
 0001:0007f350       _sf_opaque_set_sim_state_c5_testWalkStepWorldSim 10080350 f   c5_testWalkStepWorldSim.obj
 0001:0007f360       _sf_opaque_terminate_c5_testWalkStepWorldSim 10080360 f   c5_testWalkStepWorldSim.obj
 0001:0007f3f0       _finalize_c5_testWalkStepWorldSim 100803f0 f   c5_testWalkStepWorldSim.obj
 0001:0007f410       _sf_opaque_init_subchart_simstructs 10080410 f   c5_testWalkStepWorldSim.obj
 0001:0007f430       _initSimStructsc5_testWalkStepWorldSim 10080430 f   c5_testWalkStepWorldSim.obj
 0001:0007f440       _mdlRTW_c5_testWalkStepWorldSim 10080440 f   c5_testWalkStepWorldSim.obj
 0001:0007f4f0       _c8_info_helper            100804f0 f   c8_testWalkStepWorldSim.obj
 0001:0007fe60       _c8_emlrt_marshallOut      10080e60 f   c8_testWalkStepWorldSim.obj
 0001:0007fec0       _c8_b_emlrt_marshallOut    10080ec0 f   c8_testWalkStepWorldSim.obj
 0001:0007ff40       _c8_activate_secsc8_testWalkStepWorldSim 10080f40 f   c8_testWalkStepWorldSim.obj
 0001:0007ffd0       _c8_increment_counters_secsc8_testWalkStepWorldSim 10080fd0 f   c8_testWalkStepWorldSim.obj
 0001:00080030       _c8_reset_counters_secsc8_testWalkStepWorldSim 10081030 f   c8_testWalkStepWorldSim.obj
 0001:00080070       _c8_deactivate_secsc8_testWalkStepWorldSim 10081070 f   c8_testWalkStepWorldSim.obj
 0001:00080130       _c8_c8_testWalkStepWorldSim 10081130 f   c8_testWalkStepWorldSim.obj
 0001:00082340       _c8_stateInit              10083340 f   c8_testWalkStepWorldSim.obj
 0001:00082b40       _c8_checkUserCoord         10083b40 f   c8_testWalkStepWorldSim.obj
 0001:00084ce0       _c8_enter_atomic_stateWalkBack 10085ce0 f   c8_testWalkStepWorldSim.obj
 0001:00085160       _c8_enter_atomic_browUp    10086160 f   c8_testWalkStepWorldSim.obj
 0001:00085580       _c8_enter_atomic_idle      10086580 f   c8_testWalkStepWorldSim.obj
 0001:000859a0       _c8_enter_atomic_leanFW    100869a0 f   c8_testWalkStepWorldSim.obj
 0001:00085da0       _c8_enter_atomic_leanNeutral 10086da0 f   c8_testWalkStepWorldSim.obj
 0001:00086160       _c8_leanNeutral            10087160 f   c8_testWalkStepWorldSim.obj
 0001:000868d0       _c8_c_sf_marshallOut       100878d0 f   c8_testWalkStepWorldSim.obj
 0001:00086950       _c8_c_sf_marshallIn        10087950 f   c8_testWalkStepWorldSim.obj
 0001:000869d0       _c8_e_emlrt_marshallIn     100879d0 f   c8_testWalkStepWorldSim.obj
 0001:00086a20       _c8_f_sf_marshallOut       10087a20 f   c8_testWalkStepWorldSim.obj
 0001:00086aa0       _c8_e_sf_marshallIn        10087aa0 f   c8_testWalkStepWorldSim.obj
 0001:00086b20       _c8_h_emlrt_marshallIn     10087b20 f   c8_testWalkStepWorldSim.obj
 0001:00086bc0       _c8_enter_atomic_c8_testWalkStepWorldSim 10087bc0 f   c8_testWalkStepWorldSim.obj
 0001:00086c70       _c8_enter_internal_c8_testWalkStepWorldSim 10087c70 f   c8_testWalkStepWorldSim.obj
 0001:00087f20       _c8_d_sf_marshallOut       10088f20 f   c8_testWalkStepWorldSim.obj
 0001:00088050       _c8_d_sf_marshallIn        10089050 f   c8_testWalkStepWorldSim.obj
 0001:00088120       _c8_g_emlrt_marshallIn     10089120 f   c8_testWalkStepWorldSim.obj
 0001:000881b0       _c8_e_sf_marshallOut       100891b0 f   c8_testWalkStepWorldSim.obj
 0001:00088270       _c8_exit_internal_c8_testWalkStepWorldSim 10089270 f   c8_testWalkStepWorldSim.obj
 0001:00088c10       _c8_initc8_testWalkStepWorldSim 10089c10 f   c8_testWalkStepWorldSim.obj
 0001:00088de0       _c8_walkInvadingTablec8_testWalkStepWorldSim 10089de0 f   c8_testWalkStepWorldSim.obj
 0001:0008b050       _c8_encStr2Arr             1008c050 f   c8_testWalkStepWorldSim.obj
 0001:0008b5c0       _c8_b_encStr2Arr           1008c5c0 f   c8_testWalkStepWorldSim.obj
 0001:0008bb50       _c8_c_encStr2Arr           1008cb50 f   c8_testWalkStepWorldSim.obj
 0001:0008c0d0       _c8_d_encStr2Arr           1008d0d0 f   c8_testWalkStepWorldSim.obj
 0001:0008c660       _c8_e_encStr2Arr           1008d660 f   c8_testWalkStepWorldSim.obj
 0001:0008cbe0       _c8_f_encStr2Arr           1008dbe0 f   c8_testWalkStepWorldSim.obj
 0001:0008d170       _c8_g_encStr2Arr           1008e170 f   c8_testWalkStepWorldSim.obj
 0001:0008d6f0       _c8_b_sf_marshallOut       1008e6f0 f   c8_testWalkStepWorldSim.obj
 0001:0008d820       _c8_b_sf_marshallIn        1008e820 f   c8_testWalkStepWorldSim.obj
 0001:0008d8f0       _c8_c_emlrt_marshallIn     1008e8f0 f   c8_testWalkStepWorldSim.obj
 0001:0008d980       _c8_g_sf_marshallOut       1008e980 f   c8_testWalkStepWorldSim.obj
 0001:0008dab0       _c8_h_sf_marshallOut       1008eab0 f   c8_testWalkStepWorldSim.obj
 0001:0008dbe0       _c8_i_sf_marshallOut       1008ebe0 f   c8_testWalkStepWorldSim.obj
 0001:0008dd10       _c8_j_sf_marshallOut       1008ed10 f   c8_testWalkStepWorldSim.obj
 0001:0008de40       _c8_k_sf_marshallOut       1008ee40 f   c8_testWalkStepWorldSim.obj
 0001:0008df70       _c8_l_sf_marshallOut       1008ef70 f   c8_testWalkStepWorldSim.obj
 0001:0008e0a0       _c8_m_sf_marshallOut       1008f0a0 f   c8_testWalkStepWorldSim.obj
 0001:0008e1c0       _c8_n_sf_marshallOut       1008f1c0 f   c8_testWalkStepWorldSim.obj
 0001:0008e2f0       _c8_o_sf_marshallOut       1008f2f0 f   c8_testWalkStepWorldSim.obj
 0001:0008e420       _c8_p_sf_marshallOut       1008f420 f   c8_testWalkStepWorldSim.obj
 0001:0008e550       _c8_q_sf_marshallOut       1008f550 f   c8_testWalkStepWorldSim.obj
 0001:0008e680       _c8_r_sf_marshallOut       1008f680 f   c8_testWalkStepWorldSim.obj
 0001:0008e7b0       _c8_s_sf_marshallOut       1008f7b0 f   c8_testWalkStepWorldSim.obj
 0001:0008e8b0       _c8_t_sf_marshallOut       1008f8b0 f   c8_testWalkStepWorldSim.obj
 0001:0008e9e0       _c8_u_sf_marshallOut       1008f9e0 f   c8_testWalkStepWorldSim.obj
 0001:0008eb10       _c8_v_sf_marshallOut       1008fb10 f   c8_testWalkStepWorldSim.obj
 0001:0008ec40       _c8_insertQueuec8_testWalkStepWorldSim 1008fc40 f   c8_testWalkStepWorldSim.obj
 0001:0008f970       _c8_sf_marshallOut         10090970 f   c8_testWalkStepWorldSim.obj
 0001:0008fb40       _c8_sf_marshallIn          10090b40 f   c8_testWalkStepWorldSim.obj
 0001:0008fc70       _c8_b_emlrt_marshallIn     10090c70 f   c8_testWalkStepWorldSim.obj
 0001:0008fd10       _c8_isequal                10090d10 f   c8_testWalkStepWorldSim.obj
 0001:00090060       _c8_insertQueueLowc8_testWalkStepWorldSim 10091060 f   c8_testWalkStepWorldSim.obj
 0001:00090dd0       _c8_updateDataWrittenToVector 10091dd0 f   c8_testWalkStepWorldSim.obj
 0001:00090e20       _c8_errorIfDataNotWrittenToFcn 10091e20 f   c8_testWalkStepWorldSim.obj
 0001:00090ea0       _c8_set_P                  10091ea0 f   c8_testWalkStepWorldSim.obj
 0001:00090f30       _c8_get_STATE_READY        10091f30 f   c8_testWalkStepWorldSim.obj
 0001:00090fc0       _c8_get_avert              10091fc0 f   c8_testWalkStepWorldSim.obj
 0001:00091050       _c8_set_bmlsL              10092050 f   c8_testWalkStepWorldSim.obj
 0001:000910e0       _c8_get_bmlsM              100920e0 f   c8_testWalkStepWorldSim.obj
 0001:00091170       _c8_set_bmlsM              10092170 f   c8_testWalkStepWorldSim.obj
 0001:00092630       _get_sim_state_c8_testWalkStepWorldSim 10093630 f   c8_testWalkStepWorldSim.obj
 0001:00092e60       _sf_get_sim_state_info_c8_testWalkStepWorldSim 10093e60 f   c8_testWalkStepWorldSim.obj
 0001:00092fe0       _set_sim_state_c8_testWalkStepWorldSim 10093fe0 f   c8_testWalkStepWorldSim.obj
 0001:00093560       _c8_update_debugger_state_c8_testWalkStepWorldSim 10094560 f   c8_testWalkStepWorldSim.obj
 0001:00093e50       _c8_emlrt_marshallIn       10094e50 f   c8_testWalkStepWorldSim.obj
 0001:00093ea0       _c8_d_emlrt_marshallIn     10094ea0 f   c8_testWalkStepWorldSim.obj
 0001:00093ef0       _c8_f_emlrt_marshallIn     10094ef0 f   c8_testWalkStepWorldSim.obj
 0001:00093f40       _c8_k_emlrt_marshallIn     10094f40 f   c8_testWalkStepWorldSim.obj
 0001:00093f90       _c8_l_emlrt_marshallIn     10094f90 f   c8_testWalkStepWorldSim.obj
 0001:00093fe0       _c8_m_emlrt_marshallIn     10094fe0 f   c8_testWalkStepWorldSim.obj
 0001:00094030       _c8_n_emlrt_marshallIn     10095030 f   c8_testWalkStepWorldSim.obj
 0001:000940e0       _c8_o_emlrt_marshallIn     100950e0 f   c8_testWalkStepWorldSim.obj
 0001:00094140       _c8_p_emlrt_marshallIn     10095140 f   c8_testWalkStepWorldSim.obj
 0001:000941e0       _mdlProcessParameters_c8_testWalkStepWorldSim 100951e0 f   c8_testWalkStepWorldSim.obj
 0001:00094290       _initialize_params_c8_testWalkStepWorldSim 10095290 f   c8_testWalkStepWorldSim.obj
 0001:000942a0       _mdlSetWorkWidths_c8_testWalkStepWorldSim 100952a0 f   c8_testWalkStepWorldSim.obj
 0001:00094690       _sf_get_instance_specialization 10095690 f   c8_testWalkStepWorldSim.obj
 0001:000946a0       _mdlStart_c8_testWalkStepWorldSim 100956a0 f   c8_testWalkStepWorldSim.obj
 0001:00094840       _init_dsm_address_info     10095840 f   c8_testWalkStepWorldSim.obj
 0001:00094d10       _chart_debug_initialization 10095d10 f   c8_testWalkStepWorldSim.obj
 0001:00098950       _init_script_number_translation 10099950 f   c8_testWalkStepWorldSim.obj
 0001:00098990       _c8_ab_sf_marshallOut      10099990 f   c8_testWalkStepWorldSim.obj
 0001:00098b00       _c8_i_sf_marshallIn        10099b00 f   c8_testWalkStepWorldSim.obj
 0001:00098bf0       _sf_opaque_initialize_c8_testWalkStepWorldSim 10099bf0 f   c8_testWalkStepWorldSim.obj
 0001:00098c20       _initialize_c8_testWalkStepWorldSim 10099c20 f   c8_testWalkStepWorldSim.obj
 0001:00098c30       _sf_opaque_enable_c8_testWalkStepWorldSim 10099c30 f   c8_testWalkStepWorldSim.obj
 0001:00098c50       _enable_c8_testWalkStepWorldSim 10099c50 f   c8_testWalkStepWorldSim.obj
 0001:00098c60       _sf_opaque_disable_c8_testWalkStepWorldSim 10099c60 f   c8_testWalkStepWorldSim.obj
 0001:00098c80       _disable_c8_testWalkStepWorldSim 10099c80 f   c8_testWalkStepWorldSim.obj
 0001:00098c90       _sf_opaque_gateway_c8_testWalkStepWorldSim 10099c90 f   c8_testWalkStepWorldSim.obj
 0001:00098cb0       _sf_gateway_c8_testWalkStepWorldSim 10099cb0 f   c8_testWalkStepWorldSim.obj
 0001:00098cd0       _c8_set_sim_state_side_effects_c8_testWalkStepWorldSim 10099cd0 f   c8_testWalkStepWorldSim.obj
 0001:00098fa0       _sf_opaque_get_sim_state_c8_testWalkStepWorldSim 10099fa0 f   c8_testWalkStepWorldSim.obj
 0001:00098fb0       _sf_opaque_set_sim_state_c8_testWalkStepWorldSim 10099fb0 f   c8_testWalkStepWorldSim.obj
 0001:00098fc0       _sf_opaque_terminate_c8_testWalkStepWorldSim 10099fc0 f   c8_testWalkStepWorldSim.obj
 0001:00099050       _finalize_c8_testWalkStepWorldSim 1009a050 f   c8_testWalkStepWorldSim.obj
 0001:00099070       _sf_opaque_init_subchart_simstructs 1009a070 f   c8_testWalkStepWorldSim.obj
 0001:00099090       _initSimStructsc8_testWalkStepWorldSim 1009a090 f   c8_testWalkStepWorldSim.obj
 0001:000990a0       _mdlRTW_c8_testWalkStepWorldSim 1009a0a0 f   c8_testWalkStepWorldSim.obj
 0001:00099170       _c9_info_helper            1009a170 f   c9_testWalkStepWorldSim.obj
 0001:000a0270       _c9_emlrt_marshallOut      100a1270 f   c9_testWalkStepWorldSim.obj
 0001:000a02d0       _c9_b_emlrt_marshallOut    100a12d0 f   c9_testWalkStepWorldSim.obj
 0001:000a0350       _c9_activate_secsc9_testWalkStepWorldSim 100a1350 f   c9_testWalkStepWorldSim.obj
 0001:000a03e0       _c9_increment_counters_secsc9_testWalkStepWorldSim 100a13e0 f   c9_testWalkStepWorldSim.obj
 0001:000a0480       _c9_reset_counters_secsc9_testWalkStepWorldSim 100a1480 f   c9_testWalkStepWorldSim.obj
 0001:000a04c0       _c9_deactivate_secsc9_testWalkStepWorldSim 100a14c0 f   c9_testWalkStepWorldSim.obj
 0001:000a0580       _c9_c9_testWalkStepWorldSim 100a1580 f   c9_testWalkStepWorldSim.obj
 0001:000a1c10       _c9_stateGazeIde           100a2c10 f   c9_testWalkStepWorldSim.obj
 0001:000a40c0       _c9_enter_atomic_stateRandGen 100a50c0 f   c9_testWalkStepWorldSim.obj
 0001:000a4450       _c9_stateRandGen           100a5450 f   c9_testWalkStepWorldSim.obj
 0001:000a5720       _c9_enter_atomic_stateCheckMutCont 100a6720 f   c9_testWalkStepWorldSim.obj
 0001:000a5980       _c9_stateCheckMutCont      100a6980 f   c9_testWalkStepWorldSim.obj
 0001:000a67e0       _c9_enter_atomic_stateAvertGaze 100a77e0 f   c9_testWalkStepWorldSim.obj
 0001:000a6f10       _c9_stateCheckAvertCont    100a7f10 f   c9_testWalkStepWorldSim.obj
 0001:000a8900       _c9_enter_atomic_stateMutualGaze 100a9900 f   c9_testWalkStepWorldSim.obj
 0001:000a8dd0       _c9_stateMutualGaze        100a9dd0 f   c9_testWalkStepWorldSim.obj
 0001:000a9100       _c9_enter_atomic_stateAvertHead 100aa100 f   c9_testWalkStepWorldSim.obj
 0001:000a95e0       _c9_enter_atomic_stateGazingGUI 100aa5e0 f   c9_testWalkStepWorldSim.obj
 0001:000a99e0       _c9_enter_atomic_stateGazingUserHand 100aa9e0 f   c9_testWalkStepWorldSim.obj
 0001:000a9e50       _c9_enter_atomic_stateWinSmile 100aae50 f   c9_testWalkStepWorldSim.obj
 0001:000aa030       _c9_enter_atomic_stateNeckBack 100ab030 f   c9_testWalkStepWorldSim.obj
 0001:000aa240       _c9_enter_atomic_stateBrowUp 100ab240 f   c9_testWalkStepWorldSim.obj
 0001:000aa480       _c9_enter_atomic_stateGazeSoftEye 100ab480 f   c9_testWalkStepWorldSim.obj
 0001:000aa690       _c9_rand                   100ab690 f   c9_testWalkStepWorldSim.obj
 0001:000aa770       _c9_eml_rand_mt19937ar     100ab770 f   c9_testWalkStepWorldSim.obj
 0001:000aa7d0       _c9_b_eml_error            100ab7d0 f   c9_testWalkStepWorldSim.obj
 0001:000aa900       _c9_b_sf_marshallOut       100ab900 f   c9_testWalkStepWorldSim.obj
 0001:000aa980       _c9_b_sf_marshallIn        100ab980 f   c9_testWalkStepWorldSim.obj
 0001:000aaa00       _c9_f_emlrt_marshallIn     100aba00 f   c9_testWalkStepWorldSim.obj
 0001:000aaa50       _c9_c_sf_marshallOut       100aba50 f   c9_testWalkStepWorldSim.obj
 0001:000aaad0       _c9_c_sf_marshallIn        100abad0 f   c9_testWalkStepWorldSim.obj
 0001:000aab50       _c9_g_emlrt_marshallIn     100abb50 f   c9_testWalkStepWorldSim.obj
 0001:000aabf0       _c9_enter_atomic_c9_testWalkStepWorldSim 100abbf0 f   c9_testWalkStepWorldSim.obj
 0001:000aaca0       _c9_enter_internal_c9_testWalkStepWorldSim 100abca0 f   c9_testWalkStepWorldSim.obj
 0001:000abf30       _c9_d_sf_marshallOut       100acf30 f   c9_testWalkStepWorldSim.obj
 0001:000ac050       _c9_d_sf_marshallIn        100ad050 f   c9_testWalkStepWorldSim.obj
 0001:000ac110       _c9_i_emlrt_marshallIn     100ad110 f   c9_testWalkStepWorldSim.obj
 0001:000ac1b0       _c9_mc_sf_marshallOut      100ad1b0 f   c9_testWalkStepWorldSim.obj
 0001:000ac270       _c9_exit_internal_c9_testWalkStepWorldSim 100ad270 f   c9_testWalkStepWorldSim.obj
 0001:000ad0f0       _c9_initc9_testWalkStepWorldSim 100ae0f0 f   c9_testWalkStepWorldSim.obj
 0001:000ad3a0       _c9_idleGazeTablec9_testWalkStepWorldSim 100ae3a0 f   c9_testWalkStepWorldSim.obj
 0001:000b21a0       _c9_encStr2Arr             100b31a0 f   c9_testWalkStepWorldSim.obj
 0001:000b2700       _c9_b_encStr2Arr           100b3700 f   c9_testWalkStepWorldSim.obj
 0001:000b2c80       _c9_c_encStr2Arr           100b3c80 f   c9_testWalkStepWorldSim.obj
 0001:000b31e0       _c9_d_encStr2Arr           100b41e0 f   c9_testWalkStepWorldSim.obj
 0001:000b3730       _c9_e_encStr2Arr           100b4730 f   c9_testWalkStepWorldSim.obj
 0001:000b3cb0       _c9_f_encStr2Arr           100b4cb0 f   c9_testWalkStepWorldSim.obj
 0001:000b4200       _c9_g_encStr2Arr           100b5200 f   c9_testWalkStepWorldSim.obj
 0001:000b4760       _c9_h_encStr2Arr           100b5760 f   c9_testWalkStepWorldSim.obj
 0001:000b4cd0       _c9_i_encStr2Arr           100b5cd0 f   c9_testWalkStepWorldSim.obj
 0001:000b5230       _c9_j_encStr2Arr           100b6230 f   c9_testWalkStepWorldSim.obj
 0001:000b57b0       _c9_k_encStr2Arr           100b67b0 f   c9_testWalkStepWorldSim.obj
 0001:000b5d30       _c9_l_encStr2Arr           100b6d30 f   c9_testWalkStepWorldSim.obj
 0001:000b6290       _c9_m_encStr2Arr           100b7290 f   c9_testWalkStepWorldSim.obj
 0001:000b67f0       _c9_n_encStr2Arr           100b77f0 f   c9_testWalkStepWorldSim.obj
 0001:000b6d60       _c9_o_encStr2Arr           100b7d60 f   c9_testWalkStepWorldSim.obj
 0001:000b72d0       _c9_p_encStr2Arr           100b82d0 f   c9_testWalkStepWorldSim.obj
 0001:000b7840       _c9_q_encStr2Arr           100b8840 f   c9_testWalkStepWorldSim.obj
 0001:000b7db0       _c9_r_encStr2Arr           100b8db0 f   c9_testWalkStepWorldSim.obj
 0001:000b8320       _c9_s_encStr2Arr           100b9320 f   c9_testWalkStepWorldSim.obj
 0001:000b8890       _c9_t_encStr2Arr           100b9890 f   c9_testWalkStepWorldSim.obj
 0001:000b8df0       _c9_u_encStr2Arr           100b9df0 f   c9_testWalkStepWorldSim.obj
 0001:000b9350       _c9_v_encStr2Arr           100ba350 f   c9_testWalkStepWorldSim.obj
 0001:000b98c0       _c9_w_encStr2Arr           100ba8c0 f   c9_testWalkStepWorldSim.obj
 0001:000b9e40       _c9_sf_marshallOut         100bae40 f   c9_testWalkStepWorldSim.obj
 0001:000b9f70       _c9_sf_marshallIn          100baf70 f   c9_testWalkStepWorldSim.obj
 0001:000ba030       _c9_d_emlrt_marshallIn     100bb030 f   c9_testWalkStepWorldSim.obj
 0001:000ba0e0       _c9_e_sf_marshallOut       100bb0e0 f   c9_testWalkStepWorldSim.obj
 0001:000ba1f0       _c9_f_sf_marshallOut       100bb1f0 f   c9_testWalkStepWorldSim.obj
 0001:000ba320       _c9_g_sf_marshallOut       100bb320 f   c9_testWalkStepWorldSim.obj
 0001:000ba450       _c9_h_sf_marshallOut       100bb450 f   c9_testWalkStepWorldSim.obj
 0001:000ba580       _c9_i_sf_marshallOut       100bb580 f   c9_testWalkStepWorldSim.obj
 0001:000ba6a0       _c9_j_sf_marshallOut       100bb6a0 f   c9_testWalkStepWorldSim.obj
 0001:000ba7d0       _c9_k_sf_marshallOut       100bb7d0 f   c9_testWalkStepWorldSim.obj
 0001:000ba900       _c9_l_sf_marshallOut       100bb900 f   c9_testWalkStepWorldSim.obj
 0001:000baa30       _c9_m_sf_marshallOut       100bba30 f   c9_testWalkStepWorldSim.obj
 0001:000bab60       _c9_n_sf_marshallOut       100bbb60 f   c9_testWalkStepWorldSim.obj
 0001:000bac90       _c9_o_sf_marshallOut       100bbc90 f   c9_testWalkStepWorldSim.obj
 0001:000badc0       _c9_p_sf_marshallOut       100bbdc0 f   c9_testWalkStepWorldSim.obj
 0001:000baed0       _c9_q_sf_marshallOut       100bbed0 f   c9_testWalkStepWorldSim.obj
 0001:000bafe0       _c9_r_sf_marshallOut       100bbfe0 f   c9_testWalkStepWorldSim.obj
 0001:000bb110       _c9_s_sf_marshallOut       100bc110 f   c9_testWalkStepWorldSim.obj
 0001:000bb240       _c9_t_sf_marshallOut       100bc240 f   c9_testWalkStepWorldSim.obj
 0001:000bb370       _c9_u_sf_marshallOut       100bc370 f   c9_testWalkStepWorldSim.obj
 0001:000bb4a0       _c9_v_sf_marshallOut       100bc4a0 f   c9_testWalkStepWorldSim.obj
 0001:000bb5c0       _c9_w_sf_marshallOut       100bc5c0 f   c9_testWalkStepWorldSim.obj
 0001:000bb6f0       _c9_x_sf_marshallOut       100bc6f0 f   c9_testWalkStepWorldSim.obj
 0001:000bb820       _c9_y_sf_marshallOut       100bc820 f   c9_testWalkStepWorldSim.obj
 0001:000bb950       _c9_ab_sf_marshallOut      100bc950 f   c9_testWalkStepWorldSim.obj
 0001:000bba80       _c9_bb_sf_marshallOut      100bca80 f   c9_testWalkStepWorldSim.obj
 0001:000bbbb0       _c9_cb_sf_marshallOut      100bcbb0 f   c9_testWalkStepWorldSim.obj
 0001:000bbce0       _c9_db_sf_marshallOut      100bcce0 f   c9_testWalkStepWorldSim.obj
 0001:000bbe10       _c9_eb_sf_marshallOut      100bce10 f   c9_testWalkStepWorldSim.obj
 0001:000bbf40       _c9_fb_sf_marshallOut      100bcf40 f   c9_testWalkStepWorldSim.obj
 0001:000bc070       _c9_gb_sf_marshallOut      100bd070 f   c9_testWalkStepWorldSim.obj
 0001:000bc1a0       _c9_hb_sf_marshallOut      100bd1a0 f   c9_testWalkStepWorldSim.obj
 0001:000bc2c0       _c9_ib_sf_marshallOut      100bd2c0 f   c9_testWalkStepWorldSim.obj
 0001:000bc3d0       _c9_jb_sf_marshallOut      100bd3d0 f   c9_testWalkStepWorldSim.obj
 0001:000bc500       _c9_kb_sf_marshallOut      100bd500 f   c9_testWalkStepWorldSim.obj
 0001:000bc630       _c9_lb_sf_marshallOut      100bd630 f   c9_testWalkStepWorldSim.obj
 0001:000bc760       _c9_mb_sf_marshallOut      100bd760 f   c9_testWalkStepWorldSim.obj
 0001:000bc890       _c9_nb_sf_marshallOut      100bd890 f   c9_testWalkStepWorldSim.obj
 0001:000bc9c0       _c9_ob_sf_marshallOut      100bd9c0 f   c9_testWalkStepWorldSim.obj
 0001:000bcaf0       _c9_pb_sf_marshallOut      100bdaf0 f   c9_testWalkStepWorldSim.obj
 0001:000bcc20       _c9_qb_sf_marshallOut      100bdc20 f   c9_testWalkStepWorldSim.obj
 0001:000bcd50       _c9_successTablec9_testWalkStepWorldSim 100bdd50 f   c9_testWalkStepWorldSim.obj
 0001:000bdf70       _c9_fb_encStr2Arr          100bef70 f   c9_testWalkStepWorldSim.obj
 0001:000be4d0       _c9_gb_encStr2Arr          100bf4d0 f   c9_testWalkStepWorldSim.obj
 0001:000bea30       _c9_ac_sf_marshallOut      100bfa30 f   c9_testWalkStepWorldSim.obj
 0001:000beb60       _c9_bc_sf_marshallOut      100bfb60 f   c9_testWalkStepWorldSim.obj
 0001:000bec90       _c9_cc_sf_marshallOut      100bfc90 f   c9_testWalkStepWorldSim.obj
 0001:000bedc0       _c9_dc_sf_marshallOut      100bfdc0 f   c9_testWalkStepWorldSim.obj
 0001:000beed0       _c9_idleGazeFunctionc9_testWalkStepWorldSim 100bfed0 f   c9_testWalkStepWorldSim.obj
 0001:000c1a90       _c9_jb_encStr2Arr          100c2a90 f   c9_testWalkStepWorldSim.obj
 0001:000c2180       _c9_emlrt_marshallIn       100c3180 f   c9_testWalkStepWorldSim.obj
 0001:000c21d0       _c9_b_emlrt_marshallIn     100c31d0 f   c9_testWalkStepWorldSim.obj
 0001:000c2350       _c9_ic_sf_marshallOut      100c3350 f   c9_testWalkStepWorldSim.obj
 0001:000c24d0       _c9_e_sf_marshallIn        100c34d0 f   c9_testWalkStepWorldSim.obj
 0001:000c25f0       _c9_j_emlrt_marshallIn     100c35f0 f   c9_testWalkStepWorldSim.obj
 0001:000c2770       _c9_jc_sf_marshallOut      100c3770 f   c9_testWalkStepWorldSim.obj
 0001:000c28a0       _c9_f_sf_marshallIn        100c38a0 f   c9_testWalkStepWorldSim.obj
 0001:000c2980       _c9_k_emlrt_marshallIn     100c3980 f   c9_testWalkStepWorldSim.obj
 0001:000c2a90       _c9_kc_sf_marshallOut      100c3a90 f   c9_testWalkStepWorldSim.obj
 0001:000c2bf0       _c9_g_sf_marshallIn        100c3bf0 f   c9_testWalkStepWorldSim.obj
 0001:000c2cf0       _c9_l_emlrt_marshallIn     100c3cf0 f   c9_testWalkStepWorldSim.obj
 0001:000c2de0       _c9_insertQueueLowc9_testWalkStepWorldSim 100c3de0 f   c9_testWalkStepWorldSim.obj
 0001:000c3a20       _c9_lc_sf_marshallOut      100c4a20 f   c9_testWalkStepWorldSim.obj
 0001:000c3bf0       _c9_h_sf_marshallIn        100c4bf0 f   c9_testWalkStepWorldSim.obj
 0001:000c3cf0       _c9_n_emlrt_marshallIn     100c4cf0 f   c9_testWalkStepWorldSim.obj
 0001:000c3de0       _c9_gazeFollowUserMovec9_testWalkStepWorldSim 100c4de0 f   c9_testWalkStepWorldSim.obj
 0001:000c4fd0       _c9_hb_encStr2Arr          100c5fd0 f   c9_testWalkStepWorldSim.obj
 0001:000c5540       _c9_ib_encStr2Arr          100c6540 f   c9_testWalkStepWorldSim.obj
 0001:000c5ac0       _c9_ec_sf_marshallOut      100c6ac0 f   c9_testWalkStepWorldSim.obj
 0001:000c5bf0       _c9_fc_sf_marshallOut      100c6bf0 f   c9_testWalkStepWorldSim.obj
 0001:000c5d20       _c9_gc_sf_marshallOut      100c6d20 f   c9_testWalkStepWorldSim.obj
 0001:000c5e00       _c9_hc_sf_marshallOut      100c6e00 f   c9_testWalkStepWorldSim.obj
 0001:000c5fc0       _c9_idleGazeInterestedTablec9_testWalkStepWorldSim 100c6fc0 f   c9_testWalkStepWorldSim.obj
 0001:000c8220       _c9_x_encStr2Arr           100c9220 f   c9_testWalkStepWorldSim.obj
 0001:000c8780       _c9_y_encStr2Arr           100c9780 f   c9_testWalkStepWorldSim.obj
 0001:000c8cd0       _c9_ab_encStr2Arr          100c9cd0 f   c9_testWalkStepWorldSim.obj
 0001:000c9250       _c9_bb_encStr2Arr          100ca250 f   c9_testWalkStepWorldSim.obj
 0001:000c97c0       _c9_cb_encStr2Arr          100ca7c0 f   c9_testWalkStepWorldSim.obj
 0001:000c9d30       _c9_db_encStr2Arr          100cad30 f   c9_testWalkStepWorldSim.obj
 0001:000ca280       _c9_eb_encStr2Arr          100cb280 f   c9_testWalkStepWorldSim.obj
 0001:000ca7e0       _c9_rb_sf_marshallOut      100cb7e0 f   c9_testWalkStepWorldSim.obj
 0001:000ca900       _c9_sb_sf_marshallOut      100cb900 f   c9_testWalkStepWorldSim.obj
 0001:000caa30       _c9_tb_sf_marshallOut      100cba30 f   c9_testWalkStepWorldSim.obj
 0001:000cab50       _c9_ub_sf_marshallOut      100cbb50 f   c9_testWalkStepWorldSim.obj
 0001:000cac80       _c9_vb_sf_marshallOut      100cbc80 f   c9_testWalkStepWorldSim.obj
 0001:000cada0       _c9_wb_sf_marshallOut      100cbda0 f   c9_testWalkStepWorldSim.obj
 0001:000caed0       _c9_xb_sf_marshallOut      100cbed0 f   c9_testWalkStepWorldSim.obj
 0001:000cb000       _c9_yb_sf_marshallOut      100cc000 f   c9_testWalkStepWorldSim.obj
 0001:000cb290       _c9_updateDataWrittenToVector 100cc290 f   c9_testWalkStepWorldSim.obj
 0001:000cb2e0       _c9_errorIfDataNotWrittenToFcn 100cc2e0 f   c9_testWalkStepWorldSim.obj
 0001:000cb360       _c9_b_twister_state_vector 100cc360 f   c9_testWalkStepWorldSim.obj
 0001:000cb460       _c9_c_eml_rand_mt19937ar   100cc460 f   c9_testWalkStepWorldSim.obj
 0001:000cb980       _c9_eml_error              100cc980 f   c9_testWalkStepWorldSim.obj
 0001:000cba40       _c9_set_BML                100cca40 f   c9_testWalkStepWorldSim.obj
 0001:000cbad0       _c9_get_BOREDOM_THRESHOLD  100ccad0 f   c9_testWalkStepWorldSim.obj
 0001:000cbb60       _c9_get_GAZE_GUI           100ccb60 f   c9_testWalkStepWorldSim.obj
 0001:000cbbf0       _c9_set_GAZE_GUI           100ccbf0 f   c9_testWalkStepWorldSim.obj
 0001:000cbc80       _c9_get_GAZE_SOFTEYE       100ccc80 f   c9_testWalkStepWorldSim.obj
 0001:000cbd10       _c9_set_GAZE_SOFTEYE       100ccd10 f   c9_testWalkStepWorldSim.obj
 0001:000cbda0       _c9_get_GAZE_USER_HAND     100ccda0 f   c9_testWalkStepWorldSim.obj
 0001:000cbe30       _c9_set_GAZE_USER_HAND     100cce30 f   c9_testWalkStepWorldSim.obj
 0001:000cbec0       _c9_get_GAZE_WIN           100ccec0 f   c9_testWalkStepWorldSim.obj
 0001:000cbf50       _c9_set_GAZE_WIN           100ccf50 f   c9_testWalkStepWorldSim.obj
 0001:000cbfe0       _c9_set_P                  100ccfe0 f   c9_testWalkStepWorldSim.obj
 0001:000cc070       _c9_set_STATE_BEFORE       100cd070 f   c9_testWalkStepWorldSim.obj
 0001:000cc100       _c9_get_STATE_GO           100cd100 f   c9_testWalkStepWorldSim.obj
 0001:000cc190       _c9_set_STATE_GO           100cd190 f   c9_testWalkStepWorldSim.obj
 0001:000cc220       _c9_get_STATE_OVER         100cd220 f   c9_testWalkStepWorldSim.obj
 0001:000cc2b0       _c9_set_STATE_OVER         100cd2b0 f   c9_testWalkStepWorldSim.obj
 0001:000cc340       _c9_get_STATE_READY        100cd340 f   c9_testWalkStepWorldSim.obj
 0001:000cc3d0       _c9_set_STATE_READY        100cd3d0 f   c9_testWalkStepWorldSim.obj
 0001:000cc460       _c9_get_avert              100cd460 f   c9_testWalkStepWorldSim.obj
 0001:000cc4f0       _c9_set_avert              100cd4f0 f   c9_testWalkStepWorldSim.obj
 0001:000cc580       _c9_get_bmlsL              100cd580 f   c9_testWalkStepWorldSim.obj
 0001:000cc610       _c9_set_bmlsL              100cd610 f   c9_testWalkStepWorldSim.obj
 0001:000cc6a0       _c9_get_boredom            100cd6a0 f   c9_testWalkStepWorldSim.obj
 0001:000cc730       _c9_get_changeFlag         100cd730 f   c9_testWalkStepWorldSim.obj
 0001:000cc7c0       _c9_get_gazing             100cd7c0 f   c9_testWalkStepWorldSim.obj
 0001:000cc850       _c9_set_gazing             100cd850 f   c9_testWalkStepWorldSim.obj
 0001:000cc8e0       _c9_get_interest           100cd8e0 f   c9_testWalkStepWorldSim.obj
 0001:000cc970       _c9_set_interest           100cd970 f   c9_testWalkStepWorldSim.obj
 0001:000ce230       _get_sim_state_c9_testWalkStepWorldSim 100cf230 f   c9_testWalkStepWorldSim.obj
 0001:000cf3b0       _sf_get_sim_state_info_c9_testWalkStepWorldSim 100d03b0 f   c9_testWalkStepWorldSim.obj
 0001:000cf540       _set_sim_state_c9_testWalkStepWorldSim 100d0540 f   c9_testWalkStepWorldSim.obj
 0001:000cfe90       _c9_update_debugger_state_c9_testWalkStepWorldSim 100d0e90 f   c9_testWalkStepWorldSim.obj
 0001:000d0c30       _c9_c_emlrt_marshallIn     100d1c30 f   c9_testWalkStepWorldSim.obj
 0001:000d0c80       _c9_e_emlrt_marshallIn     100d1c80 f   c9_testWalkStepWorldSim.obj
 0001:000d0cd0       _c9_h_emlrt_marshallIn     100d1cd0 f   c9_testWalkStepWorldSim.obj
 0001:000d0d20       _c9_m_emlrt_marshallIn     100d1d20 f   c9_testWalkStepWorldSim.obj
 0001:000d0d70       _c9_q_emlrt_marshallIn     100d1d70 f   c9_testWalkStepWorldSim.obj
 0001:000d0dc0       _c9_r_emlrt_marshallIn     100d1dc0 f   c9_testWalkStepWorldSim.obj
 0001:000d0e10       _c9_s_emlrt_marshallIn     100d1e10 f   c9_testWalkStepWorldSim.obj
 0001:000d0e60       _c9_t_emlrt_marshallIn     100d1e60 f   c9_testWalkStepWorldSim.obj
 0001:000d0ef0       _c9_u_emlrt_marshallIn     100d1ef0 f   c9_testWalkStepWorldSim.obj
 0001:000d0f40       _c9_v_emlrt_marshallIn     100d1f40 f   c9_testWalkStepWorldSim.obj
 0001:000d0fd0       _c9_w_emlrt_marshallIn     100d1fd0 f   c9_testWalkStepWorldSim.obj
 0001:000d1020       _c9_x_emlrt_marshallIn     100d2020 f   c9_testWalkStepWorldSim.obj
 0001:000d10a0       _c9_y_emlrt_marshallIn     100d20a0 f   c9_testWalkStepWorldSim.obj
 0001:000d10f0       _c9_ab_emlrt_marshallIn    100d20f0 f   c9_testWalkStepWorldSim.obj
 0001:000d1170       _c9_bb_emlrt_marshallIn    100d2170 f   c9_testWalkStepWorldSim.obj
 0001:000d11c0       _c9_cb_emlrt_marshallIn    100d21c0 f   c9_testWalkStepWorldSim.obj
 0001:000d1280       _c9_db_emlrt_marshallIn    100d2280 f   c9_testWalkStepWorldSim.obj
 0001:000d12d0       _c9_eb_emlrt_marshallIn    100d22d0 f   c9_testWalkStepWorldSim.obj
 0001:000d1370       _c9_fb_emlrt_marshallIn    100d2370 f   c9_testWalkStepWorldSim.obj
 0001:000d13c0       _c9_gb_emlrt_marshallIn    100d23c0 f   c9_testWalkStepWorldSim.obj
 0001:000d1410       _c9_hb_emlrt_marshallIn    100d2410 f   c9_testWalkStepWorldSim.obj
 0001:000d1470       _c9_ib_emlrt_marshallIn    100d2470 f   c9_testWalkStepWorldSim.obj
 0001:000d1510       _mdlProcessParameters_c9_testWalkStepWorldSim 100d2510 f   c9_testWalkStepWorldSim.obj
 0001:000d15c0       _initialize_params_c9_testWalkStepWorldSim 100d25c0 f   c9_testWalkStepWorldSim.obj
 0001:000d15d0       _mdlSetWorkWidths_c9_testWalkStepWorldSim 100d25d0 f   c9_testWalkStepWorldSim.obj
 0001:000d1970       _sf_get_instance_specialization 100d2970 f   c9_testWalkStepWorldSim.obj
 0001:000d1980       _mdlStart_c9_testWalkStepWorldSim 100d2980 f   c9_testWalkStepWorldSim.obj
 0001:000d1b20       _init_dsm_address_info     100d2b20 f   c9_testWalkStepWorldSim.obj
 0001:000d2630       _chart_debug_initialization 100d3630 f   c9_testWalkStepWorldSim.obj
 0001:000d98c0       _init_script_number_translation 100da8c0 f   c9_testWalkStepWorldSim.obj
 0001:000d9920       _c9_qc_sf_marshallOut      100da920 f   c9_testWalkStepWorldSim.obj
 0001:000d9a00       _c9_l_sf_marshallIn        100daa00 f   c9_testWalkStepWorldSim.obj
 0001:000d9ab0       _c9_rc_sf_marshallOut      100daab0 f   c9_testWalkStepWorldSim.obj
 0001:000d9b90       _c9_m_sf_marshallIn        100dab90 f   c9_testWalkStepWorldSim.obj
 0001:000d9c40       _c9_sc_sf_marshallOut      100dac40 f   c9_testWalkStepWorldSim.obj
 0001:000d9d70       _sf_opaque_initialize_c9_testWalkStepWorldSim 100dad70 f   c9_testWalkStepWorldSim.obj
 0001:000d9da0       _initialize_c9_testWalkStepWorldSim 100dada0 f   c9_testWalkStepWorldSim.obj
 0001:000d9db0       _sf_opaque_enable_c9_testWalkStepWorldSim 100dadb0 f   c9_testWalkStepWorldSim.obj
 0001:000d9dd0       _enable_c9_testWalkStepWorldSim 100dadd0 f   c9_testWalkStepWorldSim.obj
 0001:000d9de0       _sf_opaque_disable_c9_testWalkStepWorldSim 100dade0 f   c9_testWalkStepWorldSim.obj
 0001:000d9e00       _disable_c9_testWalkStepWorldSim 100dae00 f   c9_testWalkStepWorldSim.obj
 0001:000d9e10       _sf_opaque_gateway_c9_testWalkStepWorldSim 100dae10 f   c9_testWalkStepWorldSim.obj
 0001:000d9e30       _sf_gateway_c9_testWalkStepWorldSim 100dae30 f   c9_testWalkStepWorldSim.obj
 0001:000d9e50       _c9_set_sim_state_side_effects_c9_testWalkStepWorldSim 100dae50 f   c9_testWalkStepWorldSim.obj
 0001:000da300       _sf_opaque_get_sim_state_c9_testWalkStepWorldSim 100db300 f   c9_testWalkStepWorldSim.obj
 0001:000da310       _sf_opaque_set_sim_state_c9_testWalkStepWorldSim 100db310 f   c9_testWalkStepWorldSim.obj
 0001:000da320       _sf_opaque_terminate_c9_testWalkStepWorldSim 100db320 f   c9_testWalkStepWorldSim.obj
 0001:000da3b0       _finalize_c9_testWalkStepWorldSim 100db3b0 f   c9_testWalkStepWorldSim.obj
 0001:000da3d0       _sf_opaque_init_subchart_simstructs 100db3d0 f   c9_testWalkStepWorldSim.obj
 0001:000da3f0       _initSimStructsc9_testWalkStepWorldSim 100db3f0 f   c9_testWalkStepWorldSim.obj
 0001:000da400       _mdlRTW_c9_testWalkStepWorldSim 100db400 f   c9_testWalkStepWorldSim.obj
 0001:000da4f0       _c10_activate_secsc10_testWalkStepWorldSim 100db4f0 f   c10_testWalkStepWorldSim.obj
 0001:000da580       _c10_increment_counters_secsc10_testWalkStepWorldSim 100db580 f   c10_testWalkStepWorldSim.obj
 0001:000da5e0       _c10_reset_counters_secsc10_testWalkStepWorldSim 100db5e0 f   c10_testWalkStepWorldSim.obj
 0001:000da620       _c10_deactivate_secsc10_testWalkStepWorldSim 100db620 f   c10_testWalkStepWorldSim.obj
 0001:000da6e0       _c10_c10_testWalkStepWorldSim 100db6e0 f   c10_testWalkStepWorldSim.obj
 0001:000dba70       _c10_sf_marshallOut        100dca70 f   c10_testWalkStepWorldSim.obj
 0001:000dbaf0       _c10_sf_marshallIn         100dcaf0 f   c10_testWalkStepWorldSim.obj
 0001:000dbb70       _c10_b_emlrt_marshallIn    100dcb70 f   c10_testWalkStepWorldSim.obj
 0001:000dbbc0       _c10_b_sf_marshallOut      100dcbc0 f   c10_testWalkStepWorldSim.obj
 0001:000dbc40       _c10_b_sf_marshallIn       100dcc40 f   c10_testWalkStepWorldSim.obj
 0001:000dbcc0       _c10_c_emlrt_marshallIn    100dccc0 f   c10_testWalkStepWorldSim.obj
 0001:000dbd60       _c10_enter_atomic_c10_testWalkStepWorldSim 100dcd60 f   c10_testWalkStepWorldSim.obj
 0001:000dbe10       _c10_enter_internal_c10_testWalkStepWorldSim 100dce10 f   c10_testWalkStepWorldSim.obj
 0001:000dc090       _c10_exit_internal_c10_testWalkStepWorldSim 100dd090 f   c10_testWalkStepWorldSim.obj
 0001:000dc5f0       _c10_initc10_testWalkStepWorldSim 100dd5f0 f   c10_testWalkStepWorldSim.obj
 0001:000dc760       _c10_updateDataWrittenToVector 100dd760 f   c10_testWalkStepWorldSim.obj
 0001:000dc7b0       _c10_errorIfDataNotWrittenToFcn 100dd7b0 f   c10_testWalkStepWorldSim.obj
 0001:000dc830       _c10_set_changeFlag        100dd830 f   c10_testWalkStepWorldSim.obj
 0001:000dcd50       _get_sim_state_c10_testWalkStepWorldSim 100ddd50 f   c10_testWalkStepWorldSim.obj
 0001:000dcf20       _sf_get_sim_state_info_c10_testWalkStepWorldSim 100ddf20 f   c10_testWalkStepWorldSim.obj
 0001:000dd0a0       _set_sim_state_c10_testWalkStepWorldSim 100de0a0 f   c10_testWalkStepWorldSim.obj
 0001:000dd1f0       _c10_update_debugger_state_c10_testWalkStepWorldSim 100de1f0 f   c10_testWalkStepWorldSim.obj
 0001:000dd630       _c10_emlrt_marshallIn      100de630 f   c10_testWalkStepWorldSim.obj
 0001:000dd680       _c10_f_emlrt_marshallIn    100de680 f   c10_testWalkStepWorldSim.obj
 0001:000dd6d0       _c10_g_emlrt_marshallIn    100de6d0 f   c10_testWalkStepWorldSim.obj
 0001:000dd720       _c10_h_emlrt_marshallIn    100de720 f   c10_testWalkStepWorldSim.obj
 0001:000dd770       _c10_i_emlrt_marshallIn    100de770 f   c10_testWalkStepWorldSim.obj
 0001:000dd7c0       _c10_j_emlrt_marshallIn    100de7c0 f   c10_testWalkStepWorldSim.obj
 0001:000dd820       _c10_k_emlrt_marshallIn    100de820 f   c10_testWalkStepWorldSim.obj
 0001:000dd8c0       _mdlProcessParameters_c10_testWalkStepWorldSim 100de8c0 f   c10_testWalkStepWorldSim.obj
 0001:000dd970       _initialize_params_c10_testWalkStepWorldSim 100de970 f   c10_testWalkStepWorldSim.obj
 0001:000dd980       _mdlSetWorkWidths_c10_testWalkStepWorldSim 100de980 f   c10_testWalkStepWorldSim.obj
 0001:000ddd10       _sf_get_instance_specialization 100ded10 f   c10_testWalkStepWorldSim.obj
 0001:000ddd20       _mdlStart_c10_testWalkStepWorldSim 100ded20 f   c10_testWalkStepWorldSim.obj
 0001:000ddec0       _init_dsm_address_info     100deec0 f   c10_testWalkStepWorldSim.obj
 0001:000ddf40       _chart_debug_initialization 100def40 f   c10_testWalkStepWorldSim.obj
 0001:000dea60       _init_script_number_translation 100dfa60 f   c10_testWalkStepWorldSim.obj
 0001:000dea70       _sf_opaque_initialize_c10_testWalkStepWorldSim 100dfa70 f   c10_testWalkStepWorldSim.obj
 0001:000deaa0       _initialize_c10_testWalkStepWorldSim 100dfaa0 f   c10_testWalkStepWorldSim.obj
 0001:000deab0       _sf_opaque_enable_c10_testWalkStepWorldSim 100dfab0 f   c10_testWalkStepWorldSim.obj
 0001:000dead0       _enable_c10_testWalkStepWorldSim 100dfad0 f   c10_testWalkStepWorldSim.obj
 0001:000deae0       _sf_opaque_disable_c10_testWalkStepWorldSim 100dfae0 f   c10_testWalkStepWorldSim.obj
 0001:000deb00       _disable_c10_testWalkStepWorldSim 100dfb00 f   c10_testWalkStepWorldSim.obj
 0001:000deb10       _sf_opaque_gateway_c10_testWalkStepWorldSim 100dfb10 f   c10_testWalkStepWorldSim.obj
 0001:000deb30       _sf_gateway_c10_testWalkStepWorldSim 100dfb30 f   c10_testWalkStepWorldSim.obj
 0001:000deb50       _c10_set_sim_state_side_effects_c10_testWalkStepWorldSim 100dfb50 f   c10_testWalkStepWorldSim.obj
 0001:000dec60       _sf_opaque_get_sim_state_c10_testWalkStepWorldSim 100dfc60 f   c10_testWalkStepWorldSim.obj
 0001:000dec70       _sf_opaque_set_sim_state_c10_testWalkStepWorldSim 100dfc70 f   c10_testWalkStepWorldSim.obj
 0001:000dec80       _sf_opaque_terminate_c10_testWalkStepWorldSim 100dfc80 f   c10_testWalkStepWorldSim.obj
 0001:000ded10       _finalize_c10_testWalkStepWorldSim 100dfd10 f   c10_testWalkStepWorldSim.obj
 0001:000ded30       _sf_opaque_init_subchart_simstructs 100dfd30 f   c10_testWalkStepWorldSim.obj
 0001:000ded50       _initSimStructsc10_testWalkStepWorldSim 100dfd50 f   c10_testWalkStepWorldSim.obj
 0001:000ded60       _mdlRTW_c10_testWalkStepWorldSim 100dfd60 f   c10_testWalkStepWorldSim.obj
 0001:000dee10       _c11_info_helper           100dfe10 f   c11_testWalkStepWorldSim.obj
 0001:000df780       _c11_emlrt_marshallOut     100e0780 f   c11_testWalkStepWorldSim.obj
 0001:000df7e0       _c11_b_emlrt_marshallOut   100e07e0 f   c11_testWalkStepWorldSim.obj
 0001:000df860       _c11_activate_secsc11_testWalkStepWorldSim 100e0860 f   c11_testWalkStepWorldSim.obj
 0001:000df8f0       _c11_increment_counters_secsc11_testWalkStepWorldSim 100e08f0 f   c11_testWalkStepWorldSim.obj
 0001:000df950       _c11_reset_counters_secsc11_testWalkStepWorldSim 100e0950 f   c11_testWalkStepWorldSim.obj
 0001:000df990       _c11_deactivate_secsc11_testWalkStepWorldSim 100e0990 f   c11_testWalkStepWorldSim.obj
 0001:000dfa50       _c11_c11_testWalkStepWorldSim 100e0a50 f   c11_testWalkStepWorldSim.obj
 0001:000e0d70       _c11_gazeCamera            100e1d70 f   c11_testWalkStepWorldSim.obj
 0001:000e19d0       _c11_c_sf_marshallOut      100e29d0 f   c11_testWalkStepWorldSim.obj
 0001:000e1a50       _c11_c_sf_marshallIn       100e2a50 f   c11_testWalkStepWorldSim.obj
 0001:000e1ad0       _c11_f_emlrt_marshallIn    100e2ad0 f   c11_testWalkStepWorldSim.obj
 0001:000e1b20       _c11_f_sf_marshallOut      100e2b20 f   c11_testWalkStepWorldSim.obj
 0001:000e1ba0       _c11_e_sf_marshallIn       100e2ba0 f   c11_testWalkStepWorldSim.obj
 0001:000e1c20       _c11_i_emlrt_marshallIn    100e2c20 f   c11_testWalkStepWorldSim.obj
 0001:000e1cc0       _c11_enter_atomic_c11_testWalkStepWorldSim 100e2cc0 f   c11_testWalkStepWorldSim.obj
 0001:000e1d70       _c11_enter_internal_c11_testWalkStepWorldSim 100e2d70 f   c11_testWalkStepWorldSim.obj
 0001:000e29a0       _c11_d_sf_marshallOut      100e39a0 f   c11_testWalkStepWorldSim.obj
 0001:000e2aa0       _c11_d_sf_marshallIn       100e3aa0 f   c11_testWalkStepWorldSim.obj
 0001:000e2b90       _c11_h_emlrt_marshallIn    100e3b90 f   c11_testWalkStepWorldSim.obj
 0001:000e2c20       _c11_e_sf_marshallOut      100e3c20 f   c11_testWalkStepWorldSim.obj
 0001:000e2ce0       _c11_exit_internal_c11_testWalkStepWorldSim 100e3ce0 f   c11_testWalkStepWorldSim.obj
 0001:000e3240       _c11_initc11_testWalkStepWorldSim 100e4240 f   c11_testWalkStepWorldSim.obj
 0001:000e33b0       _c11_insertQueuec11_testWalkStepWorldSim 100e43b0 f   c11_testWalkStepWorldSim.obj
 0001:000e41f0       _c11_sf_marshallOut        100e51f0 f   c11_testWalkStepWorldSim.obj
 0001:000e4380       _c11_sf_marshallIn         100e5380 f   c11_testWalkStepWorldSim.obj
 0001:000e44a0       _c11_b_emlrt_marshallIn    100e54a0 f   c11_testWalkStepWorldSim.obj
 0001:000e4540       _c11_b_sf_marshallOut      100e5540 f   c11_testWalkStepWorldSim.obj
 0001:000e4640       _c11_b_sf_marshallIn       100e5640 f   c11_testWalkStepWorldSim.obj
 0001:000e4730       _c11_d_emlrt_marshallIn    100e5730 f   c11_testWalkStepWorldSim.obj
 0001:000e47e0       _c11_smileTablec11_testWalkStepWorldSim 100e57e0 f   c11_testWalkStepWorldSim.obj
 0001:000e56c0       _c11_encStr2Arr            100e66c0 f   c11_testWalkStepWorldSim.obj
 0001:000e5c50       _c11_g_sf_marshallOut      100e6c50 f   c11_testWalkStepWorldSim.obj
 0001:000e5d60       _c11_h_sf_marshallOut      100e6d60 f   c11_testWalkStepWorldSim.obj
 0001:000e5e60       _c11_i_sf_marshallOut      100e6e60 f   c11_testWalkStepWorldSim.obj
 0001:000e5f50       _c11_j_sf_marshallOut      100e6f50 f   c11_testWalkStepWorldSim.obj
 0001:000e6180       _c11_updateDataWrittenToVector 100e7180 f   c11_testWalkStepWorldSim.obj
 0001:000e61d0       _c11_errorIfDataNotWrittenToFcn 100e71d0 f   c11_testWalkStepWorldSim.obj
 0001:000e6250       _c11_set_P                 100e7250 f   c11_testWalkStepWorldSim.obj
 0001:000e62e0       _c11_get_STATE_GO          100e72e0 f   c11_testWalkStepWorldSim.obj
 0001:000e6370       _c11_get_STATE_READY       100e7370 f   c11_testWalkStepWorldSim.obj
 0001:000e6400       _c11_set_avert             100e7400 f   c11_testWalkStepWorldSim.obj
 0001:000e6490       _c11_get_bmlsM             100e7490 f   c11_testWalkStepWorldSim.obj
 0001:000e6520       _c11_set_bmlsM             100e7520 f   c11_testWalkStepWorldSim.obj
 0001:000e6fc0       _get_sim_state_c11_testWalkStepWorldSim 100e7fc0 f   c11_testWalkStepWorldSim.obj
 0001:000e7520       _sf_get_sim_state_info_c11_testWalkStepWorldSim 100e8520 f   c11_testWalkStepWorldSim.obj
 0001:000e76a0       _set_sim_state_c11_testWalkStepWorldSim 100e86a0 f   c11_testWalkStepWorldSim.obj
 0001:000e7a00       _c11_update_debugger_state_c11_testWalkStepWorldSim 100e8a00 f   c11_testWalkStepWorldSim.obj
 0001:000e7e40       _c11_emlrt_marshallIn      100e8e40 f   c11_testWalkStepWorldSim.obj
 0001:000e7e90       _c11_c_emlrt_marshallIn    100e8e90 f   c11_testWalkStepWorldSim.obj
 0001:000e7ee0       _c11_e_emlrt_marshallIn    100e8ee0 f   c11_testWalkStepWorldSim.obj
 0001:000e7f30       _c11_g_emlrt_marshallIn    100e8f30 f   c11_testWalkStepWorldSim.obj
 0001:000e7f80       _c11_l_emlrt_marshallIn    100e8f80 f   c11_testWalkStepWorldSim.obj
 0001:000e7fd0       _c11_m_emlrt_marshallIn    100e8fd0 f   c11_testWalkStepWorldSim.obj
 0001:000e8020       _c11_n_emlrt_marshallIn    100e9020 f   c11_testWalkStepWorldSim.obj
 0001:000e8070       _c11_o_emlrt_marshallIn    100e9070 f   c11_testWalkStepWorldSim.obj
 0001:000e80c0       _c11_p_emlrt_marshallIn    100e90c0 f   c11_testWalkStepWorldSim.obj
 0001:000e8120       _c11_q_emlrt_marshallIn    100e9120 f   c11_testWalkStepWorldSim.obj
 0001:000e81c0       _mdlProcessParameters_c11_testWalkStepWorldSim 100e91c0 f   c11_testWalkStepWorldSim.obj
 0001:000e8270       _initialize_params_c11_testWalkStepWorldSim 100e9270 f   c11_testWalkStepWorldSim.obj
 0001:000e8280       _mdlSetWorkWidths_c11_testWalkStepWorldSim 100e9280 f   c11_testWalkStepWorldSim.obj
 0001:000e8620       _sf_get_instance_specialization 100e9620 f   c11_testWalkStepWorldSim.obj
 0001:000e8630       _mdlStart_c11_testWalkStepWorldSim 100e9630 f   c11_testWalkStepWorldSim.obj
 0001:000e87d0       _init_dsm_address_info     100e97d0 f   c11_testWalkStepWorldSim.obj
 0001:000e8ca0       _chart_debug_initialization 100e9ca0 f   c11_testWalkStepWorldSim.obj
 0001:000eac20       _init_script_number_translation 100ebc20 f   c11_testWalkStepWorldSim.obj
 0001:000eac60       _sf_opaque_initialize_c11_testWalkStepWorldSim 100ebc60 f   c11_testWalkStepWorldSim.obj
 0001:000eac90       _initialize_c11_testWalkStepWorldSim 100ebc90 f   c11_testWalkStepWorldSim.obj
 0001:000eaca0       _sf_opaque_enable_c11_testWalkStepWorldSim 100ebca0 f   c11_testWalkStepWorldSim.obj
 0001:000eacc0       _enable_c11_testWalkStepWorldSim 100ebcc0 f   c11_testWalkStepWorldSim.obj
 0001:000eacd0       _sf_opaque_disable_c11_testWalkStepWorldSim 100ebcd0 f   c11_testWalkStepWorldSim.obj
 0001:000eacf0       _disable_c11_testWalkStepWorldSim 100ebcf0 f   c11_testWalkStepWorldSim.obj
 0001:000ead00       _sf_opaque_gateway_c11_testWalkStepWorldSim 100ebd00 f   c11_testWalkStepWorldSim.obj
 0001:000ead20       _sf_gateway_c11_testWalkStepWorldSim 100ebd20 f   c11_testWalkStepWorldSim.obj
 0001:000ead40       _c11_set_sim_state_side_effects_c11_testWalkStepWorldSim 100ebd40 f   c11_testWalkStepWorldSim.obj
 0001:000eae80       _sf_opaque_get_sim_state_c11_testWalkStepWorldSim 100ebe80 f   c11_testWalkStepWorldSim.obj
 0001:000eae90       _sf_opaque_set_sim_state_c11_testWalkStepWorldSim 100ebe90 f   c11_testWalkStepWorldSim.obj
 0001:000eaea0       _sf_opaque_terminate_c11_testWalkStepWorldSim 100ebea0 f   c11_testWalkStepWorldSim.obj
 0001:000eaf30       _finalize_c11_testWalkStepWorldSim 100ebf30 f   c11_testWalkStepWorldSim.obj
 0001:000eaf50       _sf_opaque_init_subchart_simstructs 100ebf50 f   c11_testWalkStepWorldSim.obj
 0001:000eaf70       _initSimStructsc11_testWalkStepWorldSim 100ebf70 f   c11_testWalkStepWorldSim.obj
 0001:000eaf80       _mdlRTW_c11_testWalkStepWorldSim 100ebf80 f   c11_testWalkStepWorldSim.obj
 0001:000eb010       _c17_info_helper           100ec010 f   c17_testWalkStepWorldSim.obj
 0001:000eb5c0       _c17_emlrt_marshallOut     100ec5c0 f   c17_testWalkStepWorldSim.obj
 0001:000eb620       _c17_b_emlrt_marshallOut   100ec620 f   c17_testWalkStepWorldSim.obj
 0001:000ecb10       _get_sim_state_c17_testWalkStepWorldSim 100edb10 f   c17_testWalkStepWorldSim.obj
 0001:000ecc90       _sf_get_sim_state_info_c17_testWalkStepWorldSim 100edc90 f   c17_testWalkStepWorldSim.obj
 0001:000ece10       _set_sim_state_c17_testWalkStepWorldSim 100ede10 f   c17_testWalkStepWorldSim.obj
 0001:000ecf40       _c17_update_debugger_state_c17_testWalkStepWorldSim 100edf40 f   c17_testWalkStepWorldSim.obj
 0001:000ecf50       _c17_emlrt_marshallIn      100edf50 f   c17_testWalkStepWorldSim.obj
 0001:000ecfa0       _c17_b_emlrt_marshallIn    100edfa0 f   c17_testWalkStepWorldSim.obj
 0001:000ed040       _c17_e_emlrt_marshallIn    100ee040 f   c17_testWalkStepWorldSim.obj
 0001:000ed090       _c17_f_emlrt_marshallIn    100ee090 f   c17_testWalkStepWorldSim.obj
 0001:000ed140       _mdlProcessParameters_c17_testWalkStepWorldSim 100ee140 f   c17_testWalkStepWorldSim.obj
 0001:000ed1f0       _initialize_params_c17_testWalkStepWorldSim 100ee1f0 f   c17_testWalkStepWorldSim.obj
 0001:000ed200       _mdlSetWorkWidths_c17_testWalkStepWorldSim 100ee200 f   c17_testWalkStepWorldSim.obj
 0001:000ed7a0       _sf_get_instance_specialization 100ee7a0 f   c17_testWalkStepWorldSim.obj
 0001:000ed7b0       _mdlStart_c17_testWalkStepWorldSim 100ee7b0 f   c17_testWalkStepWorldSim.obj
 0001:000ed950       _init_dsm_address_info     100ee950 f   c17_testWalkStepWorldSim.obj
 0001:000ed960       _chart_debug_initialization 100ee960 f   c17_testWalkStepWorldSim.obj
 0001:000ee930       _init_script_number_translation 100ef930 f   c17_testWalkStepWorldSim.obj
 0001:000ee940       _c17_sf_marshallOut        100ef940 f   c17_testWalkStepWorldSim.obj
 0001:000eea40       _c17_sf_marshallIn         100efa40 f   c17_testWalkStepWorldSim.obj
 0001:000eeb00       _c17_b_sf_marshallOut      100efb00 f   c17_testWalkStepWorldSim.obj
 0001:000eeb80       _sf_opaque_initialize_c17_testWalkStepWorldSim 100efb80 f   c17_testWalkStepWorldSim.obj
 0001:000eebb0       _initialize_c17_testWalkStepWorldSim 100efbb0 f   c17_testWalkStepWorldSim.obj
 0001:000eebe0       _sf_opaque_enable_c17_testWalkStepWorldSim 100efbe0 f   c17_testWalkStepWorldSim.obj
 0001:000eec00       _enable_c17_testWalkStepWorldSim 100efc00 f   c17_testWalkStepWorldSim.obj
 0001:000eec20       _sf_opaque_disable_c17_testWalkStepWorldSim 100efc20 f   c17_testWalkStepWorldSim.obj
 0001:000eec40       _disable_c17_testWalkStepWorldSim 100efc40 f   c17_testWalkStepWorldSim.obj
 0001:000eec60       _sf_opaque_gateway_c17_testWalkStepWorldSim 100efc60 f   c17_testWalkStepWorldSim.obj
 0001:000eec80       _sf_gateway_c17_testWalkStepWorldSim 100efc80 f   c17_testWalkStepWorldSim.obj
 0001:000f0070       _c17_b_sf_marshallIn       100f1070 f   c17_testWalkStepWorldSim.obj
 0001:000f00f0       _c17_c_emlrt_marshallIn    100f10f0 f   c17_testWalkStepWorldSim.obj
 0001:000f0140       _sf_opaque_get_sim_state_c17_testWalkStepWorldSim 100f1140 f   c17_testWalkStepWorldSim.obj
 0001:000f0160       _sf_opaque_set_sim_state_c17_testWalkStepWorldSim 100f1160 f   c17_testWalkStepWorldSim.obj
 0001:000f0180       _sf_opaque_terminate_c17_testWalkStepWorldSim 100f1180 f   c17_testWalkStepWorldSim.obj
 0001:000f0210       _finalize_c17_testWalkStepWorldSim 100f1210 f   c17_testWalkStepWorldSim.obj
 0001:000f0220       _sf_opaque_init_subchart_simstructs 100f1220 f   c17_testWalkStepWorldSim.obj
 0001:000f0240       _initSimStructsc17_testWalkStepWorldSim 100f1240 f   c17_testWalkStepWorldSim.obj
 0001:000f0250       _mdlRTW_c17_testWalkStepWorldSim 100f1250 f   c17_testWalkStepWorldSim.obj
 0001:000f0760       _get_sim_state_c18_testWalkStepWorldSim 100f1760 f   c18_testWalkStepWorldSim.obj
 0001:000f0880       _sf_get_sim_state_info_c18_testWalkStepWorldSim 100f1880 f   c18_testWalkStepWorldSim.obj
 0001:000f0a00       _set_sim_state_c18_testWalkStepWorldSim 100f1a00 f   c18_testWalkStepWorldSim.obj
 0001:000f0ac0       _c18_update_debugger_state_c18_testWalkStepWorldSim 100f1ac0 f   c18_testWalkStepWorldSim.obj
 0001:000f0ad0       _c18_emlrt_marshallIn      100f1ad0 f   c18_testWalkStepWorldSim.obj
 0001:000f0b20       _c18_b_emlrt_marshallIn    100f1b20 f   c18_testWalkStepWorldSim.obj
 0001:000f0b70       _c18_e_emlrt_marshallIn    100f1b70 f   c18_testWalkStepWorldSim.obj
 0001:000f0bc0       _c18_f_emlrt_marshallIn    100f1bc0 f   c18_testWalkStepWorldSim.obj
 0001:000f0c70       _mdlProcessParameters_c18_testWalkStepWorldSim 100f1c70 f   c18_testWalkStepWorldSim.obj
 0001:000f0d20       _initialize_params_c18_testWalkStepWorldSim 100f1d20 f   c18_testWalkStepWorldSim.obj
 0001:000f0d30       _mdlSetWorkWidths_c18_testWalkStepWorldSim 100f1d30 f   c18_testWalkStepWorldSim.obj
 0001:000f10b0       _sf_get_instance_specialization 100f20b0 f   c18_testWalkStepWorldSim.obj
 0001:000f10c0       _mdlStart_c18_testWalkStepWorldSim 100f20c0 f   c18_testWalkStepWorldSim.obj
 0001:000f1260       _init_dsm_address_info     100f2260 f   c18_testWalkStepWorldSim.obj
 0001:000f1270       _chart_debug_initialization 100f2270 f   c18_testWalkStepWorldSim.obj
 0001:000f18c0       _init_script_number_translation 100f28c0 f   c18_testWalkStepWorldSim.obj
 0001:000f18d0       _c18_sf_marshallOut        100f28d0 f   c18_testWalkStepWorldSim.obj
 0001:000f1950       _c18_sf_marshallIn         100f2950 f   c18_testWalkStepWorldSim.obj
 0001:000f19d0       _sf_opaque_initialize_c18_testWalkStepWorldSim 100f29d0 f   c18_testWalkStepWorldSim.obj
 0001:000f1a00       _initialize_c18_testWalkStepWorldSim 100f2a00 f   c18_testWalkStepWorldSim.obj
 0001:000f1a30       _sf_opaque_enable_c18_testWalkStepWorldSim 100f2a30 f   c18_testWalkStepWorldSim.obj
 0001:000f1a50       _enable_c18_testWalkStepWorldSim 100f2a50 f   c18_testWalkStepWorldSim.obj
 0001:000f1a70       _sf_opaque_disable_c18_testWalkStepWorldSim 100f2a70 f   c18_testWalkStepWorldSim.obj
 0001:000f1a90       _disable_c18_testWalkStepWorldSim 100f2a90 f   c18_testWalkStepWorldSim.obj
 0001:000f1ab0       _sf_opaque_gateway_c18_testWalkStepWorldSim 100f2ab0 f   c18_testWalkStepWorldSim.obj
 0001:000f1ad0       _sf_gateway_c18_testWalkStepWorldSim 100f2ad0 f   c18_testWalkStepWorldSim.obj
 0001:000f2920       _c18_b_sf_marshallOut      100f3920 f   c18_testWalkStepWorldSim.obj
 0001:000f29a0       _c18_b_sf_marshallIn       100f39a0 f   c18_testWalkStepWorldSim.obj
 0001:000f2a20       _c18_c_emlrt_marshallIn    100f3a20 f   c18_testWalkStepWorldSim.obj
 0001:000f2a70       _sf_opaque_get_sim_state_c18_testWalkStepWorldSim 100f3a70 f   c18_testWalkStepWorldSim.obj
 0001:000f2a90       _sf_opaque_set_sim_state_c18_testWalkStepWorldSim 100f3a90 f   c18_testWalkStepWorldSim.obj
 0001:000f2ab0       _sf_opaque_terminate_c18_testWalkStepWorldSim 100f3ab0 f   c18_testWalkStepWorldSim.obj
 0001:000f2b40       _finalize_c18_testWalkStepWorldSim 100f3b40 f   c18_testWalkStepWorldSim.obj
 0001:000f2b50       _sf_opaque_init_subchart_simstructs 100f3b50 f   c18_testWalkStepWorldSim.obj
 0001:000f2b70       _initSimStructsc18_testWalkStepWorldSim 100f3b70 f   c18_testWalkStepWorldSim.obj
 0001:000f2b80       _mdlRTW_c18_testWalkStepWorldSim 100f3b80 f   c18_testWalkStepWorldSim.obj
 0001:000f2c20       _c20_info_helper           100f3c20 f   c20_testWalkStepWorldSim.obj
 0001:000f3950       _c20_emlrt_marshallOut     100f4950 f   c20_testWalkStepWorldSim.obj
 0001:000f39b0       _c20_b_emlrt_marshallOut   100f49b0 f   c20_testWalkStepWorldSim.obj
 0001:000f3a30       _c20_activate_secsc20_testWalkStepWorldSim 100f4a30 f   c20_testWalkStepWorldSim.obj
 0001:000f3ac0       _c20_increment_counters_secsc20_testWalkStepWorldSim 100f4ac0 f   c20_testWalkStepWorldSim.obj
 0001:000f3b20       _c20_reset_counters_secsc20_testWalkStepWorldSim 100f4b20 f   c20_testWalkStepWorldSim.obj
 0001:000f3b60       _c20_deactivate_secsc20_testWalkStepWorldSim 100f4b60 f   c20_testWalkStepWorldSim.obj
 0001:000f3c20       _c20_c20_testWalkStepWorldSim 100f4c20 f   c20_testWalkStepWorldSim.obj
 0001:000f5420       _c20_gazeCamera            100f6420 f   c20_testWalkStepWorldSim.obj
 0001:000f5b50       _c20_wave                  100f6b50 f   c20_testWalkStepWorldSim.obj
 0001:000f7d00       _c20_enter_atomic_gazeCamera 100f8d00 f   c20_testWalkStepWorldSim.obj
 0001:000f8170       _c20_enter_atomic_gazeCamera1 100f9170 f   c20_testWalkStepWorldSim.obj
 0001:000f85d0       _c20_gazeCamera1           100f95d0 f   c20_testWalkStepWorldSim.obj
 0001:000f8d60       _c20_enter_atomic_waveLeftHand 100f9d60 f   c20_testWalkStepWorldSim.obj
 0001:000f91a0       _c20_enter_atomic_waveBothHands 100fa1a0 f   c20_testWalkStepWorldSim.obj
 0001:000f9610       _c20_enter_atomic_gazeCamera2 100fa610 f   c20_testWalkStepWorldSim.obj
 0001:000f9a70       _c20_b_sf_marshallOut      100faa70 f   c20_testWalkStepWorldSim.obj
 0001:000f9af0       _c20_b_sf_marshallIn       100faaf0 f   c20_testWalkStepWorldSim.obj
 0001:000f9b70       _c20_d_emlrt_marshallIn    100fab70 f   c20_testWalkStepWorldSim.obj
 0001:000f9bc0       _c20_c_sf_marshallOut      100fabc0 f   c20_testWalkStepWorldSim.obj
 0001:000f9c40       _c20_c_sf_marshallIn       100fac40 f   c20_testWalkStepWorldSim.obj
 0001:000f9cc0       _c20_e_emlrt_marshallIn    100facc0 f   c20_testWalkStepWorldSim.obj
 0001:000f9d60       _c20_enter_atomic_c20_testWalkStepWorldSim 100fad60 f   c20_testWalkStepWorldSim.obj
 0001:000f9e10       _c20_enter_internal_c20_testWalkStepWorldSim 100fae10 f   c20_testWalkStepWorldSim.obj
 0001:000fab30       _c20_d_sf_marshallOut      100fbb30 f   c20_testWalkStepWorldSim.obj
 0001:000fac60       _c20_d_sf_marshallIn       100fbc60 f   c20_testWalkStepWorldSim.obj
 0001:000fad30       _c20_g_emlrt_marshallIn    100fbd30 f   c20_testWalkStepWorldSim.obj
 0001:000fadc0       _c20_p_sf_marshallOut      100fbdc0 f   c20_testWalkStepWorldSim.obj
 0001:000fae80       _c20_exit_internal_c20_testWalkStepWorldSim 100fbe80 f   c20_testWalkStepWorldSim.obj
 0001:000fb5b0       _c20_initc20_testWalkStepWorldSim 100fc5b0 f   c20_testWalkStepWorldSim.obj
 0001:000fb770       _c20_wavePoseBradTablec20_testWalkStepWorldSim 100fc770 f   c20_testWalkStepWorldSim.obj
 0001:000fd330       _c20_encStr2Arr            100fe330 f   c20_testWalkStepWorldSim.obj
 0001:000fd870       _c20_b_encStr2Arr          100fe870 f   c20_testWalkStepWorldSim.obj
 0001:000fddd0       _c20_c_encStr2Arr          100fedd0 f   c20_testWalkStepWorldSim.obj
 0001:000fe320       _c20_d_encStr2Arr          100ff320 f   c20_testWalkStepWorldSim.obj
 0001:000fe870       _c20_sf_marshallOut        100ff870 f   c20_testWalkStepWorldSim.obj
 0001:000fe9a0       _c20_sf_marshallIn         100ff9a0 f   c20_testWalkStepWorldSim.obj
 0001:000fea70       _c20_b_emlrt_marshallIn    100ffa70 f   c20_testWalkStepWorldSim.obj
 0001:000feb00       _c20_e_sf_marshallOut      100ffb00 f   c20_testWalkStepWorldSim.obj
 0001:000fec10       _c20_f_sf_marshallOut      100ffc10 f   c20_testWalkStepWorldSim.obj
 0001:000fed40       _c20_g_sf_marshallOut      100ffd40 f   c20_testWalkStepWorldSim.obj
 0001:000fee50       _c20_h_sf_marshallOut      100ffe50 f   c20_testWalkStepWorldSim.obj
 0001:000fef80       _c20_i_sf_marshallOut      100fff80 f   c20_testWalkStepWorldSim.obj
 0001:000ff090       _c20_j_sf_marshallOut      10100090 f   c20_testWalkStepWorldSim.obj
 0001:000ff1c0       _c20_k_sf_marshallOut      101001c0 f   c20_testWalkStepWorldSim.obj
 0001:000ff2d0       _c20_l_sf_marshallOut      101002d0 f   c20_testWalkStepWorldSim.obj
 0001:000ff400       _c20_m_sf_marshallOut      10100400 f   c20_testWalkStepWorldSim.obj
 0001:000ff510       _c20_n_sf_marshallOut      10100510 f   c20_testWalkStepWorldSim.obj
 0001:000ff640       _c20_insertQueuec20_testWalkStepWorldSim 10100640 f   c20_testWalkStepWorldSim.obj
 0001:001006d0       _c20_o_sf_marshallOut      101016d0 f   c20_testWalkStepWorldSim.obj
 0001:00100880       _c20_e_sf_marshallIn       10101880 f   c20_testWalkStepWorldSim.obj
 0001:00100980       _c20_i_emlrt_marshallIn    10101980 f   c20_testWalkStepWorldSim.obj
 0001:00100b50       _c20_updateDataWrittenToVector 10101b50 f   c20_testWalkStepWorldSim.obj
 0001:00100ba0       _c20_errorIfDataNotWrittenToFcn 10101ba0 f   c20_testWalkStepWorldSim.obj
 0001:00100c20       _c20_set_P                 10101c20 f   c20_testWalkStepWorldSim.obj
 0001:00100cb0       _c20_set_STATE_BEFORE      10101cb0 f   c20_testWalkStepWorldSim.obj
 0001:00100d40       _c20_get_STATE_OVER        10101d40 f   c20_testWalkStepWorldSim.obj
 0001:00100dd0       _c20_set_STATE_OVER        10101dd0 f   c20_testWalkStepWorldSim.obj
 0001:00100e60       _c20_get_avert             10101e60 f   c20_testWalkStepWorldSim.obj
 0001:00100ef0       _c20_set_avert             10101ef0 f   c20_testWalkStepWorldSim.obj
 0001:00100f80       _c20_get_bmlsM             10101f80 f   c20_testWalkStepWorldSim.obj
 0001:00101010       _c20_set_bmlsM             10102010 f   c20_testWalkStepWorldSim.obj
 0001:00101bc0       _get_sim_state_c20_testWalkStepWorldSim 10102bc0 f   c20_testWalkStepWorldSim.obj
 0001:00102160       _sf_get_sim_state_info_c20_testWalkStepWorldSim 10103160 f   c20_testWalkStepWorldSim.obj
 0001:001022e0       _set_sim_state_c20_testWalkStepWorldSim 101032e0 f   c20_testWalkStepWorldSim.obj
 0001:00102640       _c20_update_debugger_state_c20_testWalkStepWorldSim 10103640 f   c20_testWalkStepWorldSim.obj
 0001:00102c80       _c20_emlrt_marshallIn      10103c80 f   c20_testWalkStepWorldSim.obj
 0001:00102cd0       _c20_c_emlrt_marshallIn    10103cd0 f   c20_testWalkStepWorldSim.obj
 0001:00102d20       _c20_f_emlrt_marshallIn    10103d20 f   c20_testWalkStepWorldSim.obj
 0001:00102d70       _c20_h_emlrt_marshallIn    10103d70 f   c20_testWalkStepWorldSim.obj
 0001:00102dc0       _c20_l_emlrt_marshallIn    10103dc0 f   c20_testWalkStepWorldSim.obj
 0001:00102e10       _c20_m_emlrt_marshallIn    10103e10 f   c20_testWalkStepWorldSim.obj
 0001:00102e60       _c20_n_emlrt_marshallIn    10103e60 f   c20_testWalkStepWorldSim.obj
 0001:00102ec0       _c20_o_emlrt_marshallIn    10103ec0 f   c20_testWalkStepWorldSim.obj
 0001:00102f60       _mdlProcessParameters_c20_testWalkStepWorldSim 10103f60 f   c20_testWalkStepWorldSim.obj
 0001:00103010       _initialize_params_c20_testWalkStepWorldSim 10104010 f   c20_testWalkStepWorldSim.obj
 0001:00103020       _mdlSetWorkWidths_c20_testWalkStepWorldSim 10104020 f   c20_testWalkStepWorldSim.obj
 0001:001033c0       _sf_get_instance_specialization 101043c0 f   c20_testWalkStepWorldSim.obj
 0001:001033d0       _mdlStart_c20_testWalkStepWorldSim 101043d0 f   c20_testWalkStepWorldSim.obj
 0001:00103570       _init_dsm_address_info     10104570 f   c20_testWalkStepWorldSim.obj
 0001:00103940       _chart_debug_initialization 10104940 f   c20_testWalkStepWorldSim.obj
 0001:00106350       _init_script_number_translation 10107350 f   c20_testWalkStepWorldSim.obj
 0001:00106390       _sf_opaque_initialize_c20_testWalkStepWorldSim 10107390 f   c20_testWalkStepWorldSim.obj
 0001:001063c0       _initialize_c20_testWalkStepWorldSim 101073c0 f   c20_testWalkStepWorldSim.obj
 0001:001063d0       _sf_opaque_enable_c20_testWalkStepWorldSim 101073d0 f   c20_testWalkStepWorldSim.obj
 0001:001063f0       _enable_c20_testWalkStepWorldSim 101073f0 f   c20_testWalkStepWorldSim.obj
 0001:00106400       _sf_opaque_disable_c20_testWalkStepWorldSim 10107400 f   c20_testWalkStepWorldSim.obj
 0001:00106420       _disable_c20_testWalkStepWorldSim 10107420 f   c20_testWalkStepWorldSim.obj
 0001:00106430       _sf_opaque_gateway_c20_testWalkStepWorldSim 10107430 f   c20_testWalkStepWorldSim.obj
 0001:00106450       _sf_gateway_c20_testWalkStepWorldSim 10107450 f   c20_testWalkStepWorldSim.obj
 0001:00106470       _c20_set_sim_state_side_effects_c20_testWalkStepWorldSim 10107470 f   c20_testWalkStepWorldSim.obj
 0001:00106710       _sf_opaque_get_sim_state_c20_testWalkStepWorldSim 10107710 f   c20_testWalkStepWorldSim.obj
 0001:00106720       _sf_opaque_set_sim_state_c20_testWalkStepWorldSim 10107720 f   c20_testWalkStepWorldSim.obj
 0001:00106730       _sf_opaque_terminate_c20_testWalkStepWorldSim 10107730 f   c20_testWalkStepWorldSim.obj
 0001:001067c0       _finalize_c20_testWalkStepWorldSim 101077c0 f   c20_testWalkStepWorldSim.obj
 0001:001067e0       _sf_opaque_init_subchart_simstructs 101077e0 f   c20_testWalkStepWorldSim.obj
 0001:00106800       _initSimStructsc20_testWalkStepWorldSim 10107800 f   c20_testWalkStepWorldSim.obj
 0001:00106810       _mdlRTW_c20_testWalkStepWorldSim 10107810 f   c20_testWalkStepWorldSim.obj
 0001:00106f70       _getChartInfoFromSimStruct 10107f70 f   testWalkStepWorldSim_sfun_registry.obj
 0001:00108070       __ssFatalError             10109070 f   testWalkStepWorldSim_sfun_registry.obj
 0001:0010a3d0       _ProcessMexSfunctionCmdLineCall 1010b3d0 f   testWalkStepWorldSim_sfun_registry.obj
 0001:0010a4f0       _sf_debug_api_wrapper      1010b4f0 f   testWalkStepWorldSim_sfun_registry.obj
 0001:0010a520       _mdlStart                  1010b520 f   testWalkStepWorldSim_sfun_registry.obj
 0001:0010a540       _mdl_start_processing      1010b540 f   testWalkStepWorldSim_sfun_registry.obj
 0001:0010a5b0       _mdlTerminate              1010b5b0 f   testWalkStepWorldSim_sfun_registry.obj
 0001:0010a5d0       _mdl_terminate_processing  1010b5d0 f   testWalkStepWorldSim_sfun_registry.obj
 0001:0010a640       _mdlInitializeSampleTimes  1010b640 f   testWalkStepWorldSim_sfun_registry.obj
 0001:0010a660       _mdlZeroCrossings          1010b660 f   testWalkStepWorldSim_sfun_registry.obj
 0001:0010a680       _mdl_zeroCrossings_processing 1010b680 f   testWalkStepWorldSim_sfun_registry.obj
 0001:0010a6b0       _mdlDerivatives            1010b6b0 f   testWalkStepWorldSim_sfun_registry.obj
 0001:0010a6d0       _mdl_derivatives_processing 1010b6d0 f   testWalkStepWorldSim_sfun_registry.obj
 0001:0010a710       _mdlInitializeConditions   1010b710 f   testWalkStepWorldSim_sfun_registry.obj
 0001:0010a730       _mdl_initialize_conditions_processing 1010b730 f   testWalkStepWorldSim_sfun_registry.obj
 0001:0010a770       _mdlEnable                 1010b770 f   testWalkStepWorldSim_sfun_registry.obj
 0001:0010a790       _mdl_enable_processing     1010b790 f   testWalkStepWorldSim_sfun_registry.obj
 0001:0010a7c0       _mdlDisable                1010b7c0 f   testWalkStepWorldSim_sfun_registry.obj
 0001:0010a7e0       _mdl_disable_processing    1010b7e0 f   testWalkStepWorldSim_sfun_registry.obj
 0001:0010a810       _mdlOutputs                1010b810 f   testWalkStepWorldSim_sfun_registry.obj
 0001:0010a830       _mdl_outputs_processing    1010b830 f   testWalkStepWorldSim_sfun_registry.obj
 0001:0010a900       _mdl_outputs_continuous_legacy 1010b900 f   testWalkStepWorldSim_sfun_registry.obj
 0001:0010a9d0       _mdlGetTimeOfNextVarHit    1010b9d0 f   testWalkStepWorldSim_sfun_registry.obj
 0001:0010aa10       __ProcessMexSfunctionCmdLineCall 1010ba10 f   testWalkStepWorldSim_sfun_registry.obj
 0001:0010b030       _mdlSetWorkWidths          1010c030 f   testWalkStepWorldSim_sfun_registry.obj
 0001:0010b050       _mdlProcessParameters      1010c050 f   testWalkStepWorldSim_sfun_registry.obj
 0001:0010b070       _mdlInitializeSizes        1010c070 f   testWalkStepWorldSim_sfun_registry.obj
 0001:0010b090       _mdlExtModeExec            1010c090 f   testWalkStepWorldSim_sfun_registry.obj
 0001:0010b0b0       _mdl_ext_mode_exec_processing 1010c0b0 f   testWalkStepWorldSim_sfun_registry.obj
 0001:0010b0f0       _mdlRTW                    1010c0f0 f   testWalkStepWorldSim_sfun_registry.obj
 0001:0010b120       __CreateSimStruct          1010c120 f   testWalkStepWorldSim_sfun_registry.obj
 0001:0010b250       __RegNumInputPortsCB       1010c250 f   testWalkStepWorldSim_sfun_registry.obj
 0001:0010b2b0       __RegNumOutputPortsCB      1010c2b0 f   testWalkStepWorldSim_sfun_registry.obj
 0001:0010b871       _pre_c_init                1010c871 f   MSVCRT:crtdll.obj
 0001:0010bac9       ___DllMainCRTStartup       1010cac9 f   MSVCRT:crtdll.obj
