 untitled1_sfun

 Timestamp is 555e6d43 (Thu May 21 16:41:55 2015)

 Preferred load address is 10000000

 Start         Length     Name                   Class
 0001:00000000 0001f2d4H .text                   CODE
 0002:00000000 00000260H .idata$5                DATA
 0002:00000260 00000004H .CRT$XCA                DATA
 0002:00000264 00000004H .CRT$XCZ                DATA
 0002:00000268 00000004H .CRT$XIA                DATA
 0002:0000026c 00000004H .CRT$XIAA               DATA
 0002:00000270 00000004H .CRT$XIC                DATA
 0002:00000274 00000004H .CRT$XIZ                DATA
 0002:00000278 000007a8H .rdata                  DATA
 0002:00000a20 00000004H .rdata$sxdata           DATA
 0002:00000a24 00000004H .rtc$IAA                DATA
 0002:00000a28 00000004H .rtc$IZZ                DATA
 0002:00000a2c 00000004H .rtc$TAA                DATA
 0002:00000a30 00000004H .rtc$TZZ                DATA
 0002:00000a38 00000064H .xdata$x                DATA
 0002:00000a9c 00000078H .idata$2                DATA
 0002:00000b14 00000014H .idata$3                DATA
 0002:00000b28 00000260H .idata$4                DATA
 0002:00000d88 00000db0H .idata$6                DATA
 0002:00001b40 00000054H .edata                  DATA
 0003:00000000 00007140H .data                   DATA
 0003:00007140 00000480H .bss                    DATA

  Address         Publics by Value              Rva+Base       Lib:Object

 0000:00000000       __except_list              00000000     <absolute>
 0000:00000001       ___safe_se_handler_count   00000001     <absolute>
 0000:00009876       __ldused                   00009876     <absolute>
 0000:00009876       __fltused                  00009876     <absolute>
 0000:00000000       ___ImageBase               10000000     <linker-defined>
 0001:00000000       _untitled1_initializer     10001000 f   untitled1_sfun.obj
 0001:00000010       _untitled1_terminator      10001010 f   untitled1_sfun.obj
 0001:00000020       _sf_untitled1_method_dispatcher 10001020 f   untitled1_sfun.obj
 0001:00000090       _sf_untitled1_process_check_sum_call 10001090 f   untitled1_sfun.obj
 0001:00000460       _sf_untitled1_autoinheritance_info 10001460 f   untitled1_sfun.obj
 0001:00000600       _sf_untitled1_get_eml_resolved_functions_info 10001600 f   untitled1_sfun.obj
 0001:00000750       _sf_untitled1_third_party_uses_info 10001750 f   untitled1_sfun.obj
 0001:000008e0       _sf_untitled1_updateBuildInfo_args_info 100018e0 f   untitled1_sfun.obj
 0001:00000a70       _untitled1_debug_initialize 10001a70 f   untitled1_sfun.obj
 0001:00000ad0       _untitled1_register_exported_symbols 10001ad0 f   untitled1_sfun.obj
 0001:00000ae0       _load_untitled1_optimization_info 10001ae0 f   untitled1_sfun.obj
 0001:00000b20       _unload_untitled1_optimization_info 10001b20 f   untitled1_sfun.obj
 0001:00000b50       _sf_c1_untitled1_get_eml_resolved_functions_info 10001b50 f   c1_untitled1.obj
 0001:00000e50       _sf_c1_untitled1_get_check_sum 10001e50 f   c1_untitled1.obj
 0001:00000eb0       _sf_c1_untitled1_get_autoinheritance_info 10001eb0 f   c1_untitled1.obj
 0001:00002d70       _sf_c1_untitled1_third_party_uses_info 10003d70 f   c1_untitled1.obj
 0001:00002d90       _sf_c1_untitled1_updateBuildInfo_args_info 10003d90 f   c1_untitled1.obj
 0001:00002db0       _sf_internal_get_sim_state_c1_untitled1 10003db0 f   c1_untitled1.obj
 0001:00003df0       _sf_internal_set_sim_state_c1_untitled1 10004df0 f   c1_untitled1.obj
 0001:00004ba0       _c1_untitled1_method_dispatcher 10005ba0 f   c1_untitled1.obj
 0001:000147a0       _sf_c2_untitled1_get_eml_resolved_functions_info 100157a0 f   c2_untitled1.obj
 0001:00014aa0       _sf_c2_untitled1_get_check_sum 10015aa0 f   c2_untitled1.obj
 0001:00014b00       _sf_c2_untitled1_get_autoinheritance_info 10015b00 f   c2_untitled1.obj
 0001:00015310       _sf_c2_untitled1_third_party_uses_info 10016310 f   c2_untitled1.obj
 0001:00015330       _sf_c2_untitled1_updateBuildInfo_args_info 10016330 f   c2_untitled1.obj
 0001:00015350       _sf_internal_get_sim_state_c2_untitled1 10016350 f   c2_untitled1.obj
 0001:00015590       _sf_internal_set_sim_state_c2_untitled1 10016590 f   c2_untitled1.obj
 0001:000157a0       _c2_untitled1_method_dispatcher 100167a0 f   c2_untitled1.obj
 0001:00017b40       _sf_c3_untitled1_get_eml_resolved_functions_info 10018b40 f   c3_untitled1.obj
 0001:00017b90       _sf_c3_untitled1_get_check_sum 10018b90 f   c3_untitled1.obj
 0001:00017bf0       _sf_c3_untitled1_get_autoinheritance_info 10018bf0 f   c3_untitled1.obj
 0001:00017f00       _sf_c3_untitled1_third_party_uses_info 10018f00 f   c3_untitled1.obj
 0001:00017f20       _sf_c3_untitled1_updateBuildInfo_args_info 10018f20 f   c3_untitled1.obj
 0001:00017f40       _sf_internal_get_sim_state_c3_untitled1 10018f40 f   c3_untitled1.obj
 0001:000181e0       _sf_internal_set_sim_state_c3_untitled1 100191e0 f   c3_untitled1.obj
 0001:000184d0       _c3_untitled1_method_dispatcher 100194d0 f   c3_untitled1.obj
 0001:00019a50       _sf_process_check_sum_call 1001aa50 f   untitled1_sfun_registry.obj
 0001:00019a80       _sf_process_autoinheritance_call 1001aa80 f   untitled1_sfun_registry.obj
 0001:00019bc0       _sf_process_get_third_party_uses_info_call 1001abc0 f   untitled1_sfun_registry.obj
 0001:00019d00       _sf_process_get_updateBuildInfo_args_info_call 1001ad00 f   untitled1_sfun_registry.obj
 0001:00019e40       _sf_process_get_eml_resolved_functions_info_call 1001ae40 f   untitled1_sfun_registry.obj
 0001:00019f60       _sf_mex_unlock_call        1001af60 f   untitled1_sfun_registry.obj
 0001:00019ff0       _sf_machine_global_initializer_called 1001aff0 f   untitled1_sfun_registry.obj
 0001:0001a010       _sf_machine_global_method_dispatcher 1001b010 f   untitled1_sfun_registry.obj
 0001:0001a050       _sf_machine_global_terminator 1001b050 f   untitled1_sfun_registry.obj
 0001:0001a090       _sf_register_machine_exported_symbols 1001b090 f   untitled1_sfun_registry.obj
 0001:0001a0b0       _callCustomFcn             1001b0b0 f   untitled1_sfun_registry.obj
 0001:0001a0c0       _sf_machine_global_initializer 1001b0c0 f   untitled1_sfun_registry.obj
 0001:0001a130       _mdlGetSimState            1001b130 f   untitled1_sfun_registry.obj
 0001:0001a190       _mdlSetSimState            1001b190 f   untitled1_sfun_registry.obj
 0001:0001a1c0       __ssSetStateAbsTol         1001b1c0 f   untitled1_sfun_registry.obj
 0001:0001a260       __ssGetAbsTol              1001b260 f   untitled1_sfun_registry.obj
 0001:0001a2b0       __ssSetInputPortMatrixDimensions 1001b2b0 f   untitled1_sfun_registry.obj
 0001:0001a360       __ssSetOutputPortMatrixDimensions 1001b360 f   untitled1_sfun_registry.obj
 0001:0001a410       __ssSetInputPortVectorDimension 1001b410 f   untitled1_sfun_registry.obj
 0001:0001a490       __ssSetOutputPortVectorDimension 1001b490 f   untitled1_sfun_registry.obj
 0001:0001a510       _ssIsRunTimeParamTunable   1001b510 f   untitled1_sfun_registry.obj
 0001:0001a570       _ssGetSFuncBlockHandle     1001b570 f   untitled1_sfun_registry.obj
 0001:0001a5c0       __ssGetCurrentInputPortWidth 1001b5c0 f   untitled1_sfun_registry.obj
 0001:0001a690       __ssGetCurrentOutputPortWidth 1001b690 f   untitled1_sfun_registry.obj
 0001:0001a760       __ssGetCallSystemNumFcnCallDestinations 1001b760 f   untitled1_sfun_registry.obj
 0001:0001a7c0       _ssWarning                 1001b7c0 f   untitled1_sfun_registry.obj
 0001:0001a8a0       _ssGetIsZeroCrossControlDisabled 1001b8a0 f   untitled1_sfun_registry.obj
 0001:0001a900       _ssSetIsInputPortUsedForContZcSignal 1001b900 f   untitled1_sfun_registry.obj
 0001:0001a950       _ssSetZcSignalIsZcElementDisc 1001b950 f   untitled1_sfun_registry.obj
 0001:0001a9d0       _ssSetZcSignalName         1001b9d0 f   untitled1_sfun_registry.obj
 0001:0001aa20       _ssSetZcSignalWidth        1001ba20 f   untitled1_sfun_registry.obj
 0001:0001aa70       _ssSetZcSignalZcEventType  1001ba70 f   untitled1_sfun_registry.obj
 0001:0001aac0       _ssSetZcSignalType         1001bac0 f   untitled1_sfun_registry.obj
 0001:0001ab10       _ssSetZcSignalZcTol        1001bb10 f   untitled1_sfun_registry.obj
 0001:0001ab60       _ssSetZcSignalNeedsEventNotification 1001bb60 f   untitled1_sfun_registry.obj
 0001:0001abb0       _ssCreateAndAddZcSignalInfo 1001bbb0 f   untitled1_sfun_registry.obj
 0001:0001ac10       _ssCloneAndAddZcSignalInfo 1001bc10 f   untitled1_sfun_registry.obj
 0001:0001ac70       _ssGetNumZcSignals         1001bc70 f   untitled1_sfun_registry.obj
 0001:0001acd0       _ssGetZcSignalVector       1001bcd0 f   untitled1_sfun_registry.obj
 0001:0001ad30       _ssGetZcSignalZcEvents     1001bd30 f   untitled1_sfun_registry.obj
 0001:0001ad90       _ssGetZcSignalName         1001bd90 f   untitled1_sfun_registry.obj
 0001:0001adf0       _ssGetZcSignalWidth        1001bdf0 f   untitled1_sfun_registry.obj
 0001:0001ae50       _ssGetZcSignalZcEventType  1001be50 f   untitled1_sfun_registry.obj
 0001:0001aeb0       _ssGetZcSignalType         1001beb0 f   untitled1_sfun_registry.obj
 0001:0001af10       _ssGetZcSignalZcTol        1001bf10 f   untitled1_sfun_registry.obj
 0001:0001af70       _ssGetZcSignalNeedsEventNotification 1001bf70 f   untitled1_sfun_registry.obj
 0001:0001afd0       _ssGetZcSignalIsZcElementDisc 1001bfd0 f   untitled1_sfun_registry.obj
 0001:0001b050       _ssGetIsInputPortElementContinuous 1001c050 f   untitled1_sfun_registry.obj
 0001:0001b0d0       __ssGetInputPortSignalPtrsFcn 1001c0d0 f   untitled1_sfun_registry.obj
 0001:0001b2d0       __ssGetInputPortSignalFcn  1001c2d0 f   untitled1_sfun_registry.obj
 0001:0001b460       __ssSetInputPortDirectFeedThroughFcn 1001c460 f   untitled1_sfun_registry.obj
 0001:0001b590       __ssSetInputPortReusableFcn 1001c590 f   untitled1_sfun_registry.obj
 0001:0001b620       __ssSetOutputPortReusableFcn 1001c620 f   untitled1_sfun_registry.obj
 0001:0001b6b0       _ssGetDTypeIdFromMxArray   1001c6b0 f   untitled1_sfun_registry.obj
 0001:0001b7a0       _ssWriteRTWStr             1001c7a0 f   untitled1_sfun_registry.obj
 0001:0001b7e0       _ssWriteRTWMxVectParam     1001c7e0 f   untitled1_sfun_registry.obj
 0001:0001b820       _ssWriteRTWMx2dMatParam    1001c820 f   untitled1_sfun_registry.obj
 0001:0001b860       _ssWriteRTWNameValuePair   1001c860 f   untitled1_sfun_registry.obj
 0001:0001bbd0       _ssWriteRTWParameters      1001cbd0 f   untitled1_sfun_registry.obj
 0001:0001bf70       _ssWriteRTWParamSettings   1001cf70 f   untitled1_sfun_registry.obj
 0001:0001c420       _ssWriteRTWWorkVect        1001d420 f   untitled1_sfun_registry.obj
 0001:0001c7b0       _mexFunction               1001d7b0 f   untitled1_sfun_registry.obj
 0001:0001e500       _ProcessMexSfunctionEveryCall 1001f500 f   untitled1_sfun_registry.obj
 0001:0001e61e       _sf_debug_set_machine_data_thresholds 1001f61e f   sf_runtime:sf_runtime.dll
 0001:0001e624       _sf_debug_set_machine_event_thresholds 1001f624 f   sf_runtime:sf_runtime.dll
 0001:0001e62a       _sf_debug_initialize_machine 1001f62a f   sf_runtime:sf_runtime.dll
 0001:0001e630       _sf_load_rtw_optimization_info 1001f630 f   sf_runtime:sf_runtime.dll
 0001:0001e636       _sf_mex_emlrtNameCapturePostProcessR2012a 1001f636 f   sf_runtime:sf_runtime.dll
 0001:0001e63c       _sf_mex_assign             1001f63c f   sf_runtime:sf_runtime.dll
 0001:0001e642       _sf_mex_createstruct       1001f642 f   sf_runtime:sf_runtime.dll
 0001:0001e648       _sf_mex_destroy            1001f648 f   sf_runtime:sf_runtime.dll
 0001:0001e64e       _sf_mex_duplicatearraysafe 1001f64e f   sf_runtime:sf_runtime.dll
 0001:0001e654       _sf_mex_createcellmatrix   1001f654 f   sf_runtime:sf_runtime.dll
 0001:0001e65a       _sf_mex_addfield           1001f65a f   sf_runtime:sf_runtime.dll
 0001:0001e660       _sf_mex_create             1001f660 f   sf_runtime:sf_runtime.dll
 0001:0001e666       _sf_mex_error_message      1001f666 f   sf_runtime:sf_runtime.dll
 0001:0001e66c       _sf_mex_call_matlab        1001f66c f   sf_runtime:sf_runtime.dll
 0001:0001e672       _sf_mex_setcell            1001f672 f   sf_runtime:sf_runtime.dll
 0001:0001e678       _sf_mex_decode_encoded_mx_struct_array 1001f678 f   sf_runtime:sf_runtime.dll
 0001:0001e67e       _sf_mex_getcell            1001f67e f   sf_runtime:sf_runtime.dll
 0001:0001e684       _sf_mex_dup                1001f684 f   sf_runtime:sf_runtime.dll
 0001:0001e68a       _sf_debug_animate          1001f68a f   sf_runtime:sf_runtime.dll
 0001:0001e690       _sf_debug_call             1001f690 f   sf_runtime:sf_runtime.dll
 0001:0001e696       _sf_debug_set_honor_breakpoints 1001f696 f   sf_runtime:sf_runtime.dll
 0001:0001e69c       _sf_debug_set_animation    1001f69c f   sf_runtime:sf_runtime.dll
 0001:0001e6a2       _sf_debug_get_animation    1001f6a2 f   sf_runtime:sf_runtime.dll
 0001:0001e6a8       _sf_mex_import             1001f6a8 f   sf_runtime:sf_runtime.dll
 0001:0001e6ae       _sf_set_rtw_dwork_info     1001f6ae f   sf_runtime:sf_runtime.dll
 0001:0001e6b4       _sf_mark_chart_reusable_outputs 1001f6b4 f   sf_runtime:sf_runtime.dll
 0001:0001e6ba       _sf_mark_chart_expressionable_inputs 1001f6ba f   sf_runtime:sf_runtime.dll
 0001:0001e6c0       _sf_mark_output_events_with_multiple_callers 1001f6c0 f   sf_runtime:sf_runtime.dll
 0001:0001e6c6       _sf_update_buildInfo       1001f6c6 f   sf_runtime:sf_runtime.dll
 0001:0001e6cc       _sf_rtw_info_uint_prop     1001f6cc f   sf_runtime:sf_runtime.dll
 0001:0001e6d2       _sf_is_chart_inlinable     1001f6d2 f   sf_runtime:sf_runtime.dll
 0001:0001e6d8       _sim_mode_is_external      1001f6d8 f   sf_runtime:sf_runtime.dll
 0001:0001e6de       _sim_mode_is_rtw_gen       1001f6de f   sf_runtime:sf_runtime.dll
 0001:0001e6e4       _sf_debug_reset_current_state_configuration 1001f6e4 f   sf_runtime:sf_runtime.dll
 0001:0001e6ea       _sf_debug_set_instance_data_value_ptr 1001f6ea f   sf_runtime:sf_runtime.dll
 0001:0001e6f0       _sf_debug_set_chart_data_compiled_props 1001f6f0 f   sf_runtime:sf_runtime.dll
 0001:0001e6f6       _cv_script_init_fcn        1001f6f6 f   sf_runtime:sf_runtime.dll
 0001:0001e6fc       _cv_script_init_script     1001f6fc f   sf_runtime:sf_runtime.dll
 0001:0001e702       _cv_eml_init_if            1001f702 f   sf_runtime:sf_runtime.dll
 0001:0001e708       _cv_eml_init_fcn           1001f708 f   sf_runtime:sf_runtime.dll
 0001:0001e70e       _cv_eml_init_script        1001f70e f   sf_runtime:sf_runtime.dll
 0001:0001e714       _sf_debug_cv_init_trans    1001f714 f   sf_runtime:sf_runtime.dll
 0001:0001e71a       _sf_debug_cv_init_state    1001f71a f   sf_runtime:sf_runtime.dll
 0001:0001e720       _sf_debug_cv_init_chart    1001f720 f   sf_runtime:sf_runtime.dll
 0001:0001e726       _sf_debug_set_chart_state_substate_index 1001f726 f   sf_runtime:sf_runtime.dll
 0001:0001e72c       _sf_debug_set_chart_state_substate_count 1001f72c f   sf_runtime:sf_runtime.dll
 0001:0001e732       _sf_debug_set_chart_substate_index 1001f732 f   sf_runtime:sf_runtime.dll
 0001:0001e738       _sf_debug_set_chart_decomposition 1001f738 f   sf_runtime:sf_runtime.dll
 0001:0001e73e       _sf_debug_set_chart_substate_count 1001f73e f   sf_runtime:sf_runtime.dll
 0001:0001e744       _sf_debug_set_chart_state_info 1001f744 f   sf_runtime:sf_runtime.dll
 0001:0001e74a       _sf_debug_set_chart_event_scope 1001f74a f   sf_runtime:sf_runtime.dll
 0001:0001e750       _sf_debug_set_chart_data_props 1001f750 f   sf_runtime:sf_runtime.dll
 0001:0001e756       _sf_debug_set_chart_event_thresholds 1001f756 f   sf_runtime:sf_runtime.dll
 0001:0001e75c       _sf_debug_set_chart_disable_implicit_casting 1001f75c f   sf_runtime:sf_runtime.dll
 0001:0001e762       _sf_debug_initialize_chart 1001f762 f   sf_runtime:sf_runtime.dll
 0001:0001e768       _sf_debug_set_script_translation 1001f768 f   sf_runtime:sf_runtime.dll
 0001:0001e76e       _sf_debug_get_script_id    1001f76e f   sf_runtime:sf_runtime.dll
 0001:0001e774       _sf_get_time               1001f774 f   sf_runtime:sf_runtime.dll
 0001:0001e77a       _sf_call_output_fcn_enable 1001f77a f   sf_runtime:sf_runtime.dll
 0001:0001e780       _sf_call_output_fcn_disable 1001f780 f   sf_runtime:sf_runtime.dll
 0001:0001e786       _sf_debug_check_for_state_inconsistency 1001f786 f   sf_runtime:sf_runtime.dll
 0001:0001e78c       _sf_debug_symbol_scope_pop 1001f78c f   sf_runtime:sf_runtime.dll
 0001:0001e792       _cv_eml_eval               1001f792 f   sf_runtime:sf_runtime.dll
 0001:0001e798       _sf_debug_symbol_scope_add_eml_importable 1001f798 f   sf_runtime:sf_runtime.dll
 0001:0001e79e       _sf_debug_symbol_scope_push_eml 1001f79e f   sf_runtime:sf_runtime.dll
 0001:0001e7a4       _sf_debug_data_range_wrapper 1001f7a4 f   sf_runtime:sf_runtime.dll
 0001:0001e7aa       _sf_debug_symbol_scope_push 1001f7aa f   sf_runtime:sf_runtime.dll
 0001:0001e7b0       _sf_mex_sub                1001f7b0 f   sf_runtime:sf_runtime.dll
 0001:0001e7b6       _eml_debug_line_call       1001f7b6 f   sf_runtime:sf_runtime.dll
 0001:0001e7bc       _cv_script_eval            1001f7bc f   sf_runtime:sf_runtime.dll
 0001:0001e7c2       _sf_debug_symbol_scope_add_eml 1001f7c2 f   sf_runtime:sf_runtime.dll
 0001:0001e7c8       _sf_debug_eml_data_array_bounds_error_check 1001f7c8 f   sf_runtime:sf_runtime.dll
 0001:0001e7ce       _sf_clear_rtw_identifier   1001f7ce f   sf_runtime:sf_runtime.dll
 0001:0001e7d4       _sf_mex_call_debug         1001f7d4 f   sf_runtime:sf_runtime.dll
 0001:0001e7da       _sf_debug_terminate        1001f7da f   sf_runtime:sf_runtime.dll
 0001:0001e7e0       _sf_debug_create_debug_instance_struct 1001f7e0 f   sf_runtime:sf_runtime.dll
 0001:0001e7e6       _sf_debug_api              1001f7e6 f   sf_runtime:sf_runtime.dll
 0001:0001e7ec       _callMdlMethodAndReportError 1001f7ec f   sf_runtime:sf_runtime.dll
 0001:0001e7f2       _call_sf_machine_global_method_dispatcher 1001f7f2 f   sf_runtime:sf_runtime.dll
 0001:0001e7f8       _sf_clear_error_manager_info 1001f7f8 f   sf_runtime:sf_runtime.dll
 0001:0001e7fe       _sf_mex_error_direct_call  1001f7fe f   sf_runtime:sf_runtime.dll
 0001:0001e804       _mxGetScalar               1001f804 f   libmx:libmx.dll
 0001:0001e80a       _mxGetPr                   1001f80a f   libmx:libmx.dll
 0001:0001e810       _mxCreateDoubleMatrix_730  1001f810 f   libmx:libmx.dll
 0001:0001e816       _mxGetString_730           1001f816 f   libmx:libmx.dll
 0001:0001e81c       _mxIsChar                  1001f81c f   libmx:libmx.dll
 0001:0001e822       _mxDestroyArray            1001f822 f   libmx:libmx.dll
 0001:0001e828       _mxDuplicateArray          1001f828 f   libmx:libmx.dll
 0001:0001e82e       _mxCreateDoubleScalar      1001f82e f   libmx:libmx.dll
 0001:0001e834       _mxSetField_730            1001f834 f   libmx:libmx.dll
 0001:0001e83a       _mxCreateString            1001f83a f   libmx:libmx.dll
 0001:0001e840       _mxCreateStructMatrix_730  1001f840 f   libmx:libmx.dll
 0001:0001e846       _mxCreateCellMatrix_730    1001f846 f   libmx:libmx.dll
 0001:0001e84c       _mxGetClassID              1001f84c f   libmx:libmx.dll
 0001:0001e852       _mxIsNumeric               1001f852 f   libmx:libmx.dll
 0001:0001e858       _mxIsComplex               1001f858 f   libmx:libmx.dll
 0001:0001e85e       _mxGetN                    1001f85e f   libmx:libmx.dll
 0001:0001e864       _mxGetM                    1001f864 f   libmx:libmx.dll
 0001:0001e86a       _mxCalloc                  1001f86a f   libmx:libmx.dll
 0001:0001e870       _mexMakeArrayPersistent    1001f870 f   libmex:libmex.dll
 0001:0001e876       _mexUnlock                 1001f876 f   libmex:libmex.dll
 0001:0001e87c       _mexIsLocked               1001f87c f   libmex:libmex.dll
 0001:0001e882       _mexWarnMsgTxt             1001f882 f   libmex:libmex.dll
 0001:0001e888       _mexCallMATLAB             1001f888 f   libmex:libmex.dll
 0001:0001e88e       _mexErrMsgTxt              1001f88e f   libmex:libmex.dll
 0001:0001e894       _mexLock                   1001f894 f   libmex:libmex.dll
 0001:0001e89a       _utMalloc                  1001f89a f   libut:libut.dll
 0001:0001e8a0       _utFree                    1001f8a0 f   libut:libut.dll
 0001:0001e8a6       _strcmp                    1001f8a6 f   MSVCRT:MSVCR100.dll
 0001:0001e8b0       @__security_check_cookie@4 1001f8b0 f   MSVCRT:secchk.obj
 0001:0001e8c0       _strlen                    1001f8c0 f   MSVCRT:MSVCR100.dll
 0001:0001e8c6       _memset                    1001f8c6 f   MSVCRT:MSVCR100.dll
 0001:0001e8d0       __chkstk                   1001f8d0 f   MSVCRT:chkstk.obj
 0001:0001e8d0       __alloca_probe             1001f8d0     MSVCRT:chkstk.obj
 0001:0001e8fc       _free                      1001f8fc f   MSVCRT:MSVCR100.dll
 0001:0001e902       _sprintf                   1001f902 f   MSVCRT:MSVCR100.dll
 0001:0001e908       _malloc                    1001f908 f   MSVCRT:MSVCR100.dll
 0001:0001e90e       _strcat                    1001f90e f   MSVCRT:MSVCR100.dll
 0001:0001e920       __ftol2_sse                1001f920 f   MSVCRT:ftol2.obj
 0001:0001e929       __ftol2_pentium4           1001f929 f   MSVCRT:ftol2.obj
 0001:0001e93c       __ftol2_sse_excpt          1001f93c f   MSVCRT:ftol2.obj
 0001:0001e956       __ftol2                    1001f956 f   MSVCRT:ftol2.obj
 0001:0001e9cc       _memcpy                    1001f9cc f   MSVCRT:MSVCR100.dll
 0001:0001e9d2       _NtCurrentTeb              1001f9d2 f i MSVCRT:crtdll.obj
 0001:0001ea27       __CRT_INIT@12              1001fa27 f   MSVCRT:crtdll.obj
 0001:0001ed47       __DllMainCRTStartup@12     1001fd47 f   MSVCRT:crtdll.obj
 0001:0001ed6a       ___report_gsfailure        1001fd6a f   MSVCRT:gs_report.obj
 0001:0001ee70       ___sse2_available_init     1001fe70 f   MSVCRT:cpu_disp.obj
 0001:0001ee80       ___clean_type_info_names   1001fe80 f   MSVCRT:tncleanup.obj
 0001:0001ee8c       __onexit                   1001fe8c f   MSVCRT:atonexit.obj
 0001:0001ef2d       _atexit                    1001ff2d f   MSVCRT:atonexit.obj
 0001:0001ef44       __RTC_Initialize           1001ff44 f   MSVCRT:_initsect_.obj
 0001:0001ef6a       __RTC_Terminate            1001ff6a f   MSVCRT:_initsect_.obj
 0001:0001ef90       __malloc_crt               1001ff90 f   MSVCRT:MSVCR100.dll
 0001:0001ef96       __encoded_null             1001ff96 f   MSVCRT:MSVCR100.dll
 0001:0001efa0       __ValidateImageBase        1001ffa0 f   MSVCRT:pesect.obj
 0001:0001efe0       __FindPESection            1001ffe0 f   MSVCRT:pesect.obj
 0001:0001f030       __IsNonwritableInCurrentImage 10020030 f   MSVCRT:pesect.obj
 0001:0001f0ec       __initterm                 100200ec f   MSVCRT:MSVCR100.dll
 0001:0001f0f2       __initterm_e               100200f2 f   MSVCRT:MSVCR100.dll
 0001:0001f0f8       __amsg_exit                100200f8 f   MSVCRT:MSVCR100.dll
 0001:0001f0fe       ___CppXcptFilter           100200fe f   MSVCRT:MSVCR100.dll
 0001:0001f104       _DllMain@12                10020104 f   MSVCRT:dllmain.obj
 0001:0001f130       __SEH_prolog4              10020130 f   MSVCRT:sehprolg4.obj
 0001:0001f175       __SEH_epilog4              10020175 f   MSVCRT:sehprolg4.obj
 0001:0001f189       __except_handler4          10020189 f   MSVCRT:chandler4gs.obj
 0001:0001f1ae       ___security_init_cookie    100201ae f   MSVCRT:gs_support.obj
 0001:0001f24a       __crt_debugger_hook        1002024a f   MSVCRT:MSVCR100.dll
 0001:0001f250       ___clean_type_info_names_internal 10020250 f   MSVCRT:MSVCR100.dll
 0001:0001f256       __unlock                   10020256 f   MSVCRT:MSVCR100.dll
 0001:0001f25c       ___dllonexit               1002025c f   MSVCRT:MSVCR100.dll
 0001:0001f262       __lock                     10020262 f   MSVCRT:MSVCR100.dll
 0001:0001f268       __except_handler4_common   10020268 f   MSVCRT:MSVCR100.dll
 0001:0001f26e       _EncodePointer@4           1002026e f   kernel32:KERNEL32.dll
 0001:0001f274       _DecodePointer@4           10020274 f   kernel32:KERNEL32.dll
 0001:0001f27a       _InterlockedExchange@8     1002027a f   kernel32:KERNEL32.dll
 0001:0001f280       _Sleep@4                   10020280 f   kernel32:KERNEL32.dll
 0001:0001f286       _InterlockedCompareExchange@12 10020286 f   kernel32:KERNEL32.dll
 0001:0001f28c       _TerminateProcess@8        1002028c f   kernel32:KERNEL32.dll
 0001:0001f292       _GetCurrentProcess@0       10020292 f   kernel32:KERNEL32.dll
 0001:0001f298       _UnhandledExceptionFilter@4 10020298 f   kernel32:KERNEL32.dll
 0001:0001f29e       _SetUnhandledExceptionFilter@4 1002029e f   kernel32:KERNEL32.dll
 0001:0001f2a4       _IsDebuggerPresent@0       100202a4 f   kernel32:KERNEL32.dll
 0001:0001f2aa       _IsProcessorFeaturePresent@4 100202aa f   kernel32:KERNEL32.dll
 0001:0001f2b0       _DisableThreadLibraryCalls@4 100202b0 f   kernel32:KERNEL32.dll
 0001:0001f2b6       _QueryPerformanceCounter@4 100202b6 f   kernel32:KERNEL32.dll
 0001:0001f2bc       _GetTickCount@0            100202bc f   kernel32:KERNEL32.dll
 0001:0001f2c2       _GetCurrentThreadId@0      100202c2 f   kernel32:KERNEL32.dll
 0001:0001f2c8       _GetCurrentProcessId@0     100202c8 f   kernel32:KERNEL32.dll
 0001:0001f2ce       _GetSystemTimeAsFileTime@4 100202ce f   kernel32:KERNEL32.dll
 0002:00000000       __imp__GetCurrentProcessId@0 10021000     kernel32:KERNEL32.dll
 0002:00000004       __imp__GetCurrentThreadId@0 10021004     kernel32:KERNEL32.dll
 0002:00000008       __imp__GetTickCount@0      10021008     kernel32:KERNEL32.dll
 0002:0000000c       __imp__QueryPerformanceCounter@4 1002100c     kernel32:KERNEL32.dll
 0002:00000010       __imp__DisableThreadLibraryCalls@4 10021010     kernel32:KERNEL32.dll
 0002:00000014       __imp__IsProcessorFeaturePresent@4 10021014     kernel32:KERNEL32.dll
 0002:00000018       __imp__IsDebuggerPresent@0 10021018     kernel32:KERNEL32.dll
 0002:0000001c       __imp__SetUnhandledExceptionFilter@4 1002101c     kernel32:KERNEL32.dll
 0002:00000020       __imp__UnhandledExceptionFilter@4 10021020     kernel32:KERNEL32.dll
 0002:00000024       __imp__GetCurrentProcess@0 10021024     kernel32:KERNEL32.dll
 0002:00000028       __imp__TerminateProcess@8  10021028     kernel32:KERNEL32.dll
 0002:0000002c       __imp__InterlockedCompareExchange@12 1002102c     kernel32:KERNEL32.dll
 0002:00000030       __imp__Sleep@4             10021030     kernel32:KERNEL32.dll
 0002:00000034       __imp__InterlockedExchange@8 10021034     kernel32:KERNEL32.dll
 0002:00000038       __imp__DecodePointer@4     10021038     kernel32:KERNEL32.dll
 0002:0000003c       __imp__EncodePointer@4     1002103c     kernel32:KERNEL32.dll
 0002:00000040       __imp__GetSystemTimeAsFileTime@4 10021040     kernel32:KERNEL32.dll
 0002:00000044       \177KERNEL32_NULL_THUNK_DATA 10021044     kernel32:KERNEL32.dll
 0002:00000048       __imp___except_handler4_common 10021048     MSVCRT:MSVCR100.dll
 0002:0000004c       __imp___onexit             1002104c     MSVCRT:MSVCR100.dll
 0002:00000050       __imp___lock               10021050     MSVCRT:MSVCR100.dll
 0002:00000054       __imp____dllonexit         10021054     MSVCRT:MSVCR100.dll
 0002:00000058       __imp___unlock             10021058     MSVCRT:MSVCR100.dll
 0002:0000005c       __imp____clean_type_info_names_internal 1002105c     MSVCRT:MSVCR100.dll
 0002:00000060       __imp___crt_debugger_hook  10021060     MSVCRT:MSVCR100.dll
 0002:00000064       __imp____CppXcptFilter     10021064     MSVCRT:MSVCR100.dll
 0002:00000068       __imp___amsg_exit          10021068     MSVCRT:MSVCR100.dll
 0002:0000006c       __imp___initterm_e         1002106c     MSVCRT:MSVCR100.dll
 0002:00000070       __imp___initterm           10021070     MSVCRT:MSVCR100.dll
 0002:00000074       __imp___encoded_null       10021074     MSVCRT:MSVCR100.dll
 0002:00000078       __imp___malloc_crt         10021078     MSVCRT:MSVCR100.dll
 0002:0000007c       __imp__memcpy              1002107c     MSVCRT:MSVCR100.dll
 0002:00000080       __imp__strcat              10021080     MSVCRT:MSVCR100.dll
 0002:00000084       __imp__malloc              10021084     MSVCRT:MSVCR100.dll
 0002:00000088       __imp__sprintf             10021088     MSVCRT:MSVCR100.dll
 0002:0000008c       __imp__free                1002108c     MSVCRT:MSVCR100.dll
 0002:00000090       __imp__memset              10021090     MSVCRT:MSVCR100.dll
 0002:00000094       __imp__strlen              10021094     MSVCRT:MSVCR100.dll
 0002:00000098       __imp__strcmp              10021098     MSVCRT:MSVCR100.dll
 0002:0000009c       \177MSVCR100_NULL_THUNK_DATA 1002109c     MSVCRT:MSVCR100.dll
 0002:000000a0       __imp__mexLock             100210a0     libmex:libmex.dll
 0002:000000a4       __imp__mexErrMsgTxt        100210a4     libmex:libmex.dll
 0002:000000a8       __imp__mexCallMATLAB       100210a8     libmex:libmex.dll
 0002:000000ac       __imp__mexWarnMsgTxt       100210ac     libmex:libmex.dll
 0002:000000b0       __imp__mexIsLocked         100210b0     libmex:libmex.dll
 0002:000000b4       __imp__mexUnlock           100210b4     libmex:libmex.dll
 0002:000000b8       __imp__mexMakeArrayPersistent 100210b8     libmex:libmex.dll
 0002:000000bc       \177libmex_NULL_THUNK_DATA 100210bc     libmex:libmex.dll
 0002:000000c0       __imp__mxCalloc            100210c0     libmx:libmx.dll
 0002:000000c4       __imp__mxGetM              100210c4     libmx:libmx.dll
 0002:000000c8       __imp__mxGetN              100210c8     libmx:libmx.dll
 0002:000000cc       __imp__mxIsComplex         100210cc     libmx:libmx.dll
 0002:000000d0       __imp__mxIsNumeric         100210d0     libmx:libmx.dll
 0002:000000d4       __imp__mxGetClassID        100210d4     libmx:libmx.dll
 0002:000000d8       __imp__mxCreateCellMatrix_730 100210d8     libmx:libmx.dll
 0002:000000dc       __imp__mxCreateStructMatrix_730 100210dc     libmx:libmx.dll
 0002:000000e0       __imp__mxCreateString      100210e0     libmx:libmx.dll
 0002:000000e4       __imp__mxSetField_730      100210e4     libmx:libmx.dll
 0002:000000e8       __imp__mxCreateDoubleScalar 100210e8     libmx:libmx.dll
 0002:000000ec       __imp__mxDuplicateArray    100210ec     libmx:libmx.dll
 0002:000000f0       __imp__mxDestroyArray      100210f0     libmx:libmx.dll
 0002:000000f4       __imp__mxIsChar            100210f4     libmx:libmx.dll
 0002:000000f8       __imp__mxGetString_730     100210f8     libmx:libmx.dll
 0002:000000fc       __imp__mxGetPr             100210fc     libmx:libmx.dll
 0002:00000100       __imp__mxGetScalar         10021100     libmx:libmx.dll
 0002:00000104       __imp__mxCreateDoubleMatrix_730 10021104     libmx:libmx.dll
 0002:00000108       \177libmx_NULL_THUNK_DATA  10021108     libmx:libmx.dll
 0002:0000010c       __imp__utMalloc            1002110c     libut:libut.dll
 0002:00000110       __imp__utFree              10021110     libut:libut.dll
 0002:00000114       \177libut_NULL_THUNK_DATA  10021114     libut:libut.dll
 0002:00000118       __imp__sf_debug_symbol_scope_add_eml 10021118     sf_runtime:sf_runtime.dll
 0002:0000011c       __imp__sf_debug_eml_data_array_bounds_error_check 1002111c     sf_runtime:sf_runtime.dll
 0002:00000120       __imp__sf_clear_rtw_identifier 10021120     sf_runtime:sf_runtime.dll
 0002:00000124       __imp__sf_mex_call_debug   10021124     sf_runtime:sf_runtime.dll
 0002:00000128       __imp__sf_debug_terminate  10021128     sf_runtime:sf_runtime.dll
 0002:0000012c       __imp__sf_mex_dup          1002112c     sf_runtime:sf_runtime.dll
 0002:00000130       __imp__sf_debug_symbol_scope_push 10021130     sf_runtime:sf_runtime.dll
 0002:00000134       __imp__callMdlMethodAndReportError 10021134     sf_runtime:sf_runtime.dll
 0002:00000138       __imp__call_sf_machine_global_method_dispatcher 10021138     sf_runtime:sf_runtime.dll
 0002:0000013c       __imp__sf_clear_error_manager_info 1002113c     sf_runtime:sf_runtime.dll
 0002:00000140       __imp__sf_mex_error_direct_call 10021140     sf_runtime:sf_runtime.dll
 0002:00000144       __imp__sf_debug_data_range_wrapper 10021144     sf_runtime:sf_runtime.dll
 0002:00000148       __imp__sf_debug_symbol_scope_push_eml 10021148     sf_runtime:sf_runtime.dll
 0002:0000014c       __imp__sf_debug_animate    1002114c     sf_runtime:sf_runtime.dll
 0002:00000150       __imp__sf_debug_symbol_scope_add_eml_importable 10021150     sf_runtime:sf_runtime.dll
 0002:00000154       __imp__cv_eml_eval         10021154     sf_runtime:sf_runtime.dll
 0002:00000158       __imp__sf_debug_symbol_scope_pop 10021158     sf_runtime:sf_runtime.dll
 0002:0000015c       __imp__sf_debug_check_for_state_inconsistency 1002115c     sf_runtime:sf_runtime.dll
 0002:00000160       __imp__cv_script_eval      10021160     sf_runtime:sf_runtime.dll
 0002:00000164       __imp__sf_call_output_fcn_enable 10021164     sf_runtime:sf_runtime.dll
 0002:00000168       __imp__sf_get_time         10021168     sf_runtime:sf_runtime.dll
 0002:0000016c       __imp__sf_debug_get_script_id 1002116c     sf_runtime:sf_runtime.dll
 0002:00000170       __imp__sf_debug_set_script_translation 10021170     sf_runtime:sf_runtime.dll
 0002:00000174       __imp__sf_debug_initialize_chart 10021174     sf_runtime:sf_runtime.dll
 0002:00000178       __imp__sf_debug_set_chart_disable_implicit_casting 10021178     sf_runtime:sf_runtime.dll
 0002:0000017c       __imp__sf_debug_set_chart_event_thresholds 1002117c     sf_runtime:sf_runtime.dll
 0002:00000180       __imp__sf_debug_set_chart_data_props 10021180     sf_runtime:sf_runtime.dll
 0002:00000184       __imp__sf_debug_set_chart_event_scope 10021184     sf_runtime:sf_runtime.dll
 0002:00000188       __imp__sf_debug_set_chart_state_info 10021188     sf_runtime:sf_runtime.dll
 0002:0000018c       __imp__sf_debug_set_chart_substate_count 1002118c     sf_runtime:sf_runtime.dll
 0002:00000190       __imp__sf_debug_set_chart_decomposition 10021190     sf_runtime:sf_runtime.dll
 0002:00000194       __imp__sf_debug_set_chart_substate_index 10021194     sf_runtime:sf_runtime.dll
 0002:00000198       __imp__sf_debug_set_chart_state_substate_count 10021198     sf_runtime:sf_runtime.dll
 0002:0000019c       __imp__sf_debug_set_chart_state_substate_index 1002119c     sf_runtime:sf_runtime.dll
 0002:000001a0       __imp__sf_debug_cv_init_chart 100211a0     sf_runtime:sf_runtime.dll
 0002:000001a4       __imp__sf_debug_cv_init_state 100211a4     sf_runtime:sf_runtime.dll
 0002:000001a8       __imp__sf_debug_cv_init_trans 100211a8     sf_runtime:sf_runtime.dll
 0002:000001ac       __imp__cv_eml_init_script  100211ac     sf_runtime:sf_runtime.dll
 0002:000001b0       __imp__eml_debug_line_call 100211b0     sf_runtime:sf_runtime.dll
 0002:000001b4       __imp__sf_call_output_fcn_disable 100211b4     sf_runtime:sf_runtime.dll
 0002:000001b8       __imp__sf_mex_sub          100211b8     sf_runtime:sf_runtime.dll
 0002:000001bc       __imp__cv_eml_init_fcn     100211bc     sf_runtime:sf_runtime.dll
 0002:000001c0       __imp__cv_eml_init_if      100211c0     sf_runtime:sf_runtime.dll
 0002:000001c4       __imp__cv_script_init_script 100211c4     sf_runtime:sf_runtime.dll
 0002:000001c8       __imp__cv_script_init_fcn  100211c8     sf_runtime:sf_runtime.dll
 0002:000001cc       __imp__sf_debug_set_chart_data_compiled_props 100211cc     sf_runtime:sf_runtime.dll
 0002:000001d0       __imp__sf_debug_set_instance_data_value_ptr 100211d0     sf_runtime:sf_runtime.dll
 0002:000001d4       __imp__sf_debug_reset_current_state_configuration 100211d4     sf_runtime:sf_runtime.dll
 0002:000001d8       __imp__sim_mode_is_rtw_gen 100211d8     sf_runtime:sf_runtime.dll
 0002:000001dc       __imp__sim_mode_is_external 100211dc     sf_runtime:sf_runtime.dll
 0002:000001e0       __imp__sf_is_chart_inlinable 100211e0     sf_runtime:sf_runtime.dll
 0002:000001e4       __imp__sf_rtw_info_uint_prop 100211e4     sf_runtime:sf_runtime.dll
 0002:000001e8       __imp__sf_update_buildInfo 100211e8     sf_runtime:sf_runtime.dll
 0002:000001ec       __imp__sf_mark_output_events_with_multiple_callers 100211ec     sf_runtime:sf_runtime.dll
 0002:000001f0       __imp__sf_mark_chart_expressionable_inputs 100211f0     sf_runtime:sf_runtime.dll
 0002:000001f4       __imp__sf_mark_chart_reusable_outputs 100211f4     sf_runtime:sf_runtime.dll
 0002:000001f8       __imp__sf_set_rtw_dwork_info 100211f8     sf_runtime:sf_runtime.dll
 0002:000001fc       __imp__sf_mex_import       100211fc     sf_runtime:sf_runtime.dll
 0002:00000200       __imp__sf_debug_get_animation 10021200     sf_runtime:sf_runtime.dll
 0002:00000204       __imp__sf_debug_set_animation 10021204     sf_runtime:sf_runtime.dll
 0002:00000208       __imp__sf_debug_set_honor_breakpoints 10021208     sf_runtime:sf_runtime.dll
 0002:0000020c       __imp__sf_debug_call       1002120c     sf_runtime:sf_runtime.dll
 0002:00000210       __imp__sf_debug_api        10021210     sf_runtime:sf_runtime.dll
 0002:00000214       __imp__sf_mex_getcell      10021214     sf_runtime:sf_runtime.dll
 0002:00000218       __imp__sf_mex_decode_encoded_mx_struct_array 10021218     sf_runtime:sf_runtime.dll
 0002:0000021c       __imp__sf_mex_setcell      1002121c     sf_runtime:sf_runtime.dll
 0002:00000220       __imp__sf_mex_call_matlab  10021220     sf_runtime:sf_runtime.dll
 0002:00000224       __imp__sf_mex_error_message 10021224     sf_runtime:sf_runtime.dll
 0002:00000228       __imp__sf_mex_create       10021228     sf_runtime:sf_runtime.dll
 0002:0000022c       __imp__sf_mex_addfield     1002122c     sf_runtime:sf_runtime.dll
 0002:00000230       __imp__sf_mex_createcellmatrix 10021230     sf_runtime:sf_runtime.dll
 0002:00000234       __imp__sf_mex_duplicatearraysafe 10021234     sf_runtime:sf_runtime.dll
 0002:00000238       __imp__sf_mex_destroy      10021238     sf_runtime:sf_runtime.dll
 0002:0000023c       __imp__sf_mex_createstruct 1002123c     sf_runtime:sf_runtime.dll
 0002:00000240       __imp__sf_mex_assign       10021240     sf_runtime:sf_runtime.dll
 0002:00000244       __imp__sf_mex_emlrtNameCapturePostProcessR2012a 10021244     sf_runtime:sf_runtime.dll
 0002:00000248       __imp__sf_load_rtw_optimization_info 10021248     sf_runtime:sf_runtime.dll
 0002:0000024c       __imp__sf_debug_initialize_machine 1002124c     sf_runtime:sf_runtime.dll
 0002:00000250       __imp__sf_debug_set_machine_event_thresholds 10021250     sf_runtime:sf_runtime.dll
 0002:00000254       __imp__sf_debug_create_debug_instance_struct 10021254     sf_runtime:sf_runtime.dll
 0002:00000258       __imp__sf_debug_set_machine_data_thresholds 10021258     sf_runtime:sf_runtime.dll
 0002:0000025c       \177sf_runtime_NULL_THUNK_DATA 1002125c     sf_runtime:sf_runtime.dll
 0002:00000260       ___xc_a                    10021260     MSVCRT:cinitexe.obj
 0002:00000264       ___xc_z                    10021264     MSVCRT:cinitexe.obj
 0002:00000268       ___xi_a                    10021268     MSVCRT:cinitexe.obj
 0002:00000274       ___xi_z                    10021274     MSVCRT:cinitexe.obj
 0002:00000278       __real@41ea35e473000000    10021278     untitled1_sfun.obj
 0002:00000280       __real@41a75e4ede000000    10021280     untitled1_sfun.obj
 0002:00000288       __real@41d4543afd800000    10021288     untitled1_sfun.obj
 0002:00000290       __real@41e04c653a000000    10021290     untitled1_sfun.obj
 0002:00000298       __real@41d187d0c8400000    10021298     untitled1_sfun.obj
 0002:000002a0       __real@41cff744e8000000    100212a0     untitled1_sfun.obj
 0002:000002a8       __real@41b7e1066f000000    100212a8     untitled1_sfun.obj
 0002:000002b0       __real@41c845d7be800000    100212b0     untitled1_sfun.obj
 0002:000002b8       __real@41e1c38954800000    100212b8     untitled1_sfun.obj
 0002:000002c0       __real@41d1c4690cc00000    100212c0     untitled1_sfun.obj
 0002:000002c8       __real@41ef0a6e91a00000    100212c8     untitled1_sfun.obj
 0002:000002d0       __real@41daef8d46000000    100212d0     untitled1_sfun.obj
 0002:000002d8       __real@0000000000000000    100212d8     untitled1_sfun.obj
 0002:000002e0       __real@41c8279222000000    100212e0     untitled1_sfun.obj
 0002:000002e8       __real@41d8c762dc000000    100212e8     untitled1_sfun.obj
 0002:000002f0       __real@41da37f42a000000    100212f0     untitled1_sfun.obj
 0002:000002f8       __real@41d1447a4c000000    100212f8     untitled1_sfun.obj
 0002:00000300       __real@41b485f5f3000000    10021300     c1_untitled1.obj
 0002:00000308       __real@41c2753c22000000    10021308     c1_untitled1.obj
 0002:00000310       __real@41d518dca4400000    10021310     c1_untitled1.obj
 0002:00000318       __real@41eef83f15800000    10021318     c1_untitled1.obj
 0002:00000320       __real@4070000000000000    10021320     c1_untitled1.obj
 0002:00000328       __real@4024000000000000    10021328     c1_untitled1.obj
 0002:00000330       __real@3ff0000000000000    10021330     c1_untitled1.obj
 0002:00000338       __real@4000000000000000    10021338     c1_untitled1.obj
 0002:00000340       __real@4008000000000000    10021340     c1_untitled1.obj
 0002:00000348       __real@4032000000000000    10021348     c1_untitled1.obj
 0002:00000350       __real@4031000000000000    10021350     c1_untitled1.obj
 0002:00000358       __real@4030000000000000    10021358     c1_untitled1.obj
 0002:00000360       __real@402e000000000000    10021360     c1_untitled1.obj
 0002:00000368       __real@402c000000000000    10021368     c1_untitled1.obj
 0002:00000370       __real@402a000000000000    10021370     c1_untitled1.obj
 0002:00000378       __real@4028000000000000    10021378     c1_untitled1.obj
 0002:00000380       __real@4026000000000000    10021380     c1_untitled1.obj
 0002:00000388       __real@4022000000000000    10021388     c1_untitled1.obj
 0002:00000390       __real@4020000000000000    10021390     c1_untitled1.obj
 0002:00000398       __real@401c000000000000    10021398     c1_untitled1.obj
 0002:000003a0       __real@4018000000000000    100213a0     c1_untitled1.obj
 0002:000003a8       __real@4014000000000000    100213a8     c1_untitled1.obj
 0002:000003b0       __real@4010000000000000    100213b0     c1_untitled1.obj
 0002:000003b8       __real@4056c00000000000    100213b8     c1_untitled1.obj
 0002:000003c0       __real@4055c00000000000    100213c0     c1_untitled1.obj
 0002:000003c8       __real@4057400000000000    100213c8     c1_untitled1.obj
 0002:000003d0       __real@4057800000000000    100213d0     c1_untitled1.obj
 0002:000003d8       __real@4057c00000000000    100213d8     c1_untitled1.obj
 0002:000003e0       __real@4056000000000000    100213e0     c1_untitled1.obj
 0002:000003e8       __real@4058400000000000    100213e8     c1_untitled1.obj
 0002:000003f0       __real@4057000000000000    100213f0     c1_untitled1.obj
 0002:000003f8       __real@41ed3bfe59800000    100213f8     c2_untitled1.obj
 0002:00000400       __real@419da584fc000000    10021400     c2_untitled1.obj
 0002:00000408       __real@41e3856f02e00000    10021408     c2_untitled1.obj
 0002:00000410       __real@41a27472c2000000    10021410     c2_untitled1.obj
 0002:00000418       __real@41e1718ddc600000    10021418     c3_untitled1.obj
 0002:00000420       __real@41e3672189400000    10021420     c3_untitled1.obj
 0002:00000428       __real@41d6704ccd800000    10021428     c3_untitled1.obj
 0002:00000430       __real@41e8f197c6600000    10021430     c3_untitled1.obj
 0002:00000438       _DYNAMIC_DIMENSION_DEF     10021438     untitled1_sfun_registry.obj
 0002:00000448       __ssBadLevel2InputAccessMsg 10021448     untitled1_sfun_registry.obj
 0002:000005d0       __ssBadLevel2DirectFeedMsg 100215d0     untitled1_sfun_registry.obj
 0002:00000710       __ssBadLevel2DirectFeedSolutionMsg 10021710     untitled1_sfun_registry.obj
 0002:00000780       __ssBadLevel2ZeroDirectFeedMsg 10021780     untitled1_sfun_registry.obj
 0002:000008c0       __ssBadLevel2ZeroDirectFeedMsg2 100218c0     untitled1_sfun_registry.obj
 0002:000009a8       __real@bff0000000000000    100219a8     untitled1_sfun_registry.obj
 0002:000009b0       __real@4153d65940000000    100219b0     untitled1_sfun_registry.obj
 0002:000009b8       __pRawDllMain              100219b8     MSVCRT:crtdll.obj
 0002:000009b8       __pDefaultRawDllMain       100219b8     MSVCRT:crtdll.obj
 0002:000009c4       ?ProcessDetach@NativeDll@<CrtImplementationDetails>@@0IB 100219c4     MSVCRT:tncleanup.obj
 0002:000009c8       ?ProcessAttach@NativeDll@<CrtImplementationDetails>@@0IB 100219c8     MSVCRT:tncleanup.obj
 0002:000009cc       ?ThreadAttach@NativeDll@<CrtImplementationDetails>@@0IB 100219cc     MSVCRT:tncleanup.obj
 0002:000009d0       ?ThreadDetach@NativeDll@<CrtImplementationDetails>@@0IB 100219d0     MSVCRT:tncleanup.obj
 0002:000009d4       ?ProcessVerifier@NativeDll@<CrtImplementationDetails>@@0IB 100219d4     MSVCRT:tncleanup.obj
 0002:000009d8       __load_config_used         100219d8     MSVCRT:loadcfg.obj
 0002:00000a20       ___safe_se_handler_table   10021a20     <linker-defined>
 0002:00000a24       ___rtc_iaa                 10021a24     MSVCRT:_initsect_.obj
 0002:00000a28       ___rtc_izz                 10021a28     MSVCRT:_initsect_.obj
 0002:00000a2c       ___rtc_taa                 10021a2c     MSVCRT:_initsect_.obj
 0002:00000a30       ___rtc_tzz                 10021a30     MSVCRT:_initsect_.obj
 0002:00000a9c       __IMPORT_DESCRIPTOR_sf_runtime 10021a9c     sf_runtime:sf_runtime.dll
 0002:00000ab0       __IMPORT_DESCRIPTOR_libmx  10021ab0     libmx:libmx.dll
 0002:00000ac4       __IMPORT_DESCRIPTOR_libmex 10021ac4     libmex:libmex.dll
 0002:00000ad8       __IMPORT_DESCRIPTOR_libut  10021ad8     libut:libut.dll
 0002:00000aec       __IMPORT_DESCRIPTOR_MSVCR100 10021aec     MSVCRT:MSVCR100.dll
 0002:00000b00       __IMPORT_DESCRIPTOR_KERNEL32 10021b00     kernel32:KERNEL32.dll
 0002:00000b14       __NULL_IMPORT_DESCRIPTOR   10021b14     sf_runtime:sf_runtime.dll
 0003:00006598       _DYNAMIC_DIMENSION         10029598     untitled1_sfun_registry.obj
 0003:00007124       ___security_cookie         1002a124     MSVCRT:gs_cookie.obj
 0003:00007128       ___security_cookie_complement 1002a128     MSVCRT:gs_cookie.obj
 0003:00007130       ___native_dllmain_reason   1002a130     MSVCRT:natstart.obj
 0003:00007134       ___native_vcclrit_reason   1002a134     MSVCRT:natstart.obj
 0003:00007268       _sfGlobalDebugInstanceStruct 1002a268     untitled1_sfun_registry.obj
 0003:0000759c       ?__type_info_root_node@@3U__type_info_node@@A 1002a59c     MSVCRT:tncleanup.obj
 0003:000075a4       __untitled1MachineNumber_  1002a5a4     <common>
 0003:000075a8       ___native_startup_state    1002a5a8     <common>
 0003:000075ac       ___native_startup_lock     1002a5ac     <common>
 0003:000075b0       ___onexitend               1002a5b0     <common>
 0003:000075b4       ___onexitbegin             1002a5b4     <common>
 0003:000075b8       ___sse2_available          1002a5b8     <common>
 0003:000075bc       ___dyn_tls_init_callback   1002a5bc     <common>

 entry point at        0001:0001ed47

 Static symbols

 0001:00000bb0       _c1_info_helper            10001bb0 f   c1_untitled1.obj
 0001:00000da0       _c1_emlrt_marshallOut      10001da0 f   c1_untitled1.obj
 0001:00000e00       _c1_b_emlrt_marshallOut    10001e00 f   c1_untitled1.obj
 0001:00002e90       _get_sim_state_c1_untitled1 10003e90 f   c1_untitled1.obj
 0001:00003d40       _sf_get_sim_state_info_c1_untitled1 10004d40 f   c1_untitled1.obj
 0001:00003ed0       _set_sim_state_c1_untitled1 10004ed0 f   c1_untitled1.obj
 0001:00004690       _c1_update_debugger_state_c1_untitled1 10005690 f   c1_untitled1.obj
 0001:000048d0       _c1_b_emlrt_marshallIn     100058d0 f   c1_untitled1.obj
 0001:00004920       _c1_c_emlrt_marshallIn     10005920 f   c1_untitled1.obj
 0001:00004970       _c1_e_emlrt_marshallIn     10005970 f   c1_untitled1.obj
 0001:000049c0       _c1_f_emlrt_marshallIn     100059c0 f   c1_untitled1.obj
 0001:00004a60       _c1_i_emlrt_marshallIn     10005a60 f   c1_untitled1.obj
 0001:00004ab0       _c1_j_emlrt_marshallIn     10005ab0 f   c1_untitled1.obj
 0001:00004b00       _c1_k_emlrt_marshallIn     10005b00 f   c1_untitled1.obj
 0001:00004b60       _c1_l_emlrt_marshallIn     10005b60 f   c1_untitled1.obj
 0001:00004c00       _mdlProcessParameters_c1_untitled1 10005c00 f   c1_untitled1.obj
 0001:00004cb0       _initialize_params_c1_untitled1 10005cb0 f   c1_untitled1.obj
 0001:00004cc0       _mdlSetWorkWidths_c1_untitled1 10005cc0 f   c1_untitled1.obj
 0001:00005080       _sf_get_instance_specialization 10006080 f   c1_untitled1.obj
 0001:00005090       _mdlStart_c1_untitled1     10006090 f   c1_untitled1.obj
 0001:00005230       _init_dsm_address_info     10006230 f   c1_untitled1.obj
 0001:00005240       _chart_debug_initialization 10006240 f   c1_untitled1.obj
 0001:0000a720       _init_script_number_translation 1000b720 f   c1_untitled1.obj
 0001:0000a760       _c1_sf_marshallOut         1000b760 f   c1_untitled1.obj
 0001:0000a890       _c1_sf_marshallIn          1000b890 f   c1_untitled1.obj
 0001:0000a970       _c1_emlrt_marshallIn       1000b970 f   c1_untitled1.obj
 0001:0000aa20       _c1_b_sf_marshallOut       1000ba20 f   c1_untitled1.obj
 0001:0000aaa0       _c1_b_sf_marshallIn        1000baa0 f   c1_untitled1.obj
 0001:0000ab20       _c1_d_sf_marshallOut       1000bb20 f   c1_untitled1.obj
 0001:0000ac50       _c1_d_sf_marshallIn        1000bc50 f   c1_untitled1.obj
 0001:0000ad20       _sf_opaque_initialize_c1_untitled1 1000bd20 f   c1_untitled1.obj
 0001:0000ad50       _initialize_c1_untitled1   1000bd50 f   c1_untitled1.obj
 0001:0000adc0       _sf_opaque_enable_c1_untitled1 1000bdc0 f   c1_untitled1.obj
 0001:0000ade0       _enable_c1_untitled1       1000bde0 f   c1_untitled1.obj
 0001:0000ae30       _sf_opaque_disable_c1_untitled1 1000be30 f   c1_untitled1.obj
 0001:0000ae50       _disable_c1_untitled1      1000be50 f   c1_untitled1.obj
 0001:0000aea0       _sf_opaque_gateway_c1_untitled1 1000bea0 f   c1_untitled1.obj
 0001:0000aec0       _sf_gateway_c1_untitled1   1000bec0 f   c1_untitled1.obj
 0001:0000bda0       _c1_set_sim_state_side_effects_c1_untitled1 1000cda0 f   c1_untitled1.obj
 0001:0000be40       _c1_enter_atomic_stateStart 1000ce40 f   c1_untitled1.obj
 0001:0000c510       _c1_c_sf_marshallOut       1000d510 f   c1_untitled1.obj
 0001:0000c590       _c1_c_sf_marshallIn        1000d590 f   c1_untitled1.obj
 0001:0000c610       _c1_d_emlrt_marshallIn     1000d610 f   c1_untitled1.obj
 0001:0000c660       _c1_boredPoseS             1000d660 f   c1_untitled1.obj
 0001:0000fc40       _c1_encStr2Arr             10010c40 f   c1_untitled1.obj
 0001:00010170       _c1_b_encStr2Arr           10011170 f   c1_untitled1.obj
 0001:00010690       _c1_c_encStr2Arr           10011690 f   c1_untitled1.obj
 0001:00010bc0       _c1_d_encStr2Arr           10011bc0 f   c1_untitled1.obj
 0001:00011100       _c1_e_encStr2Arr           10012100 f   c1_untitled1.obj
 0001:00011620       _c1_f_encStr2Arr           10012620 f   c1_untitled1.obj
 0001:00011b80       _c1_g_encStr2Arr           10012b80 f   c1_untitled1.obj
 0001:000120b0       _c1_h_encStr2Arr           100130b0 f   c1_untitled1.obj
 0001:000125d0       _c1_i_encStr2Arr           100135d0 f   c1_untitled1.obj
 0001:00012b00       _c1_j_encStr2Arr           10013b00 f   c1_untitled1.obj
 0001:00013020       _c1_k_encStr2Arr           10014020 f   c1_untitled1.obj
 0001:00013540       _c1_o_sf_marshallOut       10014540 f   c1_untitled1.obj
 0001:00013650       _c1_p_sf_marshallOut       10014650 f   c1_untitled1.obj
 0001:00013770       _c1_q_sf_marshallOut       10014770 f   c1_untitled1.obj
 0001:00013870       _c1_r_sf_marshallOut       10014870 f   c1_untitled1.obj
 0001:00013980       _c1_y_sf_marshallOut       10014980 f   c1_untitled1.obj
 0001:00013a80       _c1_ab_sf_marshallOut      10014a80 f   c1_untitled1.obj
 0001:00013b90       _c1_hb_sf_marshallOut      10014b90 f   c1_untitled1.obj
 0001:00013c90       _c1_ib_sf_marshallOut      10014c90 f   c1_untitled1.obj
 0001:00013da0       _c1_jb_sf_marshallOut      10014da0 f   c1_untitled1.obj
 0001:00013ea0       _c1_kb_sf_marshallOut      10014ea0 f   c1_untitled1.obj
 0001:00013fc0       _c1_lb_sf_marshallOut      10014fc0 f   c1_untitled1.obj
 0001:000140c0       _c1_mb_sf_marshallOut      100150c0 f   c1_untitled1.obj
 0001:000141e0       _c1_nb_sf_marshallOut      100151e0 f   c1_untitled1.obj
 0001:000142c0       _c1_ob_sf_marshallOut      100152c0 f   c1_untitled1.obj
 0001:000143e0       _c1_pb_sf_marshallOut      100153e0 f   c1_untitled1.obj
 0001:000144e0       _c1_qb_sf_marshallOut      100154e0 f   c1_untitled1.obj
 0001:00014600       _c1_updateDataWrittenToVector 10015600 f   c1_untitled1.obj
 0001:00014650       _sf_opaque_get_sim_state_c1_untitled1 10015650 f   c1_untitled1.obj
 0001:00014670       _sf_opaque_set_sim_state_c1_untitled1 10015670 f   c1_untitled1.obj
 0001:00014690       _sf_opaque_terminate_c1_untitled1 10015690 f   c1_untitled1.obj
 0001:00014720       _finalize_c1_untitled1     10015720 f   c1_untitled1.obj
 0001:00014740       _sf_opaque_init_subchart_simstructs 10015740 f   c1_untitled1.obj
 0001:00014760       _initSimStructsc1_untitled1 10015760 f   c1_untitled1.obj
 0001:00014770       _mdlRTW_c1_untitled1       10015770 f   c1_untitled1.obj
 0001:00014800       _c2_info_helper            10015800 f   c2_untitled1.obj
 0001:000149f0       _c2_emlrt_marshallOut      100159f0 f   c2_untitled1.obj
 0001:00014a50       _c2_b_emlrt_marshallOut    10015a50 f   c2_untitled1.obj
 0001:00015430       _get_sim_state_c2_untitled1 10016430 f   c2_untitled1.obj
 0001:000154f0       _sf_get_sim_state_info_c2_untitled1 100164f0 f   c2_untitled1.obj
 0001:00015670       _set_sim_state_c2_untitled1 10016670 f   c2_untitled1.obj
 0001:000156f0       _c2_update_debugger_state_c2_untitled1 100166f0 f   c2_untitled1.obj
 0001:00015700       _c2_c_emlrt_marshallIn     10016700 f   c2_untitled1.obj
 0001:00015750       _c2_d_emlrt_marshallIn     10016750 f   c2_untitled1.obj
 0001:00015800       _mdlProcessParameters_c2_untitled1 10016800 f   c2_untitled1.obj
 0001:000158b0       _initialize_params_c2_untitled1 100168b0 f   c2_untitled1.obj
 0001:000158c0       _mdlSetWorkWidths_c2_untitled1 100168c0 f   c2_untitled1.obj
 0001:00015d00       _sf_get_instance_specialization 10016d00 f   c2_untitled1.obj
 0001:00015d10       _mdlStart_c2_untitled1     10016d10 f   c2_untitled1.obj
 0001:00015eb0       _init_dsm_address_info     10016eb0 f   c2_untitled1.obj
 0001:00015ec0       _chart_debug_initialization 10016ec0 f   c2_untitled1.obj
 0001:000166f0       _init_script_number_translation 100176f0 f   c2_untitled1.obj
 0001:00016700       _c2_sf_marshallOut         10017700 f   c2_untitled1.obj
 0001:00016780       _sf_opaque_initialize_c2_untitled1 10017780 f   c2_untitled1.obj
 0001:000167b0       _initialize_c2_untitled1   100177b0 f   c2_untitled1.obj
 0001:000167e0       _sf_opaque_enable_c2_untitled1 100177e0 f   c2_untitled1.obj
 0001:00016800       _enable_c2_untitled1       10017800 f   c2_untitled1.obj
 0001:00016820       _sf_opaque_disable_c2_untitled1 10017820 f   c2_untitled1.obj
 0001:00016840       _disable_c2_untitled1      10017840 f   c2_untitled1.obj
 0001:00016860       _sf_opaque_gateway_c2_untitled1 10017860 f   c2_untitled1.obj
 0001:00016880       _sf_gateway_c2_untitled1   10017880 f   c2_untitled1.obj
 0001:00017930       _c2_sf_marshallIn          10018930 f   c2_untitled1.obj
 0001:000179b0       _c2_emlrt_marshallIn       100189b0 f   c2_untitled1.obj
 0001:00017a00       _sf_opaque_get_sim_state_c2_untitled1 10018a00 f   c2_untitled1.obj
 0001:00017a20       _sf_opaque_set_sim_state_c2_untitled1 10018a20 f   c2_untitled1.obj
 0001:00017a40       _sf_opaque_terminate_c2_untitled1 10018a40 f   c2_untitled1.obj
 0001:00017ad0       _finalize_c2_untitled1     10018ad0 f   c2_untitled1.obj
 0001:00017ae0       _sf_opaque_init_subchart_simstructs 10018ae0 f   c2_untitled1.obj
 0001:00017b00       _initSimStructsc2_untitled1 10018b00 f   c2_untitled1.obj
 0001:00017b10       _mdlRTW_c2_untitled1       10018b10 f   c2_untitled1.obj
 0001:00018020       _get_sim_state_c3_untitled1 10019020 f   c3_untitled1.obj
 0001:00018140       _sf_get_sim_state_info_c3_untitled1 10019140 f   c3_untitled1.obj
 0001:000182c0       _set_sim_state_c3_untitled1 100192c0 f   c3_untitled1.obj
 0001:00018380       _c3_update_debugger_state_c3_untitled1 10019380 f   c3_untitled1.obj
 0001:00018390       _c3_emlrt_marshallIn       10019390 f   c3_untitled1.obj
 0001:000183e0       _c3_b_emlrt_marshallIn     100193e0 f   c3_untitled1.obj
 0001:00018430       _c3_d_emlrt_marshallIn     10019430 f   c3_untitled1.obj
 0001:00018480       _c3_e_emlrt_marshallIn     10019480 f   c3_untitled1.obj
 0001:00018530       _mdlProcessParameters_c3_untitled1 10019530 f   c3_untitled1.obj
 0001:000185e0       _initialize_params_c3_untitled1 100195e0 f   c3_untitled1.obj
 0001:000185f0       _mdlSetWorkWidths_c3_untitled1 100195f0 f   c3_untitled1.obj
 0001:00018970       _sf_get_instance_specialization 10019970 f   c3_untitled1.obj
 0001:00018980       _mdlStart_c3_untitled1     10019980 f   c3_untitled1.obj
 0001:00018b20       _init_dsm_address_info     10019b20 f   c3_untitled1.obj
 0001:00018b30       _chart_debug_initialization 10019b30 f   c3_untitled1.obj
 0001:00019040       _init_script_number_translation 1001a040 f   c3_untitled1.obj
 0001:00019050       _c3_sf_marshallOut         1001a050 f   c3_untitled1.obj
 0001:000190d0       _c3_sf_marshallIn          1001a0d0 f   c3_untitled1.obj
 0001:00019150       _sf_opaque_initialize_c3_untitled1 1001a150 f   c3_untitled1.obj
 0001:00019180       _initialize_c3_untitled1   1001a180 f   c3_untitled1.obj
 0001:000191b0       _sf_opaque_enable_c3_untitled1 1001a1b0 f   c3_untitled1.obj
 0001:000191d0       _enable_c3_untitled1       1001a1d0 f   c3_untitled1.obj
 0001:000191f0       _sf_opaque_disable_c3_untitled1 1001a1f0 f   c3_untitled1.obj
 0001:00019210       _disable_c3_untitled1      1001a210 f   c3_untitled1.obj
 0001:00019230       _sf_opaque_gateway_c3_untitled1 1001a230 f   c3_untitled1.obj
 0001:00019250       _sf_gateway_c3_untitled1   1001a250 f   c3_untitled1.obj
 0001:00019910       _sf_opaque_get_sim_state_c3_untitled1 1001a910 f   c3_untitled1.obj
 0001:00019930       _sf_opaque_set_sim_state_c3_untitled1 1001a930 f   c3_untitled1.obj
 0001:00019950       _sf_opaque_terminate_c3_untitled1 1001a950 f   c3_untitled1.obj
 0001:000199e0       _finalize_c3_untitled1     1001a9e0 f   c3_untitled1.obj
 0001:000199f0       _sf_opaque_init_subchart_simstructs 1001a9f0 f   c3_untitled1.obj
 0001:00019a10       _initSimStructsc3_untitled1 1001aa10 f   c3_untitled1.obj
 0001:00019a20       _mdlRTW_c3_untitled1       1001aa20 f   c3_untitled1.obj
 0001:0001a160       _getChartInfoFromSimStruct 1001b160 f   untitled1_sfun_registry.obj
 0001:0001b260       __ssFatalError             1001c260 f   untitled1_sfun_registry.obj
 0001:0001d5c0       _ProcessMexSfunctionCmdLineCall 1001e5c0 f   untitled1_sfun_registry.obj
 0001:0001d6e0       _sf_debug_api_wrapper      1001e6e0 f   untitled1_sfun_registry.obj
 0001:0001d710       _mdlStart                  1001e710 f   untitled1_sfun_registry.obj
 0001:0001d730       _mdl_start_processing      1001e730 f   untitled1_sfun_registry.obj
 0001:0001d7a0       _mdlTerminate              1001e7a0 f   untitled1_sfun_registry.obj
 0001:0001d7c0       _mdl_terminate_processing  1001e7c0 f   untitled1_sfun_registry.obj
 0001:0001d830       _mdlInitializeSampleTimes  1001e830 f   untitled1_sfun_registry.obj
 0001:0001d850       _mdlZeroCrossings          1001e850 f   untitled1_sfun_registry.obj
 0001:0001d870       _mdl_zeroCrossings_processing 1001e870 f   untitled1_sfun_registry.obj
 0001:0001d8a0       _mdlDerivatives            1001e8a0 f   untitled1_sfun_registry.obj
 0001:0001d8c0       _mdl_derivatives_processing 1001e8c0 f   untitled1_sfun_registry.obj
 0001:0001d900       _mdlInitializeConditions   1001e900 f   untitled1_sfun_registry.obj
 0001:0001d920       _mdl_initialize_conditions_processing 1001e920 f   untitled1_sfun_registry.obj
 0001:0001d960       _mdlEnable                 1001e960 f   untitled1_sfun_registry.obj
 0001:0001d980       _mdl_enable_processing     1001e980 f   untitled1_sfun_registry.obj
 0001:0001d9b0       _mdlDisable                1001e9b0 f   untitled1_sfun_registry.obj
 0001:0001d9d0       _mdl_disable_processing    1001e9d0 f   untitled1_sfun_registry.obj
 0001:0001da00       _mdlOutputs                1001ea00 f   untitled1_sfun_registry.obj
 0001:0001da20       _mdl_outputs_processing    1001ea20 f   untitled1_sfun_registry.obj
 0001:0001daf0       _mdl_outputs_continuous_legacy 1001eaf0 f   untitled1_sfun_registry.obj
 0001:0001dbc0       _mdlGetTimeOfNextVarHit    1001ebc0 f   untitled1_sfun_registry.obj
 0001:0001dc00       __ProcessMexSfunctionCmdLineCall 1001ec00 f   untitled1_sfun_registry.obj
 0001:0001e220       _mdlSetWorkWidths          1001f220 f   untitled1_sfun_registry.obj
 0001:0001e240       _mdlProcessParameters      1001f240 f   untitled1_sfun_registry.obj
 0001:0001e260       _mdlInitializeSizes        1001f260 f   untitled1_sfun_registry.obj
 0001:0001e280       _mdlExtModeExec            1001f280 f   untitled1_sfun_registry.obj
 0001:0001e2a0       _mdl_ext_mode_exec_processing 1001f2a0 f   untitled1_sfun_registry.obj
 0001:0001e2e0       _mdlRTW                    1001f2e0 f   untitled1_sfun_registry.obj
 0001:0001e310       __CreateSimStruct          1001f310 f   untitled1_sfun_registry.obj
 0001:0001e440       __RegNumInputPortsCB       1001f440 f   untitled1_sfun_registry.obj
 0001:0001e4a0       __RegNumOutputPortsCB      1001f4a0 f   untitled1_sfun_registry.obj
 0001:0001e9d9       _pre_c_init                1001f9d9 f   MSVCRT:crtdll.obj
 0001:0001ec31       ___DllMainCRTStartup       1001fc31 f   MSVCRT:crtdll.obj
