 ARP_02_RPSsmile_GloveSHORE_sfun

 Timestamp is 5501efdf (Thu Mar 12 12:58:23 2015)

 Preferred load address is 10000000

 Start         Length     Name                   Class
 0001:00000000 0005d334H .text                   CODE
 0002:00000000 00000294H .idata$5                DATA
 0002:00000294 00000004H .CRT$XCA                DATA
 0002:00000298 00000004H .CRT$XCZ                DATA
 0002:0000029c 00000004H .CRT$XIA                DATA
 0002:000002a0 00000004H .CRT$XIAA               DATA
 0002:000002a4 00000004H .CRT$XIC                DATA
 0002:000002a8 00000004H .CRT$XIZ                DATA
 0002:000002b0 00000980H .rdata                  DATA
 0002:00000c30 00000004H .rdata$sxdata           DATA
 0002:00000c34 00000004H .rtc$IAA                DATA
 0002:00000c38 00000004H .rtc$IZZ                DATA
 0002:00000c3c 00000004H .rtc$TAA                DATA
 0002:00000c40 00000004H .rtc$TZZ                DATA
 0002:00000c48 00000064H .xdata$x                DATA
 0002:00000cac 0000008cH .idata$2                DATA
 0002:00000d38 00000014H .idata$3                DATA
 0002:00000d4c 00000294H .idata$4                DATA
 0002:00000fe0 00000ef6H .idata$6                DATA
 0002:00001ee0 00000065H .edata                  DATA
 0003:00000000 00019f40H .data                   DATA
 0003:00019f40 000004a8H .bss                    DATA

  Address         Publics by Value              Rva+Base       Lib:Object

 0000:00000000       __except_list              00000000     <absolute>
 0000:00000001       ___safe_se_handler_count   00000001     <absolute>
 0000:00009876       __ldused                   00009876     <absolute>
 0000:00009876       __fltused                  00009876     <absolute>
 0000:00000000       ___ImageBase               10000000     <linker-defined>
 0001:00000000       _ARP_02_RPSsmile_GloveSHORE_initializer 10001000 f   ARP_02_RPSsmile_GloveSHORE_sfun.obj
 0001:00000010       _ARP_02_RPSsmile_GloveSHORE_terminator 10001010 f   ARP_02_RPSsmile_GloveSHORE_sfun.obj
 0001:00000020       _sf_ARP_02_RPSsmile_GloveSHORE_method_dispatcher 10001020 f   ARP_02_RPSsmile_GloveSHORE_sfun.obj
 0001:000000b0       _sf_ARP_02_RPSsmile_GloveSHORE_process_check_sum_call 100010b0 f   ARP_02_RPSsmile_GloveSHORE_sfun.obj
 0001:000004b0       _sf_ARP_02_RPSsmile_GloveSHORE_autoinheritance_info 100014b0 f   ARP_02_RPSsmile_GloveSHORE_sfun.obj
 0001:000006b0       _sf_ARP_02_RPSsmile_GloveSHORE_get_eml_resolved_functions_info 100016b0 f   ARP_02_RPSsmile_GloveSHORE_sfun.obj
 0001:00000850       _sf_ARP_02_RPSsmile_GloveSHORE_third_party_uses_info 10001850 f   ARP_02_RPSsmile_GloveSHORE_sfun.obj
 0001:00000a20       _sf_ARP_02_RPSsmile_GloveSHORE_updateBuildInfo_args_info 10001a20 f   ARP_02_RPSsmile_GloveSHORE_sfun.obj
 0001:00000bf0       _ARP_02_RPSsmile_GloveSHORE_debug_initialize 10001bf0 f   ARP_02_RPSsmile_GloveSHORE_sfun.obj
 0001:00000c50       _ARP_02_RPSsmile_GloveSHORE_register_exported_symbols 10001c50 f   ARP_02_RPSsmile_GloveSHORE_sfun.obj
 0001:00000c60       _load_ARP_02_RPSsmile_GloveSHORE_optimization_info 10001c60 f   ARP_02_RPSsmile_GloveSHORE_sfun.obj
 0001:00000ca0       _unload_ARP_02_RPSsmile_GloveSHORE_optimization_info 10001ca0 f   ARP_02_RPSsmile_GloveSHORE_sfun.obj
 0001:00000ce0       _sf_c1_ARP_02_RPSsmile_GloveSHORE_get_eml_resolved_functions_info 10001ce0 f   c1_ARP_02_RPSsmile_GloveSHORE.obj
 0001:00005970       _sf_c1_ARP_02_RPSsmile_GloveSHORE_get_check_sum 10006970 f   c1_ARP_02_RPSsmile_GloveSHORE.obj
 0001:000059d0       _sf_c1_ARP_02_RPSsmile_GloveSHORE_get_autoinheritance_info 100069d0 f   c1_ARP_02_RPSsmile_GloveSHORE.obj
 0001:000078a0       _sf_c1_ARP_02_RPSsmile_GloveSHORE_third_party_uses_info 100088a0 f   c1_ARP_02_RPSsmile_GloveSHORE.obj
 0001:000078c0       _sf_c1_ARP_02_RPSsmile_GloveSHORE_updateBuildInfo_args_info 100088c0 f   c1_ARP_02_RPSsmile_GloveSHORE.obj
 0001:000078e0       _sf_internal_get_sim_state_c1_ARP_02_RPSsmile_GloveSHORE 100088e0 f   c1_ARP_02_RPSsmile_GloveSHORE.obj
 0001:00008f20       _sf_internal_set_sim_state_c1_ARP_02_RPSsmile_GloveSHORE 10009f20 f   c1_ARP_02_RPSsmile_GloveSHORE.obj
 0001:0000b740       _c1_ARP_02_RPSsmile_GloveSHORE_method_dispatcher 1000c740 f   c1_ARP_02_RPSsmile_GloveSHORE.obj
 0001:00050f20       _sf_c2_ARP_02_RPSsmile_GloveSHORE_get_eml_resolved_functions_info 10051f20 f   c2_ARP_02_RPSsmile_GloveSHORE.obj
 0001:00051220       _sf_c2_ARP_02_RPSsmile_GloveSHORE_get_check_sum 10052220 f   c2_ARP_02_RPSsmile_GloveSHORE.obj
 0001:00051280       _sf_c2_ARP_02_RPSsmile_GloveSHORE_get_autoinheritance_info 10052280 f   c2_ARP_02_RPSsmile_GloveSHORE.obj
 0001:00051970       _sf_c2_ARP_02_RPSsmile_GloveSHORE_third_party_uses_info 10052970 f   c2_ARP_02_RPSsmile_GloveSHORE.obj
 0001:00051990       _sf_c2_ARP_02_RPSsmile_GloveSHORE_updateBuildInfo_args_info 10052990 f   c2_ARP_02_RPSsmile_GloveSHORE.obj
 0001:000519b0       _sf_internal_get_sim_state_c2_ARP_02_RPSsmile_GloveSHORE 100529b0 f   c2_ARP_02_RPSsmile_GloveSHORE.obj
 0001:00051bf0       _sf_internal_set_sim_state_c2_ARP_02_RPSsmile_GloveSHORE 10052bf0 f   c2_ARP_02_RPSsmile_GloveSHORE.obj
 0001:00051e00       _c2_ARP_02_RPSsmile_GloveSHORE_method_dispatcher 10052e00 f   c2_ARP_02_RPSsmile_GloveSHORE.obj
 0001:00053ea0       _sf_c3_ARP_02_RPSsmile_GloveSHORE_get_eml_resolved_functions_info 10054ea0 f   c3_ARP_02_RPSsmile_GloveSHORE.obj
 0001:00053ef0       _sf_c3_ARP_02_RPSsmile_GloveSHORE_get_check_sum 10054ef0 f   c3_ARP_02_RPSsmile_GloveSHORE.obj
 0001:00053f50       _sf_c3_ARP_02_RPSsmile_GloveSHORE_get_autoinheritance_info 10054f50 f   c3_ARP_02_RPSsmile_GloveSHORE.obj
 0001:00054260       _sf_c3_ARP_02_RPSsmile_GloveSHORE_third_party_uses_info 10055260 f   c3_ARP_02_RPSsmile_GloveSHORE.obj
 0001:00054280       _sf_c3_ARP_02_RPSsmile_GloveSHORE_updateBuildInfo_args_info 10055280 f   c3_ARP_02_RPSsmile_GloveSHORE.obj
 0001:000542a0       _sf_internal_get_sim_state_c3_ARP_02_RPSsmile_GloveSHORE 100552a0 f   c3_ARP_02_RPSsmile_GloveSHORE.obj
 0001:00054540       _sf_internal_set_sim_state_c3_ARP_02_RPSsmile_GloveSHORE 10055540 f   c3_ARP_02_RPSsmile_GloveSHORE.obj
 0001:00054830       _c3_ARP_02_RPSsmile_GloveSHORE_method_dispatcher 10055830 f   c3_ARP_02_RPSsmile_GloveSHORE.obj
 0001:00055db0       _sf_c6_ARP_02_RPSsmile_GloveSHORE_get_eml_resolved_functions_info 10056db0 f   c6_ARP_02_RPSsmile_GloveSHORE.obj
 0001:00055e00       _sf_c6_ARP_02_RPSsmile_GloveSHORE_get_check_sum 10056e00 f   c6_ARP_02_RPSsmile_GloveSHORE.obj
 0001:00055e60       _sf_c6_ARP_02_RPSsmile_GloveSHORE_get_autoinheritance_info 10056e60 f   c6_ARP_02_RPSsmile_GloveSHORE.obj
 0001:00056170       _sf_c6_ARP_02_RPSsmile_GloveSHORE_third_party_uses_info 10057170 f   c6_ARP_02_RPSsmile_GloveSHORE.obj
 0001:00056190       _sf_c6_ARP_02_RPSsmile_GloveSHORE_updateBuildInfo_args_info 10057190 f   c6_ARP_02_RPSsmile_GloveSHORE.obj
 0001:000561b0       _sf_internal_get_sim_state_c6_ARP_02_RPSsmile_GloveSHORE 100571b0 f   c6_ARP_02_RPSsmile_GloveSHORE.obj
 0001:00056450       _sf_internal_set_sim_state_c6_ARP_02_RPSsmile_GloveSHORE 10057450 f   c6_ARP_02_RPSsmile_GloveSHORE.obj
 0001:00056740       _c6_ARP_02_RPSsmile_GloveSHORE_method_dispatcher 10057740 f   c6_ARP_02_RPSsmile_GloveSHORE.obj
 0001:00057a60       _sf_process_check_sum_call 10058a60 f   ARP_02_RPSsmile_GloveSHORE_sfun_registry.obj
 0001:00057a90       _sf_process_autoinheritance_call 10058a90 f   ARP_02_RPSsmile_GloveSHORE_sfun_registry.obj
 0001:00057bd0       _sf_process_get_third_party_uses_info_call 10058bd0 f   ARP_02_RPSsmile_GloveSHORE_sfun_registry.obj
 0001:00057d10       _sf_process_get_updateBuildInfo_args_info_call 10058d10 f   ARP_02_RPSsmile_GloveSHORE_sfun_registry.obj
 0001:00057e50       _sf_process_get_eml_resolved_functions_info_call 10058e50 f   ARP_02_RPSsmile_GloveSHORE_sfun_registry.obj
 0001:00057f70       _sf_mex_unlock_call        10058f70 f   ARP_02_RPSsmile_GloveSHORE_sfun_registry.obj
 0001:00058000       _sf_machine_global_initializer_called 10059000 f   ARP_02_RPSsmile_GloveSHORE_sfun_registry.obj
 0001:00058020       _sf_machine_global_method_dispatcher 10059020 f   ARP_02_RPSsmile_GloveSHORE_sfun_registry.obj
 0001:00058060       _sf_machine_global_terminator 10059060 f   ARP_02_RPSsmile_GloveSHORE_sfun_registry.obj
 0001:000580a0       _sf_register_machine_exported_symbols 100590a0 f   ARP_02_RPSsmile_GloveSHORE_sfun_registry.obj
 0001:000580c0       _callCustomFcn             100590c0 f   ARP_02_RPSsmile_GloveSHORE_sfun_registry.obj
 0001:000580d0       _sf_machine_global_initializer 100590d0 f   ARP_02_RPSsmile_GloveSHORE_sfun_registry.obj
 0001:00058140       _mdlGetSimState            10059140 f   ARP_02_RPSsmile_GloveSHORE_sfun_registry.obj
 0001:000581a0       _mdlSetSimState            100591a0 f   ARP_02_RPSsmile_GloveSHORE_sfun_registry.obj
 0001:000581d0       __ssSetStateAbsTol         100591d0 f   ARP_02_RPSsmile_GloveSHORE_sfun_registry.obj
 0001:00058270       __ssGetAbsTol              10059270 f   ARP_02_RPSsmile_GloveSHORE_sfun_registry.obj
 0001:000582c0       __ssSetInputPortMatrixDimensions 100592c0 f   ARP_02_RPSsmile_GloveSHORE_sfun_registry.obj
 0001:00058370       __ssSetOutputPortMatrixDimensions 10059370 f   ARP_02_RPSsmile_GloveSHORE_sfun_registry.obj
 0001:00058420       __ssSetInputPortVectorDimension 10059420 f   ARP_02_RPSsmile_GloveSHORE_sfun_registry.obj
 0001:000584a0       __ssSetOutputPortVectorDimension 100594a0 f   ARP_02_RPSsmile_GloveSHORE_sfun_registry.obj
 0001:00058520       _ssIsRunTimeParamTunable   10059520 f   ARP_02_RPSsmile_GloveSHORE_sfun_registry.obj
 0001:00058580       _ssGetSFuncBlockHandle     10059580 f   ARP_02_RPSsmile_GloveSHORE_sfun_registry.obj
 0001:000585d0       __ssGetCurrentInputPortWidth 100595d0 f   ARP_02_RPSsmile_GloveSHORE_sfun_registry.obj
 0001:000586a0       __ssGetCurrentOutputPortWidth 100596a0 f   ARP_02_RPSsmile_GloveSHORE_sfun_registry.obj
 0001:00058770       __ssGetCallSystemNumFcnCallDestinations 10059770 f   ARP_02_RPSsmile_GloveSHORE_sfun_registry.obj
 0001:000587d0       _ssWarning                 100597d0 f   ARP_02_RPSsmile_GloveSHORE_sfun_registry.obj
 0001:000588b0       _ssGetIsZeroCrossControlDisabled 100598b0 f   ARP_02_RPSsmile_GloveSHORE_sfun_registry.obj
 0001:00058910       _ssSetIsInputPortUsedForContZcSignal 10059910 f   ARP_02_RPSsmile_GloveSHORE_sfun_registry.obj
 0001:00058960       _ssSetZcSignalIsZcElementDisc 10059960 f   ARP_02_RPSsmile_GloveSHORE_sfun_registry.obj
 0001:000589e0       _ssSetZcSignalName         100599e0 f   ARP_02_RPSsmile_GloveSHORE_sfun_registry.obj
 0001:00058a30       _ssSetZcSignalWidth        10059a30 f   ARP_02_RPSsmile_GloveSHORE_sfun_registry.obj
 0001:00058a80       _ssSetZcSignalZcEventType  10059a80 f   ARP_02_RPSsmile_GloveSHORE_sfun_registry.obj
 0001:00058ad0       _ssSetZcSignalType         10059ad0 f   ARP_02_RPSsmile_GloveSHORE_sfun_registry.obj
 0001:00058b20       _ssSetZcSignalZcTol        10059b20 f   ARP_02_RPSsmile_GloveSHORE_sfun_registry.obj
 0001:00058b70       _ssSetZcSignalNeedsEventNotification 10059b70 f   ARP_02_RPSsmile_GloveSHORE_sfun_registry.obj
 0001:00058bc0       _ssCreateAndAddZcSignalInfo 10059bc0 f   ARP_02_RPSsmile_GloveSHORE_sfun_registry.obj
 0001:00058c20       _ssCloneAndAddZcSignalInfo 10059c20 f   ARP_02_RPSsmile_GloveSHORE_sfun_registry.obj
 0001:00058c80       _ssGetNumZcSignals         10059c80 f   ARP_02_RPSsmile_GloveSHORE_sfun_registry.obj
 0001:00058ce0       _ssGetZcSignalVector       10059ce0 f   ARP_02_RPSsmile_GloveSHORE_sfun_registry.obj
 0001:00058d40       _ssGetZcSignalZcEvents     10059d40 f   ARP_02_RPSsmile_GloveSHORE_sfun_registry.obj
 0001:00058da0       _ssGetZcSignalName         10059da0 f   ARP_02_RPSsmile_GloveSHORE_sfun_registry.obj
 0001:00058e00       _ssGetZcSignalWidth        10059e00 f   ARP_02_RPSsmile_GloveSHORE_sfun_registry.obj
 0001:00058e60       _ssGetZcSignalZcEventType  10059e60 f   ARP_02_RPSsmile_GloveSHORE_sfun_registry.obj
 0001:00058ec0       _ssGetZcSignalType         10059ec0 f   ARP_02_RPSsmile_GloveSHORE_sfun_registry.obj
 0001:00058f20       _ssGetZcSignalZcTol        10059f20 f   ARP_02_RPSsmile_GloveSHORE_sfun_registry.obj
 0001:00058f80       _ssGetZcSignalNeedsEventNotification 10059f80 f   ARP_02_RPSsmile_GloveSHORE_sfun_registry.obj
 0001:00058fe0       _ssGetZcSignalIsZcElementDisc 10059fe0 f   ARP_02_RPSsmile_GloveSHORE_sfun_registry.obj
 0001:00059060       _ssGetIsInputPortElementContinuous 1005a060 f   ARP_02_RPSsmile_GloveSHORE_sfun_registry.obj
 0001:000590e0       __ssGetInputPortSignalPtrsFcn 1005a0e0 f   ARP_02_RPSsmile_GloveSHORE_sfun_registry.obj
 0001:000592e0       __ssGetInputPortSignalFcn  1005a2e0 f   ARP_02_RPSsmile_GloveSHORE_sfun_registry.obj
 0001:00059470       __ssSetInputPortDirectFeedThroughFcn 1005a470 f   ARP_02_RPSsmile_GloveSHORE_sfun_registry.obj
 0001:000595a0       __ssSetInputPortReusableFcn 1005a5a0 f   ARP_02_RPSsmile_GloveSHORE_sfun_registry.obj
 0001:00059630       __ssSetOutputPortReusableFcn 1005a630 f   ARP_02_RPSsmile_GloveSHORE_sfun_registry.obj
 0001:000596c0       _ssGetDTypeIdFromMxArray   1005a6c0 f   ARP_02_RPSsmile_GloveSHORE_sfun_registry.obj
 0001:000597b0       _ssWriteRTWStr             1005a7b0 f   ARP_02_RPSsmile_GloveSHORE_sfun_registry.obj
 0001:000597f0       _ssWriteRTWMxVectParam     1005a7f0 f   ARP_02_RPSsmile_GloveSHORE_sfun_registry.obj
 0001:00059830       _ssWriteRTWMx2dMatParam    1005a830 f   ARP_02_RPSsmile_GloveSHORE_sfun_registry.obj
 0001:00059870       _ssWriteRTWNameValuePair   1005a870 f   ARP_02_RPSsmile_GloveSHORE_sfun_registry.obj
 0001:00059be0       _ssWriteRTWParameters      1005abe0 f   ARP_02_RPSsmile_GloveSHORE_sfun_registry.obj
 0001:00059f80       _ssWriteRTWParamSettings   1005af80 f   ARP_02_RPSsmile_GloveSHORE_sfun_registry.obj
 0001:0005a430       _ssWriteRTWWorkVect        1005b430 f   ARP_02_RPSsmile_GloveSHORE_sfun_registry.obj
 0001:0005a7c0       _mexFunction               1005b7c0 f   ARP_02_RPSsmile_GloveSHORE_sfun_registry.obj
 0001:0005c510       _ProcessMexSfunctionEveryCall 1005d510 f   ARP_02_RPSsmile_GloveSHORE_sfun_registry.obj
 0001:0005c62e       _sf_debug_set_machine_data_thresholds 1005d62e f   sf_runtime:sf_runtime.dll
 0001:0005c634       _sf_debug_set_machine_event_thresholds 1005d634 f   sf_runtime:sf_runtime.dll
 0001:0005c63a       _sf_debug_initialize_machine 1005d63a f   sf_runtime:sf_runtime.dll
 0001:0005c640       _sf_load_rtw_optimization_info 1005d640 f   sf_runtime:sf_runtime.dll
 0001:0005c646       _sf_mex_emlrtNameCapturePostProcessR2012a 1005d646 f   sf_runtime:sf_runtime.dll
 0001:0005c64c       _sf_mex_assign             1005d64c f   sf_runtime:sf_runtime.dll
 0001:0005c652       _sf_mex_createstruct       1005d652 f   sf_runtime:sf_runtime.dll
 0001:0005c658       _sf_mex_destroy            1005d658 f   sf_runtime:sf_runtime.dll
 0001:0005c65e       _sf_mex_duplicatearraysafe 1005d65e f   sf_runtime:sf_runtime.dll
 0001:0005c664       _sf_mex_createcellmatrix   1005d664 f   sf_runtime:sf_runtime.dll
 0001:0005c66a       _sf_mex_addfield           1005d66a f   sf_runtime:sf_runtime.dll
 0001:0005c670       _sf_mex_create             1005d670 f   sf_runtime:sf_runtime.dll
 0001:0005c676       _sf_mex_error_message      1005d676 f   sf_runtime:sf_runtime.dll
 0001:0005c67c       _sf_mex_call_matlab        1005d67c f   sf_runtime:sf_runtime.dll
 0001:0005c682       _sf_mex_setcell            1005d682 f   sf_runtime:sf_runtime.dll
 0001:0005c688       _sf_mex_decode_encoded_mx_struct_array 1005d688 f   sf_runtime:sf_runtime.dll
 0001:0005c68e       _sf_mex_getcell            1005d68e f   sf_runtime:sf_runtime.dll
 0001:0005c694       _sf_mex_dup                1005d694 f   sf_runtime:sf_runtime.dll
 0001:0005c69a       _sf_debug_animate          1005d69a f   sf_runtime:sf_runtime.dll
 0001:0005c6a0       _sf_debug_call             1005d6a0 f   sf_runtime:sf_runtime.dll
 0001:0005c6a6       _sf_debug_set_honor_breakpoints 1005d6a6 f   sf_runtime:sf_runtime.dll
 0001:0005c6ac       _sf_debug_set_animation    1005d6ac f   sf_runtime:sf_runtime.dll
 0001:0005c6b2       _sf_debug_get_animation    1005d6b2 f   sf_runtime:sf_runtime.dll
 0001:0005c6b8       _sf_mex_import             1005d6b8 f   sf_runtime:sf_runtime.dll
 0001:0005c6be       _sf_set_rtw_dwork_info     1005d6be f   sf_runtime:sf_runtime.dll
 0001:0005c6c4       _sf_mark_chart_reusable_outputs 1005d6c4 f   sf_runtime:sf_runtime.dll
 0001:0005c6ca       _sf_mark_chart_expressionable_inputs 1005d6ca f   sf_runtime:sf_runtime.dll
 0001:0005c6d0       _sf_mark_output_events_with_multiple_callers 1005d6d0 f   sf_runtime:sf_runtime.dll
 0001:0005c6d6       _sf_update_buildInfo       1005d6d6 f   sf_runtime:sf_runtime.dll
 0001:0005c6dc       _sf_rtw_info_uint_prop     1005d6dc f   sf_runtime:sf_runtime.dll
 0001:0005c6e2       _sf_is_chart_inlinable     1005d6e2 f   sf_runtime:sf_runtime.dll
 0001:0005c6e8       _sim_mode_is_external      1005d6e8 f   sf_runtime:sf_runtime.dll
 0001:0005c6ee       _sim_mode_is_rtw_gen       1005d6ee f   sf_runtime:sf_runtime.dll
 0001:0005c6f4       _sf_debug_reset_current_state_configuration 1005d6f4 f   sf_runtime:sf_runtime.dll
 0001:0005c6fa       _sf_debug_set_instance_data_value_ptr 1005d6fa f   sf_runtime:sf_runtime.dll
 0001:0005c700       _sf_debug_set_chart_data_compiled_props 1005d700 f   sf_runtime:sf_runtime.dll
 0001:0005c706       _cv_eml_init_mcdc          1005d706 f   sf_runtime:sf_runtime.dll
 0001:0005c70c       _cv_script_init_fcn        1005d70c f   sf_runtime:sf_runtime.dll
 0001:0005c712       _cv_script_init_script     1005d712 f   sf_runtime:sf_runtime.dll
 0001:0005c718       _cv_eml_init_if            1005d718 f   sf_runtime:sf_runtime.dll
 0001:0005c71e       _cv_eml_init_fcn           1005d71e f   sf_runtime:sf_runtime.dll
 0001:0005c724       _cv_eml_init_script        1005d724 f   sf_runtime:sf_runtime.dll
 0001:0005c72a       _sf_debug_cv_init_trans    1005d72a f   sf_runtime:sf_runtime.dll
 0001:0005c730       _sf_debug_cv_init_state    1005d730 f   sf_runtime:sf_runtime.dll
 0001:0005c736       _sf_debug_cv_init_chart    1005d736 f   sf_runtime:sf_runtime.dll
 0001:0005c73c       _sf_debug_set_chart_state_substate_index 1005d73c f   sf_runtime:sf_runtime.dll
 0001:0005c742       _sf_debug_set_chart_state_substate_count 1005d742 f   sf_runtime:sf_runtime.dll
 0001:0005c748       _sf_debug_set_chart_substate_index 1005d748 f   sf_runtime:sf_runtime.dll
 0001:0005c74e       _sf_debug_set_chart_decomposition 1005d74e f   sf_runtime:sf_runtime.dll
 0001:0005c754       _sf_debug_set_chart_substate_count 1005d754 f   sf_runtime:sf_runtime.dll
 0001:0005c75a       _sf_debug_set_chart_state_info 1005d75a f   sf_runtime:sf_runtime.dll
 0001:0005c760       _sf_debug_set_chart_event_scope 1005d760 f   sf_runtime:sf_runtime.dll
 0001:0005c766       _sf_debug_set_chart_data_props 1005d766 f   sf_runtime:sf_runtime.dll
 0001:0005c76c       _sf_debug_set_chart_event_thresholds 1005d76c f   sf_runtime:sf_runtime.dll
 0001:0005c772       _sf_debug_set_chart_disable_implicit_casting 1005d772 f   sf_runtime:sf_runtime.dll
 0001:0005c778       _sf_debug_initialize_chart 1005d778 f   sf_runtime:sf_runtime.dll
 0001:0005c77e       _sf_debug_set_script_translation 1005d77e f   sf_runtime:sf_runtime.dll
 0001:0005c784       _sf_debug_get_script_id    1005d784 f   sf_runtime:sf_runtime.dll
 0001:0005c78a       _sf_get_time               1005d78a f   sf_runtime:sf_runtime.dll
 0001:0005c790       _sf_call_output_fcn_enable 1005d790 f   sf_runtime:sf_runtime.dll
 0001:0005c796       _sf_call_output_fcn_disable 1005d796 f   sf_runtime:sf_runtime.dll
 0001:0005c79c       _sf_debug_check_for_state_inconsistency 1005d79c f   sf_runtime:sf_runtime.dll
 0001:0005c7a2       _sf_debug_symbol_scope_pop 1005d7a2 f   sf_runtime:sf_runtime.dll
 0001:0005c7a8       _sf_debug_data_range_wrapper 1005d7a8 f   sf_runtime:sf_runtime.dll
 0001:0005c7ae       _sf_debug_symbol_scope_push 1005d7ae f   sf_runtime:sf_runtime.dll
 0001:0005c7b4       _sf_mex_sub                1005d7b4 f   sf_runtime:sf_runtime.dll
 0001:0005c7ba       _cv_eml_eval               1005d7ba f   sf_runtime:sf_runtime.dll
 0001:0005c7c0       _sf_debug_temporal_threshold 1005d7c0 f   sf_runtime:sf_runtime.dll
 0001:0005c7c6       _cv_eval_point             1005d7c6 f   sf_runtime:sf_runtime.dll
 0001:0005c7cc       _sf_mex_call_debug         1005d7cc f   sf_runtime:sf_runtime.dll
 0001:0005c7d2       _sf_mex_printf             1005d7d2 f   sf_runtime:sf_runtime.dll
 0001:0005c7d8       _sf_debug_unset_instance_data_value_ptr 1005d7d8 f   sf_runtime:sf_runtime.dll
 0001:0005c7de       _sf_call_output_fcn_call   1005d7de f   sf_runtime:sf_runtime.dll
 0001:0005c7e4       _sf_debug_symbol_scope_add_importable 1005d7e4 f   sf_runtime:sf_runtime.dll
 0001:0005c7ea       _sf_debug_symbol_scope_add_eml_importable 1005d7ea f   sf_runtime:sf_runtime.dll
 0001:0005c7f0       _sf_debug_symbol_scope_push_eml 1005d7f0 f   sf_runtime:sf_runtime.dll
 0001:0005c7f6       _cv_script_eval            1005d7f6 f   sf_runtime:sf_runtime.dll
 0001:0005c7fc       _sf_debug_symbol_scope_add_eml 1005d7fc f   sf_runtime:sf_runtime.dll
 0001:0005c802       _eml_debug_line_call       1005d802 f   sf_runtime:sf_runtime.dll
 0001:0005c808       _sf_debug_eml_data_array_bounds_error_check 1005d808 f   sf_runtime:sf_runtime.dll
 0001:0005c80e       _sf_debug_read_before_write_check 1005d80e f   sf_runtime:sf_runtime.dll
 0001:0005c814       _sf_debug_integer_check    1005d814 f   sf_runtime:sf_runtime.dll
 0001:0005c81a       _sf_clear_rtw_identifier   1005d81a f   sf_runtime:sf_runtime.dll
 0001:0005c820       _sf_debug_terminate        1005d820 f   sf_runtime:sf_runtime.dll
 0001:0005c826       _sf_debug_create_debug_instance_struct 1005d826 f   sf_runtime:sf_runtime.dll
 0001:0005c82c       _sf_debug_api              1005d82c f   sf_runtime:sf_runtime.dll
 0001:0005c832       _callMdlMethodAndReportError 1005d832 f   sf_runtime:sf_runtime.dll
 0001:0005c838       _call_sf_machine_global_method_dispatcher 1005d838 f   sf_runtime:sf_runtime.dll
 0001:0005c83e       _sf_clear_error_manager_info 1005d83e f   sf_runtime:sf_runtime.dll
 0001:0005c844       _sf_mex_error_direct_call  1005d844 f   sf_runtime:sf_runtime.dll
 0001:0005c84a       _mxGetScalar               1005d84a f   libmx:libmx.dll
 0001:0005c850       _mxGetPr                   1005d850 f   libmx:libmx.dll
 0001:0005c856       _mxCreateDoubleMatrix_730  1005d856 f   libmx:libmx.dll
 0001:0005c85c       _mxGetString_730           1005d85c f   libmx:libmx.dll
 0001:0005c862       _mxIsChar                  1005d862 f   libmx:libmx.dll
 0001:0005c868       _mxDestroyArray            1005d868 f   libmx:libmx.dll
 0001:0005c86e       _mxDuplicateArray          1005d86e f   libmx:libmx.dll
 0001:0005c874       _mxCreateDoubleScalar      1005d874 f   libmx:libmx.dll
 0001:0005c87a       _mxSetField_730            1005d87a f   libmx:libmx.dll
 0001:0005c880       _mxCreateString            1005d880 f   libmx:libmx.dll
 0001:0005c886       _mxCreateStructMatrix_730  1005d886 f   libmx:libmx.dll
 0001:0005c88c       _mxCreateCellMatrix_730    1005d88c f   libmx:libmx.dll
 0001:0005c892       _mxIsEmpty                 1005d892 f   libmx:libmx.dll
 0001:0005c898       _mxGetClassID              1005d898 f   libmx:libmx.dll
 0001:0005c89e       _mxIsNumeric               1005d89e f   libmx:libmx.dll
 0001:0005c8a4       _mxIsComplex               1005d8a4 f   libmx:libmx.dll
 0001:0005c8aa       _mxGetN                    1005d8aa f   libmx:libmx.dll
 0001:0005c8b0       _mxGetM                    1005d8b0 f   libmx:libmx.dll
 0001:0005c8b6       _mxCalloc                  1005d8b6 f   libmx:libmx.dll
 0001:0005c8bc       _mexMakeArrayPersistent    1005d8bc f   libmex:libmex.dll
 0001:0005c8c2       _mexUnlock                 1005d8c2 f   libmex:libmex.dll
 0001:0005c8c8       _mexIsLocked               1005d8c8 f   libmex:libmex.dll
 0001:0005c8ce       _mexWarnMsgTxt             1005d8ce f   libmex:libmex.dll
 0001:0005c8d4       _mexCallMATLAB             1005d8d4 f   libmex:libmex.dll
 0001:0005c8da       _mexErrMsgTxt              1005d8da f   libmex:libmex.dll
 0001:0005c8e0       _mexLock                   1005d8e0 f   libmex:libmex.dll
 0001:0005c8e6       _utMalloc                  1005d8e6 f   libut:libut.dll
 0001:0005c8ec       _utFree                    1005d8ec f   libut:libut.dll
 0001:0005c8f2       _muDoubleScalarFloor       1005d8f2 f   libmwmathutil:libmwmathutil.dll
 0001:0005c8f8       _muDoubleScalarRound       1005d8f8 f   libmwmathutil:libmwmathutil.dll
 0001:0005c8fe       _strcmp                    1005d8fe f   MSVCRT:MSVCR100.dll
 0001:0005c910       @__security_check_cookie@4 1005d910 f   MSVCRT:secchk.obj
 0001:0005c920       _strlen                    1005d920 f   MSVCRT:MSVCR100.dll
 0001:0005c926       _memset                    1005d926 f   MSVCRT:MSVCR100.dll
 0001:0005c930       __chkstk                   1005d930 f   MSVCRT:chkstk.obj
 0001:0005c930       __alloca_probe             1005d930     MSVCRT:chkstk.obj
 0001:0005c960       __ftol2_sse                1005d960 f   MSVCRT:ftol2.obj
 0001:0005c969       __ftol2_pentium4           1005d969 f   MSVCRT:ftol2.obj
 0001:0005c97c       __ftol2_sse_excpt          1005d97c f   MSVCRT:ftol2.obj
 0001:0005c996       __ftol2                    1005d996 f   MSVCRT:ftol2.obj
 0001:0005ca0c       _free                      1005da0c f   MSVCRT:MSVCR100.dll
 0001:0005ca12       _sprintf                   1005da12 f   MSVCRT:MSVCR100.dll
 0001:0005ca18       _malloc                    1005da18 f   MSVCRT:MSVCR100.dll
 0001:0005ca1e       _strcat                    1005da1e f   MSVCRT:MSVCR100.dll
 0001:0005ca24       _memcpy                    1005da24 f   MSVCRT:MSVCR100.dll
 0001:0005ca2a       _NtCurrentTeb              1005da2a f i MSVCRT:crtdll.obj
 0001:0005ca7f       __CRT_INIT@12              1005da7f f   MSVCRT:crtdll.obj
 0001:0005cd9f       __DllMainCRTStartup@12     1005dd9f f   MSVCRT:crtdll.obj
 0001:0005cdc2       ___report_gsfailure        1005ddc2 f   MSVCRT:gs_report.obj
 0001:0005cec8       ___sse2_available_init     1005dec8 f   MSVCRT:cpu_disp.obj
 0001:0005ced8       ___clean_type_info_names   1005ded8 f   MSVCRT:tncleanup.obj
 0001:0005cee4       __onexit                   1005dee4 f   MSVCRT:atonexit.obj
 0001:0005cf85       _atexit                    1005df85 f   MSVCRT:atonexit.obj
 0001:0005cf9c       __RTC_Initialize           1005df9c f   MSVCRT:_initsect_.obj
 0001:0005cfc2       __RTC_Terminate            1005dfc2 f   MSVCRT:_initsect_.obj
 0001:0005cfe8       __malloc_crt               1005dfe8 f   MSVCRT:MSVCR100.dll
 0001:0005cfee       __encoded_null             1005dfee f   MSVCRT:MSVCR100.dll
 0001:0005d000       __ValidateImageBase        1005e000 f   MSVCRT:pesect.obj
 0001:0005d040       __FindPESection            1005e040 f   MSVCRT:pesect.obj
 0001:0005d090       __IsNonwritableInCurrentImage 1005e090 f   MSVCRT:pesect.obj
 0001:0005d14c       __initterm                 1005e14c f   MSVCRT:MSVCR100.dll
 0001:0005d152       __initterm_e               1005e152 f   MSVCRT:MSVCR100.dll
 0001:0005d158       __amsg_exit                1005e158 f   MSVCRT:MSVCR100.dll
 0001:0005d15e       ___CppXcptFilter           1005e15e f   MSVCRT:MSVCR100.dll
 0001:0005d164       _DllMain@12                1005e164 f   MSVCRT:dllmain.obj
 0001:0005d190       __SEH_prolog4              1005e190 f   MSVCRT:sehprolg4.obj
 0001:0005d1d5       __SEH_epilog4              1005e1d5 f   MSVCRT:sehprolg4.obj
 0001:0005d1e9       __except_handler4          1005e1e9 f   MSVCRT:chandler4gs.obj
 0001:0005d20e       ___security_init_cookie    1005e20e f   MSVCRT:gs_support.obj
 0001:0005d2aa       __crt_debugger_hook        1005e2aa f   MSVCRT:MSVCR100.dll
 0001:0005d2b0       ___clean_type_info_names_internal 1005e2b0 f   MSVCRT:MSVCR100.dll
 0001:0005d2b6       __unlock                   1005e2b6 f   MSVCRT:MSVCR100.dll
 0001:0005d2bc       ___dllonexit               1005e2bc f   MSVCRT:MSVCR100.dll
 0001:0005d2c2       __lock                     1005e2c2 f   MSVCRT:MSVCR100.dll
 0001:0005d2c8       __except_handler4_common   1005e2c8 f   MSVCRT:MSVCR100.dll
 0001:0005d2ce       _EncodePointer@4           1005e2ce f   kernel32:KERNEL32.dll
 0001:0005d2d4       _DecodePointer@4           1005e2d4 f   kernel32:KERNEL32.dll
 0001:0005d2da       _InterlockedExchange@8     1005e2da f   kernel32:KERNEL32.dll
 0001:0005d2e0       _Sleep@4                   1005e2e0 f   kernel32:KERNEL32.dll
 0001:0005d2e6       _InterlockedCompareExchange@12 1005e2e6 f   kernel32:KERNEL32.dll
 0001:0005d2ec       _TerminateProcess@8        1005e2ec f   kernel32:KERNEL32.dll
 0001:0005d2f2       _GetCurrentProcess@0       1005e2f2 f   kernel32:KERNEL32.dll
 0001:0005d2f8       _UnhandledExceptionFilter@4 1005e2f8 f   kernel32:KERNEL32.dll
 0001:0005d2fe       _SetUnhandledExceptionFilter@4 1005e2fe f   kernel32:KERNEL32.dll
 0001:0005d304       _IsDebuggerPresent@0       1005e304 f   kernel32:KERNEL32.dll
 0001:0005d30a       _IsProcessorFeaturePresent@4 1005e30a f   kernel32:KERNEL32.dll
 0001:0005d310       _DisableThreadLibraryCalls@4 1005e310 f   kernel32:KERNEL32.dll
 0001:0005d316       _QueryPerformanceCounter@4 1005e316 f   kernel32:KERNEL32.dll
 0001:0005d31c       _GetTickCount@0            1005e31c f   kernel32:KERNEL32.dll
 0001:0005d322       _GetCurrentThreadId@0      1005e322 f   kernel32:KERNEL32.dll
 0001:0005d328       _GetCurrentProcessId@0     1005e328 f   kernel32:KERNEL32.dll
 0001:0005d32e       _GetSystemTimeAsFileTime@4 1005e32e f   kernel32:KERNEL32.dll
 0002:00000000       __imp__GetCurrentProcessId@0 1005f000     kernel32:KERNEL32.dll
 0002:00000004       __imp__GetCurrentThreadId@0 1005f004     kernel32:KERNEL32.dll
 0002:00000008       __imp__GetTickCount@0      1005f008     kernel32:KERNEL32.dll
 0002:0000000c       __imp__QueryPerformanceCounter@4 1005f00c     kernel32:KERNEL32.dll
 0002:00000010       __imp__DisableThreadLibraryCalls@4 1005f010     kernel32:KERNEL32.dll
 0002:00000014       __imp__IsProcessorFeaturePresent@4 1005f014     kernel32:KERNEL32.dll
 0002:00000018       __imp__IsDebuggerPresent@0 1005f018     kernel32:KERNEL32.dll
 0002:0000001c       __imp__SetUnhandledExceptionFilter@4 1005f01c     kernel32:KERNEL32.dll
 0002:00000020       __imp__UnhandledExceptionFilter@4 1005f020     kernel32:KERNEL32.dll
 0002:00000024       __imp__GetCurrentProcess@0 1005f024     kernel32:KERNEL32.dll
 0002:00000028       __imp__TerminateProcess@8  1005f028     kernel32:KERNEL32.dll
 0002:0000002c       __imp__InterlockedCompareExchange@12 1005f02c     kernel32:KERNEL32.dll
 0002:00000030       __imp__Sleep@4             1005f030     kernel32:KERNEL32.dll
 0002:00000034       __imp__InterlockedExchange@8 1005f034     kernel32:KERNEL32.dll
 0002:00000038       __imp__DecodePointer@4     1005f038     kernel32:KERNEL32.dll
 0002:0000003c       __imp__EncodePointer@4     1005f03c     kernel32:KERNEL32.dll
 0002:00000040       __imp__GetSystemTimeAsFileTime@4 1005f040     kernel32:KERNEL32.dll
 0002:00000044       \177KERNEL32_NULL_THUNK_DATA 1005f044     kernel32:KERNEL32.dll
 0002:00000048       __imp___except_handler4_common 1005f048     MSVCRT:MSVCR100.dll
 0002:0000004c       __imp___onexit             1005f04c     MSVCRT:MSVCR100.dll
 0002:00000050       __imp___lock               1005f050     MSVCRT:MSVCR100.dll
 0002:00000054       __imp____dllonexit         1005f054     MSVCRT:MSVCR100.dll
 0002:00000058       __imp___unlock             1005f058     MSVCRT:MSVCR100.dll
 0002:0000005c       __imp____clean_type_info_names_internal 1005f05c     MSVCRT:MSVCR100.dll
 0002:00000060       __imp___crt_debugger_hook  1005f060     MSVCRT:MSVCR100.dll
 0002:00000064       __imp____CppXcptFilter     1005f064     MSVCRT:MSVCR100.dll
 0002:00000068       __imp___amsg_exit          1005f068     MSVCRT:MSVCR100.dll
 0002:0000006c       __imp___initterm_e         1005f06c     MSVCRT:MSVCR100.dll
 0002:00000070       __imp___initterm           1005f070     MSVCRT:MSVCR100.dll
 0002:00000074       __imp___encoded_null       1005f074     MSVCRT:MSVCR100.dll
 0002:00000078       __imp___malloc_crt         1005f078     MSVCRT:MSVCR100.dll
 0002:0000007c       __imp__memcpy              1005f07c     MSVCRT:MSVCR100.dll
 0002:00000080       __imp__strcat              1005f080     MSVCRT:MSVCR100.dll
 0002:00000084       __imp__malloc              1005f084     MSVCRT:MSVCR100.dll
 0002:00000088       __imp__sprintf             1005f088     MSVCRT:MSVCR100.dll
 0002:0000008c       __imp__free                1005f08c     MSVCRT:MSVCR100.dll
 0002:00000090       __imp__memset              1005f090     MSVCRT:MSVCR100.dll
 0002:00000094       __imp__strlen              1005f094     MSVCRT:MSVCR100.dll
 0002:00000098       __imp__strcmp              1005f098     MSVCRT:MSVCR100.dll
 0002:0000009c       \177MSVCR100_NULL_THUNK_DATA 1005f09c     MSVCRT:MSVCR100.dll
 0002:000000a0       __imp__mexErrMsgTxt        1005f0a0     libmex:libmex.dll
 0002:000000a4       __imp__mexUnlock           1005f0a4     libmex:libmex.dll
 0002:000000a8       __imp__mexIsLocked         1005f0a8     libmex:libmex.dll
 0002:000000ac       __imp__mexLock             1005f0ac     libmex:libmex.dll
 0002:000000b0       __imp__mexMakeArrayPersistent 1005f0b0     libmex:libmex.dll
 0002:000000b4       __imp__mexCallMATLAB       1005f0b4     libmex:libmex.dll
 0002:000000b8       __imp__mexWarnMsgTxt       1005f0b8     libmex:libmex.dll
 0002:000000bc       \177libmex_NULL_THUNK_DATA 1005f0bc     libmex:libmex.dll
 0002:000000c0       __imp__muDoubleScalarRound 1005f0c0     libmwmathutil:libmwmathutil.dll
 0002:000000c4       __imp__muDoubleScalarFloor 1005f0c4     libmwmathutil:libmwmathutil.dll
 0002:000000c8       \177libmwmathutil_NULL_THUNK_DATA 1005f0c8     libmwmathutil:libmwmathutil.dll
 0002:000000cc       __imp__mxCalloc            1005f0cc     libmx:libmx.dll
 0002:000000d0       __imp__mxGetM              1005f0d0     libmx:libmx.dll
 0002:000000d4       __imp__mxGetN              1005f0d4     libmx:libmx.dll
 0002:000000d8       __imp__mxIsComplex         1005f0d8     libmx:libmx.dll
 0002:000000dc       __imp__mxIsNumeric         1005f0dc     libmx:libmx.dll
 0002:000000e0       __imp__mxGetClassID        1005f0e0     libmx:libmx.dll
 0002:000000e4       __imp__mxIsEmpty           1005f0e4     libmx:libmx.dll
 0002:000000e8       __imp__mxCreateCellMatrix_730 1005f0e8     libmx:libmx.dll
 0002:000000ec       __imp__mxCreateStructMatrix_730 1005f0ec     libmx:libmx.dll
 0002:000000f0       __imp__mxCreateString      1005f0f0     libmx:libmx.dll
 0002:000000f4       __imp__mxSetField_730      1005f0f4     libmx:libmx.dll
 0002:000000f8       __imp__mxCreateDoubleScalar 1005f0f8     libmx:libmx.dll
 0002:000000fc       __imp__mxDuplicateArray    1005f0fc     libmx:libmx.dll
 0002:00000100       __imp__mxDestroyArray      1005f100     libmx:libmx.dll
 0002:00000104       __imp__mxIsChar            1005f104     libmx:libmx.dll
 0002:00000108       __imp__mxGetString_730     1005f108     libmx:libmx.dll
 0002:0000010c       __imp__mxCreateDoubleMatrix_730 1005f10c     libmx:libmx.dll
 0002:00000110       __imp__mxGetPr             1005f110     libmx:libmx.dll
 0002:00000114       __imp__mxGetScalar         1005f114     libmx:libmx.dll
 0002:00000118       \177libmx_NULL_THUNK_DATA  1005f118     libmx:libmx.dll
 0002:0000011c       __imp__utMalloc            1005f11c     libut:libut.dll
 0002:00000120       __imp__utFree              1005f120     libut:libut.dll
 0002:00000124       \177libut_NULL_THUNK_DATA  1005f124     libut:libut.dll
 0002:00000128       __imp__sf_debug_symbol_scope_add_eml_importable 1005f128     sf_runtime:sf_runtime.dll
 0002:0000012c       __imp__sf_debug_symbol_scope_push_eml 1005f12c     sf_runtime:sf_runtime.dll
 0002:00000130       __imp__cv_script_eval      1005f130     sf_runtime:sf_runtime.dll
 0002:00000134       __imp__sf_debug_symbol_scope_add_eml 1005f134     sf_runtime:sf_runtime.dll
 0002:00000138       __imp__eml_debug_line_call 1005f138     sf_runtime:sf_runtime.dll
 0002:0000013c       __imp__sf_debug_eml_data_array_bounds_error_check 1005f13c     sf_runtime:sf_runtime.dll
 0002:00000140       __imp__sf_debug_read_before_write_check 1005f140     sf_runtime:sf_runtime.dll
 0002:00000144       __imp__sf_debug_integer_check 1005f144     sf_runtime:sf_runtime.dll
 0002:00000148       __imp__sf_mex_printf       1005f148     sf_runtime:sf_runtime.dll
 0002:0000014c       __imp__sf_debug_terminate  1005f14c     sf_runtime:sf_runtime.dll
 0002:00000150       __imp__sf_debug_create_debug_instance_struct 1005f150     sf_runtime:sf_runtime.dll
 0002:00000154       __imp__sf_debug_api        1005f154     sf_runtime:sf_runtime.dll
 0002:00000158       __imp__callMdlMethodAndReportError 1005f158     sf_runtime:sf_runtime.dll
 0002:0000015c       __imp__call_sf_machine_global_method_dispatcher 1005f15c     sf_runtime:sf_runtime.dll
 0002:00000160       __imp__sf_clear_error_manager_info 1005f160     sf_runtime:sf_runtime.dll
 0002:00000164       __imp__sf_mex_error_direct_call 1005f164     sf_runtime:sf_runtime.dll
 0002:00000168       __imp__sf_debug_animate    1005f168     sf_runtime:sf_runtime.dll
 0002:0000016c       __imp__sf_mex_call_debug   1005f16c     sf_runtime:sf_runtime.dll
 0002:00000170       __imp__cv_eval_point       1005f170     sf_runtime:sf_runtime.dll
 0002:00000174       __imp__sf_debug_temporal_threshold 1005f174     sf_runtime:sf_runtime.dll
 0002:00000178       __imp__cv_eml_eval         1005f178     sf_runtime:sf_runtime.dll
 0002:0000017c       __imp__sf_debug_symbol_scope_add_importable 1005f17c     sf_runtime:sf_runtime.dll
 0002:00000180       __imp__sf_debug_symbol_scope_push 1005f180     sf_runtime:sf_runtime.dll
 0002:00000184       __imp__sf_debug_data_range_wrapper 1005f184     sf_runtime:sf_runtime.dll
 0002:00000188       __imp__sf_debug_symbol_scope_pop 1005f188     sf_runtime:sf_runtime.dll
 0002:0000018c       __imp__sf_debug_check_for_state_inconsistency 1005f18c     sf_runtime:sf_runtime.dll
 0002:00000190       __imp__sf_call_output_fcn_disable 1005f190     sf_runtime:sf_runtime.dll
 0002:00000194       __imp__sf_call_output_fcn_enable 1005f194     sf_runtime:sf_runtime.dll
 0002:00000198       __imp__sf_get_time         1005f198     sf_runtime:sf_runtime.dll
 0002:0000019c       __imp__sf_debug_get_script_id 1005f19c     sf_runtime:sf_runtime.dll
 0002:000001a0       __imp__sf_debug_set_script_translation 1005f1a0     sf_runtime:sf_runtime.dll
 0002:000001a4       __imp__sf_debug_initialize_chart 1005f1a4     sf_runtime:sf_runtime.dll
 0002:000001a8       __imp__sf_debug_set_chart_disable_implicit_casting 1005f1a8     sf_runtime:sf_runtime.dll
 0002:000001ac       __imp__sf_debug_set_chart_event_thresholds 1005f1ac     sf_runtime:sf_runtime.dll
 0002:000001b0       __imp__sf_debug_set_chart_data_props 1005f1b0     sf_runtime:sf_runtime.dll
 0002:000001b4       __imp__sf_debug_set_chart_event_scope 1005f1b4     sf_runtime:sf_runtime.dll
 0002:000001b8       __imp__sf_debug_set_chart_state_info 1005f1b8     sf_runtime:sf_runtime.dll
 0002:000001bc       __imp__sf_debug_set_chart_substate_count 1005f1bc     sf_runtime:sf_runtime.dll
 0002:000001c0       __imp__sf_debug_set_chart_decomposition 1005f1c0     sf_runtime:sf_runtime.dll
 0002:000001c4       __imp__sf_debug_set_chart_substate_index 1005f1c4     sf_runtime:sf_runtime.dll
 0002:000001c8       __imp__sf_debug_set_chart_state_substate_count 1005f1c8     sf_runtime:sf_runtime.dll
 0002:000001cc       __imp__sf_debug_set_chart_state_substate_index 1005f1cc     sf_runtime:sf_runtime.dll
 0002:000001d0       __imp__sf_debug_cv_init_chart 1005f1d0     sf_runtime:sf_runtime.dll
 0002:000001d4       __imp__sf_debug_cv_init_state 1005f1d4     sf_runtime:sf_runtime.dll
 0002:000001d8       __imp__sf_call_output_fcn_call 1005f1d8     sf_runtime:sf_runtime.dll
 0002:000001dc       __imp__sf_mex_sub          1005f1dc     sf_runtime:sf_runtime.dll
 0002:000001e0       __imp__sf_debug_unset_instance_data_value_ptr 1005f1e0     sf_runtime:sf_runtime.dll
 0002:000001e4       __imp__sf_debug_cv_init_trans 1005f1e4     sf_runtime:sf_runtime.dll
 0002:000001e8       __imp__cv_eml_init_script  1005f1e8     sf_runtime:sf_runtime.dll
 0002:000001ec       __imp__cv_eml_init_fcn     1005f1ec     sf_runtime:sf_runtime.dll
 0002:000001f0       __imp__cv_eml_init_if      1005f1f0     sf_runtime:sf_runtime.dll
 0002:000001f4       __imp__cv_script_init_script 1005f1f4     sf_runtime:sf_runtime.dll
 0002:000001f8       __imp__cv_script_init_fcn  1005f1f8     sf_runtime:sf_runtime.dll
 0002:000001fc       __imp__cv_eml_init_mcdc    1005f1fc     sf_runtime:sf_runtime.dll
 0002:00000200       __imp__sf_debug_set_chart_data_compiled_props 1005f200     sf_runtime:sf_runtime.dll
 0002:00000204       __imp__sf_debug_set_instance_data_value_ptr 1005f204     sf_runtime:sf_runtime.dll
 0002:00000208       __imp__sf_debug_reset_current_state_configuration 1005f208     sf_runtime:sf_runtime.dll
 0002:0000020c       __imp__sim_mode_is_rtw_gen 1005f20c     sf_runtime:sf_runtime.dll
 0002:00000210       __imp__sim_mode_is_external 1005f210     sf_runtime:sf_runtime.dll
 0002:00000214       __imp__sf_is_chart_inlinable 1005f214     sf_runtime:sf_runtime.dll
 0002:00000218       __imp__sf_rtw_info_uint_prop 1005f218     sf_runtime:sf_runtime.dll
 0002:0000021c       __imp__sf_update_buildInfo 1005f21c     sf_runtime:sf_runtime.dll
 0002:00000220       __imp__sf_mark_output_events_with_multiple_callers 1005f220     sf_runtime:sf_runtime.dll
 0002:00000224       __imp__sf_mark_chart_expressionable_inputs 1005f224     sf_runtime:sf_runtime.dll
 0002:00000228       __imp__sf_mark_chart_reusable_outputs 1005f228     sf_runtime:sf_runtime.dll
 0002:0000022c       __imp__sf_set_rtw_dwork_info 1005f22c     sf_runtime:sf_runtime.dll
 0002:00000230       __imp__sf_mex_import       1005f230     sf_runtime:sf_runtime.dll
 0002:00000234       __imp__sf_debug_get_animation 1005f234     sf_runtime:sf_runtime.dll
 0002:00000238       __imp__sf_debug_set_animation 1005f238     sf_runtime:sf_runtime.dll
 0002:0000023c       __imp__sf_debug_set_honor_breakpoints 1005f23c     sf_runtime:sf_runtime.dll
 0002:00000240       __imp__sf_debug_call       1005f240     sf_runtime:sf_runtime.dll
 0002:00000244       __imp__sf_mex_dup          1005f244     sf_runtime:sf_runtime.dll
 0002:00000248       __imp__sf_mex_getcell      1005f248     sf_runtime:sf_runtime.dll
 0002:0000024c       __imp__sf_mex_decode_encoded_mx_struct_array 1005f24c     sf_runtime:sf_runtime.dll
 0002:00000250       __imp__sf_mex_setcell      1005f250     sf_runtime:sf_runtime.dll
 0002:00000254       __imp__sf_mex_call_matlab  1005f254     sf_runtime:sf_runtime.dll
 0002:00000258       __imp__sf_mex_error_message 1005f258     sf_runtime:sf_runtime.dll
 0002:0000025c       __imp__sf_mex_create       1005f25c     sf_runtime:sf_runtime.dll
 0002:00000260       __imp__sf_mex_addfield     1005f260     sf_runtime:sf_runtime.dll
 0002:00000264       __imp__sf_mex_createcellmatrix 1005f264     sf_runtime:sf_runtime.dll
 0002:00000268       __imp__sf_mex_duplicatearraysafe 1005f268     sf_runtime:sf_runtime.dll
 0002:0000026c       __imp__sf_mex_destroy      1005f26c     sf_runtime:sf_runtime.dll
 0002:00000270       __imp__sf_mex_createstruct 1005f270     sf_runtime:sf_runtime.dll
 0002:00000274       __imp__sf_mex_assign       1005f274     sf_runtime:sf_runtime.dll
 0002:00000278       __imp__sf_mex_emlrtNameCapturePostProcessR2012a 1005f278     sf_runtime:sf_runtime.dll
 0002:0000027c       __imp__sf_load_rtw_optimization_info 1005f27c     sf_runtime:sf_runtime.dll
 0002:00000280       __imp__sf_debug_initialize_machine 1005f280     sf_runtime:sf_runtime.dll
 0002:00000284       __imp__sf_debug_set_machine_event_thresholds 1005f284     sf_runtime:sf_runtime.dll
 0002:00000288       __imp__sf_clear_rtw_identifier 1005f288     sf_runtime:sf_runtime.dll
 0002:0000028c       __imp__sf_debug_set_machine_data_thresholds 1005f28c     sf_runtime:sf_runtime.dll
 0002:00000290       \177sf_runtime_NULL_THUNK_DATA 1005f290     sf_runtime:sf_runtime.dll
 0002:00000294       ___xc_a                    1005f294     MSVCRT:cinitexe.obj
 0002:00000298       ___xc_z                    1005f298     MSVCRT:cinitexe.obj
 0002:0000029c       ___xi_a                    1005f29c     MSVCRT:cinitexe.obj
 0002:000002a8       ___xi_z                    1005f2a8     MSVCRT:cinitexe.obj
 0002:000002b0       __real@41dda6fa26800000    1005f2b0     ARP_02_RPSsmile_GloveSHORE_sfun.obj
 0002:000002b8       __real@41e272f605c00000    1005f2b8     ARP_02_RPSsmile_GloveSHORE_sfun.obj
 0002:000002c0       __real@41ef1e6df8200000    1005f2c0     ARP_02_RPSsmile_GloveSHORE_sfun.obj
 0002:000002c8       __real@41e2b7e3cc600000    1005f2c8     ARP_02_RPSsmile_GloveSHORE_sfun.obj
 0002:000002d0       __real@41b0fb04df000000    1005f2d0     ARP_02_RPSsmile_GloveSHORE_sfun.obj
 0002:000002d8       __real@41da14ed17400000    1005f2d8     ARP_02_RPSsmile_GloveSHORE_sfun.obj
 0002:000002e0       __real@41d47f2e8cc00000    1005f2e0     ARP_02_RPSsmile_GloveSHORE_sfun.obj
 0002:000002e8       __real@41eb0e6e75400000    1005f2e8     ARP_02_RPSsmile_GloveSHORE_sfun.obj
 0002:000002f0       __real@41cf4bdbd4000000    1005f2f0     ARP_02_RPSsmile_GloveSHORE_sfun.obj
 0002:000002f8       __real@41b0bfb688000000    1005f2f8     ARP_02_RPSsmile_GloveSHORE_sfun.obj
 0002:00000300       __real@41c0e65cb6800000    1005f300     ARP_02_RPSsmile_GloveSHORE_sfun.obj
 0002:00000308       __real@41d453546dc00000    1005f308     ARP_02_RPSsmile_GloveSHORE_sfun.obj
 0002:00000310       __real@0000000000000000    1005f310     ARP_02_RPSsmile_GloveSHORE_sfun.obj
 0002:00000318       __real@41abaf9408000000    1005f318     ARP_02_RPSsmile_GloveSHORE_sfun.obj
 0002:00000320       __real@41e08668a7000000    1005f320     ARP_02_RPSsmile_GloveSHORE_sfun.obj
 0002:00000328       __real@41c64a92e0800000    1005f328     ARP_02_RPSsmile_GloveSHORE_sfun.obj
 0002:00000330       __real@41cd86a862800000    1005f330     ARP_02_RPSsmile_GloveSHORE_sfun.obj
 0002:00000338       __real@41d8b0e115000000    1005f338     c1_ARP_02_RPSsmile_GloveSHORE.obj
 0002:00000340       __real@41edc77097800000    1005f340     c1_ARP_02_RPSsmile_GloveSHORE.obj
 0002:00000348       __real@41e1d58f09e00000    1005f348     c1_ARP_02_RPSsmile_GloveSHORE.obj
 0002:00000350       __real@41ea904594e00000    1005f350     c1_ARP_02_RPSsmile_GloveSHORE.obj
 0002:00000358       __real@4024000000000000    1005f358     c1_ARP_02_RPSsmile_GloveSHORE.obj
 0002:00000360       __real@3ff0000000000000    1005f360     c1_ARP_02_RPSsmile_GloveSHORE.obj
 0002:00000368       __real@4008000000000000    1005f368     c1_ARP_02_RPSsmile_GloveSHORE.obj
 0002:00000370       __real@4000000000000000    1005f370     c1_ARP_02_RPSsmile_GloveSHORE.obj
 0002:00000378       __real@4018000000000000    1005f378     c1_ARP_02_RPSsmile_GloveSHORE.obj
 0002:00000380       __real@4020000000000000    1005f380     c1_ARP_02_RPSsmile_GloveSHORE.obj
 0002:00000388       __real@4014000000000000    1005f388     c1_ARP_02_RPSsmile_GloveSHORE.obj
 0002:00000390       __real@4057800000000000    1005f390     c1_ARP_02_RPSsmile_GloveSHORE.obj
 0002:00000398       __real@4070000000000000    1005f398     c1_ARP_02_RPSsmile_GloveSHORE.obj
 0002:000003a0       __real@4010000000000000    1005f3a0     c1_ARP_02_RPSsmile_GloveSHORE.obj
 0002:000003a8       __real@4034000000000000    1005f3a8     c1_ARP_02_RPSsmile_GloveSHORE.obj
 0002:000003b0       __real@4031000000000000    1005f3b0     c1_ARP_02_RPSsmile_GloveSHORE.obj
 0002:000003b8       __real@4030000000000000    1005f3b8     c1_ARP_02_RPSsmile_GloveSHORE.obj
 0002:000003c0       __real@4022000000000000    1005f3c0     c1_ARP_02_RPSsmile_GloveSHORE.obj
 0002:000003c8       __real@4032000000000000    1005f3c8     c1_ARP_02_RPSsmile_GloveSHORE.obj
 0002:000003d0       __real@402e000000000000    1005f3d0     c1_ARP_02_RPSsmile_GloveSHORE.obj
 0002:000003d8       __real@402c000000000000    1005f3d8     c1_ARP_02_RPSsmile_GloveSHORE.obj
 0002:000003e0       __real@402a000000000000    1005f3e0     c1_ARP_02_RPSsmile_GloveSHORE.obj
 0002:000003e8       __real@4028000000000000    1005f3e8     c1_ARP_02_RPSsmile_GloveSHORE.obj
 0002:000003f0       __real@4026000000000000    1005f3f0     c1_ARP_02_RPSsmile_GloveSHORE.obj
 0002:000003f8       __real@401c000000000000    1005f3f8     c1_ARP_02_RPSsmile_GloveSHORE.obj
 0002:00000400       __real@4056000000000000    1005f400     c1_ARP_02_RPSsmile_GloveSHORE.obj
 0002:00000408       __real@4055800000000000    1005f408     c1_ARP_02_RPSsmile_GloveSHORE.obj
 0002:00000410       __real@3defffffffffffff    1005f410     c1_ARP_02_RPSsmile_GloveSHORE.obj
 0002:00000418       __real@3e00000000200000    1005f418     c1_ARP_02_RPSsmile_GloveSHORE.obj
 0002:00000420       __real@40b5710000000000    1005f420     c1_ARP_02_RPSsmile_GloveSHORE.obj
 0002:00000428       __real@4056c00000000000    1005f428     c1_ARP_02_RPSsmile_GloveSHORE.obj
 0002:00000430       __real@4055c00000000000    1005f430     c1_ARP_02_RPSsmile_GloveSHORE.obj
 0002:00000438       __real@4057400000000000    1005f438     c1_ARP_02_RPSsmile_GloveSHORE.obj
 0002:00000440       __real@4057c00000000000    1005f440     c1_ARP_02_RPSsmile_GloveSHORE.obj
 0002:00000448       __real@4058400000000000    1005f448     c1_ARP_02_RPSsmile_GloveSHORE.obj
 0002:00000450       __real@4057000000000000    1005f450     c1_ARP_02_RPSsmile_GloveSHORE.obj
 0002:00000458       __real@4054400000000000    1005f458     c1_ARP_02_RPSsmile_GloveSHORE.obj
 0002:00000460       __real@4064200000000000    1005f460     c1_ARP_02_RPSsmile_GloveSHORE.obj
 0002:00000468       __real@4063a00000000000    1005f468     c1_ARP_02_RPSsmile_GloveSHORE.obj
 0002:00000470       __real@4056400000000000    1005f470     c1_ARP_02_RPSsmile_GloveSHORE.obj
 0002:00000478       __real@4053800000000000    1005f478     c1_ARP_02_RPSsmile_GloveSHORE.obj
 0002:00000480       __real@4066a00000000000    1005f480     c1_ARP_02_RPSsmile_GloveSHORE.obj
 0002:00000488       __real@4062600000000000    1005f488     c1_ARP_02_RPSsmile_GloveSHORE.obj
 0002:00000490       __real@4064800000000000    1005f490     c1_ARP_02_RPSsmile_GloveSHORE.obj
 0002:00000498       __real@4051000000000000    1005f498     c1_ARP_02_RPSsmile_GloveSHORE.obj
 0002:000004a0       __real@406be00000000000    1005f4a0     c1_ARP_02_RPSsmile_GloveSHORE.obj
 0002:000004a8       __real@406c200000000000    1005f4a8     c1_ARP_02_RPSsmile_GloveSHORE.obj
 0002:000004b0       __real@4040800000000000    1005f4b0     c1_ARP_02_RPSsmile_GloveSHORE.obj
 0002:000004b8       __real@4040000000000000    1005f4b8     c1_ARP_02_RPSsmile_GloveSHORE.obj
 0002:000004c0       __real@403f000000000000    1005f4c0     c1_ARP_02_RPSsmile_GloveSHORE.obj
 0002:000004c8       __real@403e000000000000    1005f4c8     c1_ARP_02_RPSsmile_GloveSHORE.obj
 0002:000004d0       __real@403d000000000000    1005f4d0     c1_ARP_02_RPSsmile_GloveSHORE.obj
 0002:000004d8       __real@403c000000000000    1005f4d8     c1_ARP_02_RPSsmile_GloveSHORE.obj
 0002:000004e0       __real@403b000000000000    1005f4e0     c1_ARP_02_RPSsmile_GloveSHORE.obj
 0002:000004e8       __real@403a000000000000    1005f4e8     c1_ARP_02_RPSsmile_GloveSHORE.obj
 0002:000004f0       __real@4039000000000000    1005f4f0     c1_ARP_02_RPSsmile_GloveSHORE.obj
 0002:000004f8       __real@4038000000000000    1005f4f8     c1_ARP_02_RPSsmile_GloveSHORE.obj
 0002:00000500       __real@4037000000000000    1005f500     c1_ARP_02_RPSsmile_GloveSHORE.obj
 0002:00000508       __real@4036000000000000    1005f508     c1_ARP_02_RPSsmile_GloveSHORE.obj
 0002:00000510       __real@4035000000000000    1005f510     c1_ARP_02_RPSsmile_GloveSHORE.obj
 0002:00000518       __real@4033000000000000    1005f518     c1_ARP_02_RPSsmile_GloveSHORE.obj
 0002:00000520       __real@405d800000000000    1005f520     c1_ARP_02_RPSsmile_GloveSHORE.obj
 0002:00000528       __real@405dc00000000000    1005f528     c1_ARP_02_RPSsmile_GloveSHORE.obj
 0002:00000530       __real@405d000000000000    1005f530     c1_ARP_02_RPSsmile_GloveSHORE.obj
 0002:00000538       __real@405e000000000000    1005f538     c1_ARP_02_RPSsmile_GloveSHORE.obj
 0002:00000540       __real@405e400000000000    1005f540     c1_ARP_02_RPSsmile_GloveSHORE.obj
 0002:00000548       __real@405e800000000000    1005f548     c1_ARP_02_RPSsmile_GloveSHORE.obj
 0002:00000550       __real@405ec00000000000    1005f550     c1_ARP_02_RPSsmile_GloveSHORE.obj
 0002:00000558       __real@4061400000000000    1005f558     c1_ARP_02_RPSsmile_GloveSHORE.obj
 0002:00000560       __real@4061600000000000    1005f560     c1_ARP_02_RPSsmile_GloveSHORE.obj
 0002:00000568       __real@4061000000000000    1005f568     c1_ARP_02_RPSsmile_GloveSHORE.obj
 0002:00000570       __real@4061800000000000    1005f570     c1_ARP_02_RPSsmile_GloveSHORE.obj
 0002:00000578       __real@4061a00000000000    1005f578     c1_ARP_02_RPSsmile_GloveSHORE.obj
 0002:00000580       __real@4061c00000000000    1005f580     c1_ARP_02_RPSsmile_GloveSHORE.obj
 0002:00000588       __real@4061e00000000000    1005f588     c1_ARP_02_RPSsmile_GloveSHORE.obj
 0002:00000590       __real@4060e00000000000    1005f590     c1_ARP_02_RPSsmile_GloveSHORE.obj
 0002:00000598       __real@4060800000000000    1005f598     c1_ARP_02_RPSsmile_GloveSHORE.obj
 0002:000005a0       __real@4061200000000000    1005f5a0     c1_ARP_02_RPSsmile_GloveSHORE.obj
 0002:000005a8       __real@4060c00000000000    1005f5a8     c1_ARP_02_RPSsmile_GloveSHORE.obj
 0002:000005b0       __real@4060400000000000    1005f5b0     c1_ARP_02_RPSsmile_GloveSHORE.obj
 0002:000005b8       __real@41f0000000000000    1005f5b8     c1_ARP_02_RPSsmile_GloveSHORE.obj
 0002:000005c0       __real@3ca0000000000000    1005f5c0     c1_ARP_02_RPSsmile_GloveSHORE.obj
 0002:000005c8       __real@4190000000000000    1005f5c8     c1_ARP_02_RPSsmile_GloveSHORE.obj
 0002:000005d0       __real@406c800000000000    1005f5d0     c1_ARP_02_RPSsmile_GloveSHORE.obj
 0002:000005d8       __real@4078d00000000000    1005f5d8     c1_ARP_02_RPSsmile_GloveSHORE.obj
 0002:000005e0       __real@4083880000000000    1005f5e0     c1_ARP_02_RPSsmile_GloveSHORE.obj
 0002:000005e8       __real@41c4577414000000    1005f5e8     c2_ARP_02_RPSsmile_GloveSHORE.obj
 0002:000005f0       __real@41ef31f272200000    1005f5f0     c2_ARP_02_RPSsmile_GloveSHORE.obj
 0002:000005f8       __real@41e1231d45000000    1005f5f8     c2_ARP_02_RPSsmile_GloveSHORE.obj
 0002:00000600       __real@41ee40237e000000    1005f600     c2_ARP_02_RPSsmile_GloveSHORE.obj
 0002:00000608       __real@41e1718ddc600000    1005f608     c3_ARP_02_RPSsmile_GloveSHORE.obj
 0002:00000610       __real@41e3672189400000    1005f610     c3_ARP_02_RPSsmile_GloveSHORE.obj
 0002:00000618       __real@41d6704ccd800000    1005f618     c3_ARP_02_RPSsmile_GloveSHORE.obj
 0002:00000620       __real@41e8f197c6600000    1005f620     c3_ARP_02_RPSsmile_GloveSHORE.obj
 0002:00000628       __real@41d819d628800000    1005f628     c6_ARP_02_RPSsmile_GloveSHORE.obj
 0002:00000630       __real@41c835552b000000    1005f630     c6_ARP_02_RPSsmile_GloveSHORE.obj
 0002:00000638       __real@41ee0178be800000    1005f638     c6_ARP_02_RPSsmile_GloveSHORE.obj
 0002:00000640       __real@41ee0e9885800000    1005f640     c6_ARP_02_RPSsmile_GloveSHORE.obj
 0002:00000648       _DYNAMIC_DIMENSION_DEF     1005f648     ARP_02_RPSsmile_GloveSHORE_sfun_registry.obj
 0002:00000658       __ssBadLevel2InputAccessMsg 1005f658     ARP_02_RPSsmile_GloveSHORE_sfun_registry.obj
 0002:000007e0       __ssBadLevel2DirectFeedMsg 1005f7e0     ARP_02_RPSsmile_GloveSHORE_sfun_registry.obj
 0002:00000920       __ssBadLevel2DirectFeedSolutionMsg 1005f920     ARP_02_RPSsmile_GloveSHORE_sfun_registry.obj
 0002:00000990       __ssBadLevel2ZeroDirectFeedMsg 1005f990     ARP_02_RPSsmile_GloveSHORE_sfun_registry.obj
 0002:00000ad0       __ssBadLevel2ZeroDirectFeedMsg2 1005fad0     ARP_02_RPSsmile_GloveSHORE_sfun_registry.obj
 0002:00000bb8       __real@bff0000000000000    1005fbb8     ARP_02_RPSsmile_GloveSHORE_sfun_registry.obj
 0002:00000bc0       __real@4153d65940000000    1005fbc0     ARP_02_RPSsmile_GloveSHORE_sfun_registry.obj
 0002:00000bc8       __pDefaultRawDllMain       1005fbc8     MSVCRT:crtdll.obj
 0002:00000bc8       __pRawDllMain              1005fbc8     MSVCRT:crtdll.obj
 0002:00000bd4       ?ProcessDetach@NativeDll@<CrtImplementationDetails>@@0IB 1005fbd4     MSVCRT:tncleanup.obj
 0002:00000bd8       ?ProcessAttach@NativeDll@<CrtImplementationDetails>@@0IB 1005fbd8     MSVCRT:tncleanup.obj
 0002:00000bdc       ?ThreadAttach@NativeDll@<CrtImplementationDetails>@@0IB 1005fbdc     MSVCRT:tncleanup.obj
 0002:00000be0       ?ThreadDetach@NativeDll@<CrtImplementationDetails>@@0IB 1005fbe0     MSVCRT:tncleanup.obj
 0002:00000be4       ?ProcessVerifier@NativeDll@<CrtImplementationDetails>@@0IB 1005fbe4     MSVCRT:tncleanup.obj
 0002:00000be8       __load_config_used         1005fbe8     MSVCRT:loadcfg.obj
 0002:00000c30       ___safe_se_handler_table   1005fc30     <linker-defined>
 0002:00000c34       ___rtc_iaa                 1005fc34     MSVCRT:_initsect_.obj
 0002:00000c38       ___rtc_izz                 1005fc38     MSVCRT:_initsect_.obj
 0002:00000c3c       ___rtc_taa                 1005fc3c     MSVCRT:_initsect_.obj
 0002:00000c40       ___rtc_tzz                 1005fc40     MSVCRT:_initsect_.obj
 0002:00000cac       __IMPORT_DESCRIPTOR_sf_runtime 1005fcac     sf_runtime:sf_runtime.dll
 0002:00000cc0       __IMPORT_DESCRIPTOR_libmx  1005fcc0     libmx:libmx.dll
 0002:00000cd4       __IMPORT_DESCRIPTOR_libmex 1005fcd4     libmex:libmex.dll
 0002:00000ce8       __IMPORT_DESCRIPTOR_libut  1005fce8     libut:libut.dll
 0002:00000cfc       __IMPORT_DESCRIPTOR_libmwmathutil 1005fcfc     libmwmathutil:libmwmathutil.dll
 0002:00000d10       __IMPORT_DESCRIPTOR_MSVCR100 1005fd10     MSVCRT:MSVCR100.dll
 0002:00000d24       __IMPORT_DESCRIPTOR_KERNEL32 1005fd24     kernel32:KERNEL32.dll
 0002:00000d38       __NULL_IMPORT_DESCRIPTOR   1005fd38     sf_runtime:sf_runtime.dll
 0003:00019390       _DYNAMIC_DIMENSION         1007a390     ARP_02_RPSsmile_GloveSHORE_sfun_registry.obj
 0003:00019f1c       ___security_cookie         1007af1c     MSVCRT:gs_cookie.obj
 0003:00019f20       ___security_cookie_complement 1007af20     MSVCRT:gs_cookie.obj
 0003:00019f30       ___native_dllmain_reason   1007af30     MSVCRT:natstart.obj
 0003:00019f34       ___native_vcclrit_reason   1007af34     MSVCRT:natstart.obj
 0003:0001a090       _sfGlobalDebugInstanceStruct 1007b090     ARP_02_RPSsmile_GloveSHORE_sfun_registry.obj
 0003:0001a3c4       ?__type_info_root_node@@3U__type_info_node@@A 1007b3c4     MSVCRT:tncleanup.obj
 0003:0001a3cc       __ARP_02_RPSsmile_GloveSHOREMachineNumber_ 1007b3cc     <common>
 0003:0001a3d0       ___native_startup_state    1007b3d0     <common>
 0003:0001a3d4       ___native_startup_lock     1007b3d4     <common>
 0003:0001a3d8       ___onexitend               1007b3d8     <common>
 0003:0001a3dc       ___onexitbegin             1007b3dc     <common>
 0003:0001a3e0       ___sse2_available          1007b3e0     <common>
 0003:0001a3e4       ___dyn_tls_init_callback   1007b3e4     <common>

 entry point at        0001:0005cd9f

 Static symbols

 0001:00000d40       _c1_info_helper            10001d40 f   c1_ARP_02_RPSsmile_GloveSHORE.obj
 0001:000058c0       _c1_emlrt_marshallOut      100068c0 f   c1_ARP_02_RPSsmile_GloveSHORE.obj
 0001:00005920       _c1_b_emlrt_marshallOut    10006920 f   c1_ARP_02_RPSsmile_GloveSHORE.obj
 0001:000079c0       _get_sim_state_c1_ARP_02_RPSsmile_GloveSHORE 100089c0 f   c1_ARP_02_RPSsmile_GloveSHORE.obj
 0001:00008e70       _sf_get_sim_state_info_c1_ARP_02_RPSsmile_GloveSHORE 10009e70 f   c1_ARP_02_RPSsmile_GloveSHORE.obj
 0001:00009000       _set_sim_state_c1_ARP_02_RPSsmile_GloveSHORE 1000a000 f   c1_ARP_02_RPSsmile_GloveSHORE.obj
 0001:00009980       _c1_update_debugger_state_c1_ARP_02_RPSsmile_GloveSHORE 1000a980 f   c1_ARP_02_RPSsmile_GloveSHORE.obj
 0001:0000b120       _c1_b_emlrt_marshallIn     1000c120 f   c1_ARP_02_RPSsmile_GloveSHORE.obj
 0001:0000b170       _c1_c_emlrt_marshallIn     1000c170 f   c1_ARP_02_RPSsmile_GloveSHORE.obj
 0001:0000b1c0       _c1_h_emlrt_marshallIn     1000c1c0 f   c1_ARP_02_RPSsmile_GloveSHORE.obj
 0001:0000b210       _c1_i_emlrt_marshallIn     1000c210 f   c1_ARP_02_RPSsmile_GloveSHORE.obj
 0001:0000b260       _c1_j_emlrt_marshallIn     1000c260 f   c1_ARP_02_RPSsmile_GloveSHORE.obj
 0001:0000b2b0       _c1_k_emlrt_marshallIn     1000c2b0 f   c1_ARP_02_RPSsmile_GloveSHORE.obj
 0001:0000b330       _c1_l_emlrt_marshallIn     1000c330 f   c1_ARP_02_RPSsmile_GloveSHORE.obj
 0001:0000b380       _c1_m_emlrt_marshallIn     1000c380 f   c1_ARP_02_RPSsmile_GloveSHORE.obj
 0001:0000b400       _c1_n_emlrt_marshallIn     1000c400 f   c1_ARP_02_RPSsmile_GloveSHORE.obj
 0001:0000b450       _c1_o_emlrt_marshallIn     1000c450 f   c1_ARP_02_RPSsmile_GloveSHORE.obj
 0001:0000b510       _c1_p_emlrt_marshallIn     1000c510 f   c1_ARP_02_RPSsmile_GloveSHORE.obj
 0001:0000b560       _c1_q_emlrt_marshallIn     1000c560 f   c1_ARP_02_RPSsmile_GloveSHORE.obj
 0001:0000b600       _c1_r_emlrt_marshallIn     1000c600 f   c1_ARP_02_RPSsmile_GloveSHORE.obj
 0001:0000b650       _c1_s_emlrt_marshallIn     1000c650 f   c1_ARP_02_RPSsmile_GloveSHORE.obj
 0001:0000b6a0       _c1_t_emlrt_marshallIn     1000c6a0 f   c1_ARP_02_RPSsmile_GloveSHORE.obj
 0001:0000b700       _c1_u_emlrt_marshallIn     1000c700 f   c1_ARP_02_RPSsmile_GloveSHORE.obj
 0001:0000b7a0       _mdlProcessParameters_c1_ARP_02_RPSsmile_GloveSHORE 1000c7a0 f   c1_ARP_02_RPSsmile_GloveSHORE.obj
 0001:0000b850       _initialize_params_c1_ARP_02_RPSsmile_GloveSHORE 1000c850 f   c1_ARP_02_RPSsmile_GloveSHORE.obj
 0001:0000b860       _mdlSetWorkWidths_c1_ARP_02_RPSsmile_GloveSHORE 1000c860 f   c1_ARP_02_RPSsmile_GloveSHORE.obj
 0001:0000bc40       _sf_get_instance_specialization 1000cc40 f   c1_ARP_02_RPSsmile_GloveSHORE.obj
 0001:0000bc50       _mdlStart_c1_ARP_02_RPSsmile_GloveSHORE 1000cc50 f   c1_ARP_02_RPSsmile_GloveSHORE.obj
 0001:0000bdf0       _init_dsm_address_info     1000cdf0 f   c1_ARP_02_RPSsmile_GloveSHORE.obj
 0001:0000be00       _chart_debug_initialization 1000ce00 f   c1_ARP_02_RPSsmile_GloveSHORE.obj
 0001:00015300       _init_script_number_translation 10016300 f   c1_ARP_02_RPSsmile_GloveSHORE.obj
 0001:00015340       _c1_sf_marshallOut         10016340 f   c1_ARP_02_RPSsmile_GloveSHORE.obj
 0001:00015470       _c1_sf_marshallIn          10016470 f   c1_ARP_02_RPSsmile_GloveSHORE.obj
 0001:00015550       _c1_emlrt_marshallIn       10016550 f   c1_ARP_02_RPSsmile_GloveSHORE.obj
 0001:000155e0       _c1_b_sf_marshallOut       100165e0 f   c1_ARP_02_RPSsmile_GloveSHORE.obj
 0001:00015660       _c1_b_sf_marshallIn        10016660 f   c1_ARP_02_RPSsmile_GloveSHORE.obj
 0001:000156e0       _sf_opaque_initialize_c1_ARP_02_RPSsmile_GloveSHORE 100166e0 f   c1_ARP_02_RPSsmile_GloveSHORE.obj
 0001:00015710       _initialize_c1_ARP_02_RPSsmile_GloveSHORE 10016710 f   c1_ARP_02_RPSsmile_GloveSHORE.obj
 0001:000159b0       _sf_opaque_enable_c1_ARP_02_RPSsmile_GloveSHORE 100169b0 f   c1_ARP_02_RPSsmile_GloveSHORE.obj
 0001:000159d0       _enable_c1_ARP_02_RPSsmile_GloveSHORE 100169d0 f   c1_ARP_02_RPSsmile_GloveSHORE.obj
 0001:00015a20       _sf_opaque_disable_c1_ARP_02_RPSsmile_GloveSHORE 10016a20 f   c1_ARP_02_RPSsmile_GloveSHORE.obj
 0001:00015a40       _disable_c1_ARP_02_RPSsmile_GloveSHORE 10016a40 f   c1_ARP_02_RPSsmile_GloveSHORE.obj
 0001:00015a90       _sf_opaque_gateway_c1_ARP_02_RPSsmile_GloveSHORE 10016a90 f   c1_ARP_02_RPSsmile_GloveSHORE.obj
 0001:00015ab0       _sf_gateway_c1_ARP_02_RPSsmile_GloveSHORE 10016ab0 f   c1_ARP_02_RPSsmile_GloveSHORE.obj
 0001:00016370       _c1_set_sim_state_side_effects_c1_ARP_02_RPSsmile_GloveSHORE 10017370 f   c1_ARP_02_RPSsmile_GloveSHORE.obj
 0001:00016b30       _c1_chartstep_c1_ARP_02_RPSsmile_GloveSHORE 10017b30 f   c1_ARP_02_RPSsmile_GloveSHORE.obj
 0001:00019430       _c1_stateGame              1001a430 f   c1_ARP_02_RPSsmile_GloveSHORE.obj
 0001:0001bbe0       _c1_stateStart             1001cbe0 f   c1_ARP_02_RPSsmile_GloveSHORE.obj
 0001:0001bf10       _c1_enter_atomic_stateReady 1001cf10 f   c1_ARP_02_RPSsmile_GloveSHORE.obj
 0001:0001c170       _c1_stateReady             1001d170 f   c1_ARP_02_RPSsmile_GloveSHORE.obj
 0001:0001c710       _c1_enter_atomic_statePoseReady 1001d710 f   c1_ARP_02_RPSsmile_GloveSHORE.obj
 0001:0001cf80       _c1_statePoseReady         1001df80 f   c1_ARP_02_RPSsmile_GloveSHORE.obj
 0001:0001de10       _c1_stateWristRotate       1001ee10 f   c1_ARP_02_RPSsmile_GloveSHORE.obj
 0001:0001e0b0       _c1_stateRandomHand        1001f0b0 f   c1_ARP_02_RPSsmile_GloveSHORE.obj
 0001:00021180       _c1_statePoseRock          10022180 f   c1_ARP_02_RPSsmile_GloveSHORE.obj
 0001:00021740       _c1_statePoseFingersCLose  10022740 f   c1_ARP_02_RPSsmile_GloveSHORE.obj
 0001:000227b0       _c1_stateReadUserHand      100237b0 f   c1_ARP_02_RPSsmile_GloveSHORE.obj
 0001:00023840       _c1_statePoseScissors      10024840 f   c1_ARP_02_RPSsmile_GloveSHORE.obj
 0001:00023e00       _c1_stateShowHands         10024e00 f   c1_ARP_02_RPSsmile_GloveSHORE.obj
 0001:00024190       _c1_statePoseReturnFinger  10025190 f   c1_ARP_02_RPSsmile_GloveSHORE.obj
 0001:000247a0       _c1_enter_atomic_statePoseReturnWrist 100257a0 f   c1_ARP_02_RPSsmile_GloveSHORE.obj
 0001:00024c30       _c1_stateUserWin           10025c30 f   c1_ARP_02_RPSsmile_GloveSHORE.obj
 0001:00024f60       _c1_enter_atomic_stateRandom1 10025f60 f   c1_ARP_02_RPSsmile_GloveSHORE.obj
 0001:000250d0       _c1_stateRandom1           100260d0 f   c1_ARP_02_RPSsmile_GloveSHORE.obj
 0001:00025c80       _c1_statePoseSmileWin      10026c80 f   c1_ARP_02_RPSsmile_GloveSHORE.obj
 0001:00026070       _c1_stateShowResult        10027070 f   c1_ARP_02_RPSsmile_GloveSHORE.obj
 0001:000263a0       _c1_enter_atomic_stateInitial 100273a0 f   c1_ARP_02_RPSsmile_GloveSHORE.obj
 0001:000267a0       _c1_stateInitial           100277a0 f   c1_ARP_02_RPSsmile_GloveSHORE.obj
 0001:000281e0       _c1_enter_atomic_stateHeadNeutral 100291e0 f   c1_ARP_02_RPSsmile_GloveSHORE.obj
 0001:00028650       _c1_stateIdlePose          10029650 f   c1_ARP_02_RPSsmile_GloveSHORE.obj
 0001:00029500       _c1_enter_atomic_stateRandomPose 1002a500 f   c1_ARP_02_RPSsmile_GloveSHORE.obj
 0001:000298d0       _c1_enter_atomic_stateBoredPose 1002a8d0 f   c1_ARP_02_RPSsmile_GloveSHORE.obj
 0001:0002ddf0       _c1_enter_atomic_stateImitateSmile 1002edf0 f   c1_ARP_02_RPSsmile_GloveSHORE.obj
 0001:0002e280       _c1_encStr2Arr             1002f280 f   c1_ARP_02_RPSsmile_GloveSHORE.obj
 0001:0002e7b0       _c1_b_encStr2Arr           1002f7b0 f   c1_ARP_02_RPSsmile_GloveSHORE.obj
 0001:0002ece0       _c1_c_encStr2Arr           1002fce0 f   c1_ARP_02_RPSsmile_GloveSHORE.obj
 0001:0002f220       _c1_rand                   10030220 f   c1_ARP_02_RPSsmile_GloveSHORE.obj
 0001:0002f240       _c1_eml_rand               10030240 f   c1_ARP_02_RPSsmile_GloveSHORE.obj
 0001:0002f5c0       _c1_eml_rand_mt19937ar     100305c0 f   c1_ARP_02_RPSsmile_GloveSHORE.obj
 0001:0002f620       _c1_randi                  10030620 f   c1_ARP_02_RPSsmile_GloveSHORE.obj
 0001:0002f660       _c1_b_randi                10030660 f   c1_ARP_02_RPSsmile_GloveSHORE.obj
 0001:0002f6b0       _c1_nb_encStr2Arr          100306b0 f   c1_ARP_02_RPSsmile_GloveSHORE.obj
 0001:0002fbd0       _c1_ob_encStr2Arr          10030bd0 f   c1_ARP_02_RPSsmile_GloveSHORE.obj
 0001:00030110       _c1_pb_encStr2Arr          10031110 f   c1_ARP_02_RPSsmile_GloveSHORE.obj
 0001:00030650       _c1_qb_encStr2Arr          10031650 f   c1_ARP_02_RPSsmile_GloveSHORE.obj
 0001:00030ba0       _c1_rb_encStr2Arr          10031ba0 f   c1_ARP_02_RPSsmile_GloveSHORE.obj
 0001:000310c0       _c1_sb_encStr2Arr          100320c0 f   c1_ARP_02_RPSsmile_GloveSHORE.obj
 0001:000315f0       _c1_tb_encStr2Arr          100325f0 f   c1_ARP_02_RPSsmile_GloveSHORE.obj
 0001:00031b30       _c1_ub_encStr2Arr          10032b30 f   c1_ARP_02_RPSsmile_GloveSHORE.obj
 0001:00032070       _c1_vb_encStr2Arr          10033070 f   c1_ARP_02_RPSsmile_GloveSHORE.obj
 0001:000325b0       _c1_wb_encStr2Arr          100335b0 f   c1_ARP_02_RPSsmile_GloveSHORE.obj
 0001:00032ae0       _c1_xb_encStr2Arr          10033ae0 f   c1_ARP_02_RPSsmile_GloveSHORE.obj
 0001:00033010       _c1_c_sf_marshallOut       10034010 f   c1_ARP_02_RPSsmile_GloveSHORE.obj
 0001:00033090       _c1_c_sf_marshallIn        10034090 f   c1_ARP_02_RPSsmile_GloveSHORE.obj
 0001:00033110       _c1_d_emlrt_marshallIn     10034110 f   c1_ARP_02_RPSsmile_GloveSHORE.obj
 0001:00033160       _c1_d_sf_marshallOut       10034160 f   c1_ARP_02_RPSsmile_GloveSHORE.obj
 0001:00033290       _c1_d_sf_marshallIn        10034290 f   c1_ARP_02_RPSsmile_GloveSHORE.obj
 0001:00033370       _c1_e_emlrt_marshallIn     10034370 f   c1_ARP_02_RPSsmile_GloveSHORE.obj
 0001:00033410       _c1_e_sf_marshallOut       10034410 f   c1_ARP_02_RPSsmile_GloveSHORE.obj
 0001:000334f0       _c1_f_sf_marshallOut       100344f0 f   c1_ARP_02_RPSsmile_GloveSHORE.obj
 0001:00033600       _c1_g_sf_marshallOut       10034600 f   c1_ARP_02_RPSsmile_GloveSHORE.obj
 0001:00033700       _c1_h_sf_marshallOut       10034700 f   c1_ARP_02_RPSsmile_GloveSHORE.obj
 0001:00033820       _c1_i_sf_marshallOut       10034820 f   c1_ARP_02_RPSsmile_GloveSHORE.obj
 0001:00033920       _c1_j_sf_marshallOut       10034920 f   c1_ARP_02_RPSsmile_GloveSHORE.obj
 0001:00033a40       _c1_o_sf_marshallOut       10034a40 f   c1_ARP_02_RPSsmile_GloveSHORE.obj
 0001:00033b50       _c1_p_sf_marshallOut       10034b50 f   c1_ARP_02_RPSsmile_GloveSHORE.obj
 0001:00033c60       _c1_jb_sf_marshallOut      10034c60 f   c1_ARP_02_RPSsmile_GloveSHORE.obj
 0001:00033d60       _c1_kb_sf_marshallOut      10034d60 f   c1_ARP_02_RPSsmile_GloveSHORE.obj
 0001:00033e80       _c1_yc_sf_marshallOut      10034e80 f   c1_ARP_02_RPSsmile_GloveSHORE.obj
 0001:00033f80       _c1_ad_sf_marshallOut      10034f80 f   c1_ARP_02_RPSsmile_GloveSHORE.obj
 0001:000340a0       _c1_bd_sf_marshallOut      100350a0 f   c1_ARP_02_RPSsmile_GloveSHORE.obj
 0001:00034180       _c1_cd_sf_marshallOut      10035180 f   c1_ARP_02_RPSsmile_GloveSHORE.obj
 0001:000342a0       _c1_dd_sf_marshallOut      100352a0 f   c1_ARP_02_RPSsmile_GloveSHORE.obj
 0001:00034380       _c1_ed_sf_marshallOut      10035380 f   c1_ARP_02_RPSsmile_GloveSHORE.obj
 0001:00034490       _c1_fd_sf_marshallOut      10035490 f   c1_ARP_02_RPSsmile_GloveSHORE.obj
 0001:00034570       _c1_gd_sf_marshallOut      10035570 f   c1_ARP_02_RPSsmile_GloveSHORE.obj
 0001:00034690       _c1_sendBML                10035690 f   c1_ARP_02_RPSsmile_GloveSHORE.obj
 0001:00034980       _c1_handPoseSB             10035980 f   c1_ARP_02_RPSsmile_GloveSHORE.obj
 0001:00036880       _c1_d_encStr2Arr           10037880 f   c1_ARP_02_RPSsmile_GloveSHORE.obj
 0001:00036da0       _c1_e_encStr2Arr           10037da0 f   c1_ARP_02_RPSsmile_GloveSHORE.obj
 0001:000372d0       _c1_f_encStr2Arr           100382d0 f   c1_ARP_02_RPSsmile_GloveSHORE.obj
 0001:00037810       _c1_g_encStr2Arr           10038810 f   c1_ARP_02_RPSsmile_GloveSHORE.obj
 0001:00037d50       _c1_h_encStr2Arr           10038d50 f   c1_ARP_02_RPSsmile_GloveSHORE.obj
 0001:00038290       _c1_k_sf_marshallOut       10039290 f   c1_ARP_02_RPSsmile_GloveSHORE.obj
 0001:000383b0       _c1_l_sf_marshallOut       100393b0 f   c1_ARP_02_RPSsmile_GloveSHORE.obj
 0001:000384c0       _c1_m_sf_marshallOut       100394c0 f   c1_ARP_02_RPSsmile_GloveSHORE.obj
 0001:000385e0       _c1_n_sf_marshallOut       100395e0 f   c1_ARP_02_RPSsmile_GloveSHORE.obj
 0001:00038700       _c1_q_sf_marshallOut       10039700 f   c1_ARP_02_RPSsmile_GloveSHORE.obj
 0001:00038800       _c1_r_sf_marshallOut       10039800 f   c1_ARP_02_RPSsmile_GloveSHORE.obj
 0001:00038920       _c1_s_sf_marshallOut       10039920 f   c1_ARP_02_RPSsmile_GloveSHORE.obj
 0001:00038a20       _c1_t_sf_marshallOut       10039a20 f   c1_ARP_02_RPSsmile_GloveSHORE.obj
 0001:00038b40       _c1_u_sf_marshallOut       10039b40 f   c1_ARP_02_RPSsmile_GloveSHORE.obj
 0001:00038c20       _c1_v_sf_marshallOut       10039c20 f   c1_ARP_02_RPSsmile_GloveSHORE.obj
 0001:00038d30       _c1_idlePose               10039d30 f   c1_ARP_02_RPSsmile_GloveSHORE.obj
 0001:0003b370       _c1_i_encStr2Arr           1003c370 f   c1_ARP_02_RPSsmile_GloveSHORE.obj
 0001:0003b8b0       _c1_j_encStr2Arr           1003c8b0 f   c1_ARP_02_RPSsmile_GloveSHORE.obj
 0001:0003bdf0       _c1_k_encStr2Arr           1003cdf0 f   c1_ARP_02_RPSsmile_GloveSHORE.obj
 0001:0003c330       _c1_l_encStr2Arr           1003d330 f   c1_ARP_02_RPSsmile_GloveSHORE.obj
 0001:0003c860       _c1_m_encStr2Arr           1003d860 f   c1_ARP_02_RPSsmile_GloveSHORE.obj
 0001:0003cd90       _c1_n_encStr2Arr           1003dd90 f   c1_ARP_02_RPSsmile_GloveSHORE.obj
 0001:0003d2b0       _c1_o_encStr2Arr           1003e2b0 f   c1_ARP_02_RPSsmile_GloveSHORE.obj
 0001:0003d800       _c1_w_sf_marshallOut       1003e800 f   c1_ARP_02_RPSsmile_GloveSHORE.obj
 0001:0003d920       _c1_x_sf_marshallOut       1003e920 f   c1_ARP_02_RPSsmile_GloveSHORE.obj
 0001:0003da40       _c1_y_sf_marshallOut       1003ea40 f   c1_ARP_02_RPSsmile_GloveSHORE.obj
 0001:0003db60       _c1_ab_sf_marshallOut      1003eb60 f   c1_ARP_02_RPSsmile_GloveSHORE.obj
 0001:0003dc70       _c1_bb_sf_marshallOut      1003ec70 f   c1_ARP_02_RPSsmile_GloveSHORE.obj
 0001:0003dd50       _c1_cb_sf_marshallOut      1003ed50 f   c1_ARP_02_RPSsmile_GloveSHORE.obj
 0001:0003de60       _c1_db_sf_marshallOut      1003ee60 f   c1_ARP_02_RPSsmile_GloveSHORE.obj
 0001:0003df70       _c1_eb_sf_marshallOut      1003ef70 f   c1_ARP_02_RPSsmile_GloveSHORE.obj
 0001:0003e080       _c1_fb_sf_marshallOut      1003f080 f   c1_ARP_02_RPSsmile_GloveSHORE.obj
 0001:0003e1a0       _c1_gb_sf_marshallOut      1003f1a0 f   c1_ARP_02_RPSsmile_GloveSHORE.obj
 0001:0003e2b0       _c1_hb_sf_marshallOut      1003f2b0 f   c1_ARP_02_RPSsmile_GloveSHORE.obj
 0001:0003e3d0       _c1_ib_sf_marshallOut      1003f3d0 f   c1_ARP_02_RPSsmile_GloveSHORE.obj
 0001:0003e4e0       _c1_boredGaze              1003f4e0 f   c1_ARP_02_RPSsmile_GloveSHORE.obj
 0001:00045f10       _c1_p_encStr2Arr           10046f10 f   c1_ARP_02_RPSsmile_GloveSHORE.obj
 0001:00046430       _c1_q_encStr2Arr           10047430 f   c1_ARP_02_RPSsmile_GloveSHORE.obj
 0001:00046970       _c1_r_encStr2Arr           10047970 f   c1_ARP_02_RPSsmile_GloveSHORE.obj
 0001:00046eb0       _c1_s_encStr2Arr           10047eb0 f   c1_ARP_02_RPSsmile_GloveSHORE.obj
 0001:000473e0       _c1_t_encStr2Arr           100483e0 f   c1_ARP_02_RPSsmile_GloveSHORE.obj
 0001:00047900       _c1_u_encStr2Arr           10048900 f   c1_ARP_02_RPSsmile_GloveSHORE.obj
 0001:00047e20       _c1_v_encStr2Arr           10048e20 f   c1_ARP_02_RPSsmile_GloveSHORE.obj
 0001:00048370       _c1_w_encStr2Arr           10049370 f   c1_ARP_02_RPSsmile_GloveSHORE.obj
 0001:000488a0       _c1_x_encStr2Arr           100498a0 f   c1_ARP_02_RPSsmile_GloveSHORE.obj
 0001:00048de0       _c1_y_encStr2Arr           10049de0 f   c1_ARP_02_RPSsmile_GloveSHORE.obj
 0001:00049310       _c1_ab_encStr2Arr          1004a310 f   c1_ARP_02_RPSsmile_GloveSHORE.obj
 0001:00049850       _c1_bb_encStr2Arr          1004a850 f   c1_ARP_02_RPSsmile_GloveSHORE.obj
 0001:00049d90       _c1_cb_encStr2Arr          1004ad90 f   c1_ARP_02_RPSsmile_GloveSHORE.obj
 0001:0004a2b0       _c1_db_encStr2Arr          1004b2b0 f   c1_ARP_02_RPSsmile_GloveSHORE.obj
 0001:0004a7d0       _c1_eb_encStr2Arr          1004b7d0 f   c1_ARP_02_RPSsmile_GloveSHORE.obj
 0001:0004acf0       _c1_fb_encStr2Arr          1004bcf0 f   c1_ARP_02_RPSsmile_GloveSHORE.obj
 0001:0004b210       _c1_gb_encStr2Arr          1004c210 f   c1_ARP_02_RPSsmile_GloveSHORE.obj
 0001:0004b740       _c1_hb_encStr2Arr          1004c740 f   c1_ARP_02_RPSsmile_GloveSHORE.obj
 0001:0004bc80       _c1_ib_encStr2Arr          1004cc80 f   c1_ARP_02_RPSsmile_GloveSHORE.obj
 0001:0004c1b0       _c1_jb_encStr2Arr          1004d1b0 f   c1_ARP_02_RPSsmile_GloveSHORE.obj
 0001:0004c6e0       _c1_kb_encStr2Arr          1004d6e0 f   c1_ARP_02_RPSsmile_GloveSHORE.obj
 0001:0004cc00       _c1_lb_encStr2Arr          1004dc00 f   c1_ARP_02_RPSsmile_GloveSHORE.obj
 0001:0004d130       _c1_mb_encStr2Arr          1004e130 f   c1_ARP_02_RPSsmile_GloveSHORE.obj
 0001:0004d660       _c1_lb_sf_marshallOut      1004e660 f   c1_ARP_02_RPSsmile_GloveSHORE.obj
 0001:0004d770       _c1_mb_sf_marshallOut      1004e770 f   c1_ARP_02_RPSsmile_GloveSHORE.obj
 0001:0004d890       _c1_nb_sf_marshallOut      1004e890 f   c1_ARP_02_RPSsmile_GloveSHORE.obj
 0001:0004d9a0       _c1_ob_sf_marshallOut      1004e9a0 f   c1_ARP_02_RPSsmile_GloveSHORE.obj
 0001:0004dab0       _c1_pb_sf_marshallOut      1004eab0 f   c1_ARP_02_RPSsmile_GloveSHORE.obj
 0001:0004dbc0       _c1_qb_sf_marshallOut      1004ebc0 f   c1_ARP_02_RPSsmile_GloveSHORE.obj
 0001:0004dce0       _c1_rb_sf_marshallOut      1004ece0 f   c1_ARP_02_RPSsmile_GloveSHORE.obj
 0001:0004ddf0       _c1_sb_sf_marshallOut      1004edf0 f   c1_ARP_02_RPSsmile_GloveSHORE.obj
 0001:0004df00       _c1_tb_sf_marshallOut      1004ef00 f   c1_ARP_02_RPSsmile_GloveSHORE.obj
 0001:0004e020       _c1_ub_sf_marshallOut      1004f020 f   c1_ARP_02_RPSsmile_GloveSHORE.obj
 0001:0004e140       _c1_vb_sf_marshallOut      1004f140 f   c1_ARP_02_RPSsmile_GloveSHORE.obj
 0001:0004e260       _c1_wb_sf_marshallOut      1004f260 f   c1_ARP_02_RPSsmile_GloveSHORE.obj
 0001:0004e380       _c1_xb_sf_marshallOut      1004f380 f   c1_ARP_02_RPSsmile_GloveSHORE.obj
 0001:0004e4a0       _c1_yb_sf_marshallOut      1004f4a0 f   c1_ARP_02_RPSsmile_GloveSHORE.obj
 0001:0004e5c0       _c1_ac_sf_marshallOut      1004f5c0 f   c1_ARP_02_RPSsmile_GloveSHORE.obj
 0001:0004e6d0       _c1_bc_sf_marshallOut      1004f6d0 f   c1_ARP_02_RPSsmile_GloveSHORE.obj
 0001:0004e7f0       _c1_cc_sf_marshallOut      1004f7f0 f   c1_ARP_02_RPSsmile_GloveSHORE.obj
 0001:0004e910       _c1_dc_sf_marshallOut      1004f910 f   c1_ARP_02_RPSsmile_GloveSHORE.obj
 0001:0004ea30       _c1_ec_sf_marshallOut      1004fa30 f   c1_ARP_02_RPSsmile_GloveSHORE.obj
 0001:0004eb40       _c1_fc_sf_marshallOut      1004fb40 f   c1_ARP_02_RPSsmile_GloveSHORE.obj
 0001:0004ec60       _c1_gc_sf_marshallOut      1004fc60 f   c1_ARP_02_RPSsmile_GloveSHORE.obj
 0001:0004ed80       _c1_hc_sf_marshallOut      1004fd80 f   c1_ARP_02_RPSsmile_GloveSHORE.obj
 0001:0004eea0       _c1_ic_sf_marshallOut      1004fea0 f   c1_ARP_02_RPSsmile_GloveSHORE.obj
 0001:0004efb0       _c1_jc_sf_marshallOut      1004ffb0 f   c1_ARP_02_RPSsmile_GloveSHORE.obj
 0001:0004f0d0       _c1_kc_sf_marshallOut      100500d0 f   c1_ARP_02_RPSsmile_GloveSHORE.obj
 0001:0004f1f0       _c1_lc_sf_marshallOut      100501f0 f   c1_ARP_02_RPSsmile_GloveSHORE.obj
 0001:0004f310       _c1_mc_sf_marshallOut      10050310 f   c1_ARP_02_RPSsmile_GloveSHORE.obj
 0001:0004f430       _c1_nc_sf_marshallOut      10050430 f   c1_ARP_02_RPSsmile_GloveSHORE.obj
 0001:0004f550       _c1_oc_sf_marshallOut      10050550 f   c1_ARP_02_RPSsmile_GloveSHORE.obj
 0001:0004f660       _c1_pc_sf_marshallOut      10050660 f   c1_ARP_02_RPSsmile_GloveSHORE.obj
 0001:0004f780       _c1_qc_sf_marshallOut      10050780 f   c1_ARP_02_RPSsmile_GloveSHORE.obj
 0001:0004f8a0       _c1_rc_sf_marshallOut      100508a0 f   c1_ARP_02_RPSsmile_GloveSHORE.obj
 0001:0004f9b0       _c1_sc_sf_marshallOut      100509b0 f   c1_ARP_02_RPSsmile_GloveSHORE.obj
 0001:0004fad0       _c1_tc_sf_marshallOut      10050ad0 f   c1_ARP_02_RPSsmile_GloveSHORE.obj
 0001:0004fbe0       _c1_uc_sf_marshallOut      10050be0 f   c1_ARP_02_RPSsmile_GloveSHORE.obj
 0001:0004fcf0       _c1_vc_sf_marshallOut      10050cf0 f   c1_ARP_02_RPSsmile_GloveSHORE.obj
 0001:0004fe10       _c1_wc_sf_marshallOut      10050e10 f   c1_ARP_02_RPSsmile_GloveSHORE.obj
 0001:0004ff30       _c1_xc_sf_marshallOut      10050f30 f   c1_ARP_02_RPSsmile_GloveSHORE.obj
 0001:00050050       _c1_updateDataWrittenToVector 10051050 f   c1_ARP_02_RPSsmile_GloveSHORE.obj
 0001:000500a0       _c1_errorIfDataNotWrittenToFcn 100510a0 f   c1_ARP_02_RPSsmile_GloveSHORE.obj
 0001:00050120       _c1_b_twister_state_vector 10051120 f   c1_ARP_02_RPSsmile_GloveSHORE.obj
 0001:00050300       _c1_c_eml_rand_mt19937ar   10051300 f   c1_ARP_02_RPSsmile_GloveSHORE.obj
 0001:00050d00       _c1_eml_error              10051d00 f   c1_ARP_02_RPSsmile_GloveSHORE.obj
 0001:00050dc0       _sf_opaque_get_sim_state_c1_ARP_02_RPSsmile_GloveSHORE 10051dc0 f   c1_ARP_02_RPSsmile_GloveSHORE.obj
 0001:00050de0       _sf_opaque_set_sim_state_c1_ARP_02_RPSsmile_GloveSHORE 10051de0 f   c1_ARP_02_RPSsmile_GloveSHORE.obj
 0001:00050e00       _sf_opaque_terminate_c1_ARP_02_RPSsmile_GloveSHORE 10051e00 f   c1_ARP_02_RPSsmile_GloveSHORE.obj
 0001:00050e90       _finalize_c1_ARP_02_RPSsmile_GloveSHORE 10051e90 f   c1_ARP_02_RPSsmile_GloveSHORE.obj
 0001:00050eb0       _sf_opaque_init_subchart_simstructs 10051eb0 f   c1_ARP_02_RPSsmile_GloveSHORE.obj
 0001:00050ed0       _initSimStructsc1_ARP_02_RPSsmile_GloveSHORE 10051ed0 f   c1_ARP_02_RPSsmile_GloveSHORE.obj
 0001:00050ee0       _mdlRTW_c1_ARP_02_RPSsmile_GloveSHORE 10051ee0 f   c1_ARP_02_RPSsmile_GloveSHORE.obj
 0001:00050f80       _c2_info_helper            10051f80 f   c2_ARP_02_RPSsmile_GloveSHORE.obj
 0001:00051170       _c2_emlrt_marshallOut      10052170 f   c2_ARP_02_RPSsmile_GloveSHORE.obj
 0001:000511d0       _c2_b_emlrt_marshallOut    100521d0 f   c2_ARP_02_RPSsmile_GloveSHORE.obj
 0001:00051a90       _get_sim_state_c2_ARP_02_RPSsmile_GloveSHORE 10052a90 f   c2_ARP_02_RPSsmile_GloveSHORE.obj
 0001:00051b50       _sf_get_sim_state_info_c2_ARP_02_RPSsmile_GloveSHORE 10052b50 f   c2_ARP_02_RPSsmile_GloveSHORE.obj
 0001:00051cd0       _set_sim_state_c2_ARP_02_RPSsmile_GloveSHORE 10052cd0 f   c2_ARP_02_RPSsmile_GloveSHORE.obj
 0001:00051d50       _c2_update_debugger_state_c2_ARP_02_RPSsmile_GloveSHORE 10052d50 f   c2_ARP_02_RPSsmile_GloveSHORE.obj
 0001:00051d60       _c2_c_emlrt_marshallIn     10052d60 f   c2_ARP_02_RPSsmile_GloveSHORE.obj
 0001:00051db0       _c2_d_emlrt_marshallIn     10052db0 f   c2_ARP_02_RPSsmile_GloveSHORE.obj
 0001:00051e60       _mdlProcessParameters_c2_ARP_02_RPSsmile_GloveSHORE 10052e60 f   c2_ARP_02_RPSsmile_GloveSHORE.obj
 0001:00051f10       _initialize_params_c2_ARP_02_RPSsmile_GloveSHORE 10052f10 f   c2_ARP_02_RPSsmile_GloveSHORE.obj
 0001:00051f20       _mdlSetWorkWidths_c2_ARP_02_RPSsmile_GloveSHORE 10052f20 f   c2_ARP_02_RPSsmile_GloveSHORE.obj
 0001:00052340       _sf_get_instance_specialization 10053340 f   c2_ARP_02_RPSsmile_GloveSHORE.obj
 0001:00052350       _mdlStart_c2_ARP_02_RPSsmile_GloveSHORE 10053350 f   c2_ARP_02_RPSsmile_GloveSHORE.obj
 0001:000524f0       _init_dsm_address_info     100534f0 f   c2_ARP_02_RPSsmile_GloveSHORE.obj
 0001:00052500       _chart_debug_initialization 10053500 f   c2_ARP_02_RPSsmile_GloveSHORE.obj
 0001:00052c60       _init_script_number_translation 10053c60 f   c2_ARP_02_RPSsmile_GloveSHORE.obj
 0001:00052c70       _c2_sf_marshallOut         10053c70 f   c2_ARP_02_RPSsmile_GloveSHORE.obj
 0001:00052cf0       _sf_opaque_initialize_c2_ARP_02_RPSsmile_GloveSHORE 10053cf0 f   c2_ARP_02_RPSsmile_GloveSHORE.obj
 0001:00052d20       _initialize_c2_ARP_02_RPSsmile_GloveSHORE 10053d20 f   c2_ARP_02_RPSsmile_GloveSHORE.obj
 0001:00052d50       _sf_opaque_enable_c2_ARP_02_RPSsmile_GloveSHORE 10053d50 f   c2_ARP_02_RPSsmile_GloveSHORE.obj
 0001:00052d70       _enable_c2_ARP_02_RPSsmile_GloveSHORE 10053d70 f   c2_ARP_02_RPSsmile_GloveSHORE.obj
 0001:00052d90       _sf_opaque_disable_c2_ARP_02_RPSsmile_GloveSHORE 10053d90 f   c2_ARP_02_RPSsmile_GloveSHORE.obj
 0001:00052db0       _disable_c2_ARP_02_RPSsmile_GloveSHORE 10053db0 f   c2_ARP_02_RPSsmile_GloveSHORE.obj
 0001:00052dd0       _sf_opaque_gateway_c2_ARP_02_RPSsmile_GloveSHORE 10053dd0 f   c2_ARP_02_RPSsmile_GloveSHORE.obj
 0001:00052df0       _sf_gateway_c2_ARP_02_RPSsmile_GloveSHORE 10053df0 f   c2_ARP_02_RPSsmile_GloveSHORE.obj
 0001:00053c90       _c2_sf_marshallIn          10054c90 f   c2_ARP_02_RPSsmile_GloveSHORE.obj
 0001:00053d10       _c2_emlrt_marshallIn       10054d10 f   c2_ARP_02_RPSsmile_GloveSHORE.obj
 0001:00053d60       _sf_opaque_get_sim_state_c2_ARP_02_RPSsmile_GloveSHORE 10054d60 f   c2_ARP_02_RPSsmile_GloveSHORE.obj
 0001:00053d80       _sf_opaque_set_sim_state_c2_ARP_02_RPSsmile_GloveSHORE 10054d80 f   c2_ARP_02_RPSsmile_GloveSHORE.obj
 0001:00053da0       _sf_opaque_terminate_c2_ARP_02_RPSsmile_GloveSHORE 10054da0 f   c2_ARP_02_RPSsmile_GloveSHORE.obj
 0001:00053e30       _finalize_c2_ARP_02_RPSsmile_GloveSHORE 10054e30 f   c2_ARP_02_RPSsmile_GloveSHORE.obj
 0001:00053e40       _sf_opaque_init_subchart_simstructs 10054e40 f   c2_ARP_02_RPSsmile_GloveSHORE.obj
 0001:00053e60       _initSimStructsc2_ARP_02_RPSsmile_GloveSHORE 10054e60 f   c2_ARP_02_RPSsmile_GloveSHORE.obj
 0001:00053e70       _mdlRTW_c2_ARP_02_RPSsmile_GloveSHORE 10054e70 f   c2_ARP_02_RPSsmile_GloveSHORE.obj
 0001:00054380       _get_sim_state_c3_ARP_02_RPSsmile_GloveSHORE 10055380 f   c3_ARP_02_RPSsmile_GloveSHORE.obj
 0001:000544a0       _sf_get_sim_state_info_c3_ARP_02_RPSsmile_GloveSHORE 100554a0 f   c3_ARP_02_RPSsmile_GloveSHORE.obj
 0001:00054620       _set_sim_state_c3_ARP_02_RPSsmile_GloveSHORE 10055620 f   c3_ARP_02_RPSsmile_GloveSHORE.obj
 0001:000546e0       _c3_update_debugger_state_c3_ARP_02_RPSsmile_GloveSHORE 100556e0 f   c3_ARP_02_RPSsmile_GloveSHORE.obj
 0001:000546f0       _c3_emlrt_marshallIn       100556f0 f   c3_ARP_02_RPSsmile_GloveSHORE.obj
 0001:00054740       _c3_b_emlrt_marshallIn     10055740 f   c3_ARP_02_RPSsmile_GloveSHORE.obj
 0001:00054790       _c3_d_emlrt_marshallIn     10055790 f   c3_ARP_02_RPSsmile_GloveSHORE.obj
 0001:000547e0       _c3_e_emlrt_marshallIn     100557e0 f   c3_ARP_02_RPSsmile_GloveSHORE.obj
 0001:00054890       _mdlProcessParameters_c3_ARP_02_RPSsmile_GloveSHORE 10055890 f   c3_ARP_02_RPSsmile_GloveSHORE.obj
 0001:00054940       _initialize_params_c3_ARP_02_RPSsmile_GloveSHORE 10055940 f   c3_ARP_02_RPSsmile_GloveSHORE.obj
 0001:00054950       _mdlSetWorkWidths_c3_ARP_02_RPSsmile_GloveSHORE 10055950 f   c3_ARP_02_RPSsmile_GloveSHORE.obj
 0001:00054cd0       _sf_get_instance_specialization 10055cd0 f   c3_ARP_02_RPSsmile_GloveSHORE.obj
 0001:00054ce0       _mdlStart_c3_ARP_02_RPSsmile_GloveSHORE 10055ce0 f   c3_ARP_02_RPSsmile_GloveSHORE.obj
 0001:00054e80       _init_dsm_address_info     10055e80 f   c3_ARP_02_RPSsmile_GloveSHORE.obj
 0001:00054e90       _chart_debug_initialization 10055e90 f   c3_ARP_02_RPSsmile_GloveSHORE.obj
 0001:000553a0       _init_script_number_translation 100563a0 f   c3_ARP_02_RPSsmile_GloveSHORE.obj
 0001:000553b0       _c3_sf_marshallOut         100563b0 f   c3_ARP_02_RPSsmile_GloveSHORE.obj
 0001:00055430       _c3_sf_marshallIn          10056430 f   c3_ARP_02_RPSsmile_GloveSHORE.obj
 0001:000554b0       _sf_opaque_initialize_c3_ARP_02_RPSsmile_GloveSHORE 100564b0 f   c3_ARP_02_RPSsmile_GloveSHORE.obj
 0001:000554e0       _initialize_c3_ARP_02_RPSsmile_GloveSHORE 100564e0 f   c3_ARP_02_RPSsmile_GloveSHORE.obj
 0001:00055510       _sf_opaque_enable_c3_ARP_02_RPSsmile_GloveSHORE 10056510 f   c3_ARP_02_RPSsmile_GloveSHORE.obj
 0001:00055530       _enable_c3_ARP_02_RPSsmile_GloveSHORE 10056530 f   c3_ARP_02_RPSsmile_GloveSHORE.obj
 0001:00055550       _sf_opaque_disable_c3_ARP_02_RPSsmile_GloveSHORE 10056550 f   c3_ARP_02_RPSsmile_GloveSHORE.obj
 0001:00055570       _disable_c3_ARP_02_RPSsmile_GloveSHORE 10056570 f   c3_ARP_02_RPSsmile_GloveSHORE.obj
 0001:00055590       _sf_opaque_gateway_c3_ARP_02_RPSsmile_GloveSHORE 10056590 f   c3_ARP_02_RPSsmile_GloveSHORE.obj
 0001:000555b0       _sf_gateway_c3_ARP_02_RPSsmile_GloveSHORE 100565b0 f   c3_ARP_02_RPSsmile_GloveSHORE.obj
 0001:00055c70       _sf_opaque_get_sim_state_c3_ARP_02_RPSsmile_GloveSHORE 10056c70 f   c3_ARP_02_RPSsmile_GloveSHORE.obj
 0001:00055c90       _sf_opaque_set_sim_state_c3_ARP_02_RPSsmile_GloveSHORE 10056c90 f   c3_ARP_02_RPSsmile_GloveSHORE.obj
 0001:00055cb0       _sf_opaque_terminate_c3_ARP_02_RPSsmile_GloveSHORE 10056cb0 f   c3_ARP_02_RPSsmile_GloveSHORE.obj
 0001:00055d40       _finalize_c3_ARP_02_RPSsmile_GloveSHORE 10056d40 f   c3_ARP_02_RPSsmile_GloveSHORE.obj
 0001:00055d50       _sf_opaque_init_subchart_simstructs 10056d50 f   c3_ARP_02_RPSsmile_GloveSHORE.obj
 0001:00055d70       _initSimStructsc3_ARP_02_RPSsmile_GloveSHORE 10056d70 f   c3_ARP_02_RPSsmile_GloveSHORE.obj
 0001:00055d80       _mdlRTW_c3_ARP_02_RPSsmile_GloveSHORE 10056d80 f   c3_ARP_02_RPSsmile_GloveSHORE.obj
 0001:00056290       _get_sim_state_c6_ARP_02_RPSsmile_GloveSHORE 10057290 f   c6_ARP_02_RPSsmile_GloveSHORE.obj
 0001:000563b0       _sf_get_sim_state_info_c6_ARP_02_RPSsmile_GloveSHORE 100573b0 f   c6_ARP_02_RPSsmile_GloveSHORE.obj
 0001:00056530       _set_sim_state_c6_ARP_02_RPSsmile_GloveSHORE 10057530 f   c6_ARP_02_RPSsmile_GloveSHORE.obj
 0001:000565f0       _c6_update_debugger_state_c6_ARP_02_RPSsmile_GloveSHORE 100575f0 f   c6_ARP_02_RPSsmile_GloveSHORE.obj
 0001:00056600       _c6_emlrt_marshallIn       10057600 f   c6_ARP_02_RPSsmile_GloveSHORE.obj
 0001:00056650       _c6_b_emlrt_marshallIn     10057650 f   c6_ARP_02_RPSsmile_GloveSHORE.obj
 0001:000566a0       _c6_d_emlrt_marshallIn     100576a0 f   c6_ARP_02_RPSsmile_GloveSHORE.obj
 0001:000566f0       _c6_e_emlrt_marshallIn     100576f0 f   c6_ARP_02_RPSsmile_GloveSHORE.obj
 0001:000567a0       _mdlProcessParameters_c6_ARP_02_RPSsmile_GloveSHORE 100577a0 f   c6_ARP_02_RPSsmile_GloveSHORE.obj
 0001:00056850       _initialize_params_c6_ARP_02_RPSsmile_GloveSHORE 10057850 f   c6_ARP_02_RPSsmile_GloveSHORE.obj
 0001:00056860       _mdlSetWorkWidths_c6_ARP_02_RPSsmile_GloveSHORE 10057860 f   c6_ARP_02_RPSsmile_GloveSHORE.obj
 0001:00056be0       _sf_get_instance_specialization 10057be0 f   c6_ARP_02_RPSsmile_GloveSHORE.obj
 0001:00056bf0       _mdlStart_c6_ARP_02_RPSsmile_GloveSHORE 10057bf0 f   c6_ARP_02_RPSsmile_GloveSHORE.obj
 0001:00056d90       _init_dsm_address_info     10057d90 f   c6_ARP_02_RPSsmile_GloveSHORE.obj
 0001:00056da0       _chart_debug_initialization 10057da0 f   c6_ARP_02_RPSsmile_GloveSHORE.obj
 0001:00057220       _init_script_number_translation 10058220 f   c6_ARP_02_RPSsmile_GloveSHORE.obj
 0001:00057230       _c6_sf_marshallOut         10058230 f   c6_ARP_02_RPSsmile_GloveSHORE.obj
 0001:000572b0       _c6_sf_marshallIn          100582b0 f   c6_ARP_02_RPSsmile_GloveSHORE.obj
 0001:00057330       _sf_opaque_initialize_c6_ARP_02_RPSsmile_GloveSHORE 10058330 f   c6_ARP_02_RPSsmile_GloveSHORE.obj
 0001:00057360       _initialize_c6_ARP_02_RPSsmile_GloveSHORE 10058360 f   c6_ARP_02_RPSsmile_GloveSHORE.obj
 0001:00057390       _sf_opaque_enable_c6_ARP_02_RPSsmile_GloveSHORE 10058390 f   c6_ARP_02_RPSsmile_GloveSHORE.obj
 0001:000573b0       _enable_c6_ARP_02_RPSsmile_GloveSHORE 100583b0 f   c6_ARP_02_RPSsmile_GloveSHORE.obj
 0001:000573d0       _sf_opaque_disable_c6_ARP_02_RPSsmile_GloveSHORE 100583d0 f   c6_ARP_02_RPSsmile_GloveSHORE.obj
 0001:000573f0       _disable_c6_ARP_02_RPSsmile_GloveSHORE 100583f0 f   c6_ARP_02_RPSsmile_GloveSHORE.obj
 0001:00057410       _sf_opaque_gateway_c6_ARP_02_RPSsmile_GloveSHORE 10058410 f   c6_ARP_02_RPSsmile_GloveSHORE.obj
 0001:00057430       _sf_gateway_c6_ARP_02_RPSsmile_GloveSHORE 10058430 f   c6_ARP_02_RPSsmile_GloveSHORE.obj
 0001:00057920       _sf_opaque_get_sim_state_c6_ARP_02_RPSsmile_GloveSHORE 10058920 f   c6_ARP_02_RPSsmile_GloveSHORE.obj
 0001:00057940       _sf_opaque_set_sim_state_c6_ARP_02_RPSsmile_GloveSHORE 10058940 f   c6_ARP_02_RPSsmile_GloveSHORE.obj
 0001:00057960       _sf_opaque_terminate_c6_ARP_02_RPSsmile_GloveSHORE 10058960 f   c6_ARP_02_RPSsmile_GloveSHORE.obj
 0001:000579f0       _finalize_c6_ARP_02_RPSsmile_GloveSHORE 100589f0 f   c6_ARP_02_RPSsmile_GloveSHORE.obj
 0001:00057a00       _sf_opaque_init_subchart_simstructs 10058a00 f   c6_ARP_02_RPSsmile_GloveSHORE.obj
 0001:00057a20       _initSimStructsc6_ARP_02_RPSsmile_GloveSHORE 10058a20 f   c6_ARP_02_RPSsmile_GloveSHORE.obj
 0001:00057a30       _mdlRTW_c6_ARP_02_RPSsmile_GloveSHORE 10058a30 f   c6_ARP_02_RPSsmile_GloveSHORE.obj
 0001:00058170       _getChartInfoFromSimStruct 10059170 f   ARP_02_RPSsmile_GloveSHORE_sfun_registry.obj
 0001:00059270       __ssFatalError             1005a270 f   ARP_02_RPSsmile_GloveSHORE_sfun_registry.obj
 0001:0005b5d0       _ProcessMexSfunctionCmdLineCall 1005c5d0 f   ARP_02_RPSsmile_GloveSHORE_sfun_registry.obj
 0001:0005b6f0       _sf_debug_api_wrapper      1005c6f0 f   ARP_02_RPSsmile_GloveSHORE_sfun_registry.obj
 0001:0005b720       _mdlStart                  1005c720 f   ARP_02_RPSsmile_GloveSHORE_sfun_registry.obj
 0001:0005b740       _mdl_start_processing      1005c740 f   ARP_02_RPSsmile_GloveSHORE_sfun_registry.obj
 0001:0005b7b0       _mdlTerminate              1005c7b0 f   ARP_02_RPSsmile_GloveSHORE_sfun_registry.obj
 0001:0005b7d0       _mdl_terminate_processing  1005c7d0 f   ARP_02_RPSsmile_GloveSHORE_sfun_registry.obj
 0001:0005b840       _mdlInitializeSampleTimes  1005c840 f   ARP_02_RPSsmile_GloveSHORE_sfun_registry.obj
 0001:0005b860       _mdlZeroCrossings          1005c860 f   ARP_02_RPSsmile_GloveSHORE_sfun_registry.obj
 0001:0005b880       _mdl_zeroCrossings_processing 1005c880 f   ARP_02_RPSsmile_GloveSHORE_sfun_registry.obj
 0001:0005b8b0       _mdlDerivatives            1005c8b0 f   ARP_02_RPSsmile_GloveSHORE_sfun_registry.obj
 0001:0005b8d0       _mdl_derivatives_processing 1005c8d0 f   ARP_02_RPSsmile_GloveSHORE_sfun_registry.obj
 0001:0005b910       _mdlInitializeConditions   1005c910 f   ARP_02_RPSsmile_GloveSHORE_sfun_registry.obj
 0001:0005b930       _mdl_initialize_conditions_processing 1005c930 f   ARP_02_RPSsmile_GloveSHORE_sfun_registry.obj
 0001:0005b970       _mdlEnable                 1005c970 f   ARP_02_RPSsmile_GloveSHORE_sfun_registry.obj
 0001:0005b990       _mdl_enable_processing     1005c990 f   ARP_02_RPSsmile_GloveSHORE_sfun_registry.obj
 0001:0005b9c0       _mdlDisable                1005c9c0 f   ARP_02_RPSsmile_GloveSHORE_sfun_registry.obj
 0001:0005b9e0       _mdl_disable_processing    1005c9e0 f   ARP_02_RPSsmile_GloveSHORE_sfun_registry.obj
 0001:0005ba10       _mdlOutputs                1005ca10 f   ARP_02_RPSsmile_GloveSHORE_sfun_registry.obj
 0001:0005ba30       _mdl_outputs_processing    1005ca30 f   ARP_02_RPSsmile_GloveSHORE_sfun_registry.obj
 0001:0005bb00       _mdl_outputs_continuous_legacy 1005cb00 f   ARP_02_RPSsmile_GloveSHORE_sfun_registry.obj
 0001:0005bbd0       _mdlGetTimeOfNextVarHit    1005cbd0 f   ARP_02_RPSsmile_GloveSHORE_sfun_registry.obj
 0001:0005bc10       __ProcessMexSfunctionCmdLineCall 1005cc10 f   ARP_02_RPSsmile_GloveSHORE_sfun_registry.obj
 0001:0005c230       _mdlSetWorkWidths          1005d230 f   ARP_02_RPSsmile_GloveSHORE_sfun_registry.obj
 0001:0005c250       _mdlProcessParameters      1005d250 f   ARP_02_RPSsmile_GloveSHORE_sfun_registry.obj
 0001:0005c270       _mdlInitializeSizes        1005d270 f   ARP_02_RPSsmile_GloveSHORE_sfun_registry.obj
 0001:0005c290       _mdlExtModeExec            1005d290 f   ARP_02_RPSsmile_GloveSHORE_sfun_registry.obj
 0001:0005c2b0       _mdl_ext_mode_exec_processing 1005d2b0 f   ARP_02_RPSsmile_GloveSHORE_sfun_registry.obj
 0001:0005c2f0       _mdlRTW                    1005d2f0 f   ARP_02_RPSsmile_GloveSHORE_sfun_registry.obj
 0001:0005c320       __CreateSimStruct          1005d320 f   ARP_02_RPSsmile_GloveSHORE_sfun_registry.obj
 0001:0005c450       __RegNumInputPortsCB       1005d450 f   ARP_02_RPSsmile_GloveSHORE_sfun_registry.obj
 0001:0005c4b0       __RegNumOutputPortsCB      1005d4b0 f   ARP_02_RPSsmile_GloveSHORE_sfun_registry.obj
 0001:0005ca31       _pre_c_init                1005da31 f   MSVCRT:crtdll.obj
 0001:0005cc89       ___DllMainCRTStartup       1005dc89 f   MSVCRT:crtdll.obj
