 ARP_02_RPSsmile_Glove_Idle_sfun

 Timestamp is 54f8ba43 (Thu Mar 05 12:19:15 2015)

 Preferred load address is 10000000

 Start         Length     Name                   Class
 0001:00000000 0005b8a4H .text                   CODE
 0002:00000000 00000294H .idata$5                DATA
 0002:00000294 00000004H .CRT$XCA                DATA
 0002:00000298 00000004H .CRT$XCZ                DATA
 0002:0000029c 00000004H .CRT$XIA                DATA
 0002:000002a0 00000004H .CRT$XIAA               DATA
 0002:000002a4 00000004H .CRT$XIC                DATA
 0002:000002a8 00000004H .CRT$XIZ                DATA
 0002:000002b0 00000958H .rdata                  DATA
 0002:00000c10 00000004H .rdata$sxdata           DATA
 0002:00000c14 00000004H .rtc$IAA                DATA
 0002:00000c18 00000004H .rtc$IZZ                DATA
 0002:00000c1c 00000004H .rtc$TAA                DATA
 0002:00000c20 00000004H .rtc$TZZ                DATA
 0002:00000c28 00000064H .xdata$x                DATA
 0002:00000c8c 0000008cH .idata$2                DATA
 0002:00000d18 00000014H .idata$3                DATA
 0002:00000d2c 00000294H .idata$4                DATA
 0002:00000fc0 00000ef6H .idata$6                DATA
 0002:00001ec0 00000065H .edata                  DATA
 0003:00000000 00019b90H .data                   DATA
 0003:00019b90 000004a8H .bss                    DATA

  Address         Publics by Value              Rva+Base       Lib:Object

 0000:00000000       __except_list              00000000     <absolute>
 0000:00000001       ___safe_se_handler_count   00000001     <absolute>
 0000:00009876       __fltused                  00009876     <absolute>
 0000:00009876       __ldused                   00009876     <absolute>
 0000:00000000       ___ImageBase               10000000     <linker-defined>
 0001:00000000       _ARP_02_RPSsmile_Glove_Idle_initializer 10001000 f   ARP_02_RPSsmile_Glove_Idle_sfun.obj
 0001:00000010       _ARP_02_RPSsmile_Glove_Idle_terminator 10001010 f   ARP_02_RPSsmile_Glove_Idle_sfun.obj
 0001:00000020       _sf_ARP_02_RPSsmile_Glove_Idle_method_dispatcher 10001020 f   ARP_02_RPSsmile_Glove_Idle_sfun.obj
 0001:00000090       _sf_ARP_02_RPSsmile_Glove_Idle_process_check_sum_call 10001090 f   ARP_02_RPSsmile_Glove_Idle_sfun.obj
 0001:00000460       _sf_ARP_02_RPSsmile_Glove_Idle_autoinheritance_info 10001460 f   ARP_02_RPSsmile_Glove_Idle_sfun.obj
 0001:00000600       _sf_ARP_02_RPSsmile_Glove_Idle_get_eml_resolved_functions_info 10001600 f   ARP_02_RPSsmile_Glove_Idle_sfun.obj
 0001:00000750       _sf_ARP_02_RPSsmile_Glove_Idle_third_party_uses_info 10001750 f   ARP_02_RPSsmile_Glove_Idle_sfun.obj
 0001:000008e0       _sf_ARP_02_RPSsmile_Glove_Idle_updateBuildInfo_args_info 100018e0 f   ARP_02_RPSsmile_Glove_Idle_sfun.obj
 0001:00000a70       _ARP_02_RPSsmile_Glove_Idle_debug_initialize 10001a70 f   ARP_02_RPSsmile_Glove_Idle_sfun.obj
 0001:00000ad0       _ARP_02_RPSsmile_Glove_Idle_register_exported_symbols 10001ad0 f   ARP_02_RPSsmile_Glove_Idle_sfun.obj
 0001:00000ae0       _load_ARP_02_RPSsmile_Glove_Idle_optimization_info 10001ae0 f   ARP_02_RPSsmile_Glove_Idle_sfun.obj
 0001:00000b20       _unload_ARP_02_RPSsmile_Glove_Idle_optimization_info 10001b20 f   ARP_02_RPSsmile_Glove_Idle_sfun.obj
 0001:00000b80       _sf_c1_ARP_02_RPSsmile_Glove_Idle_get_eml_resolved_functions_info 10001b80 f   c1_ARP_02_RPSsmile_Glove_Idle.obj
 0001:00005810       _sf_c1_ARP_02_RPSsmile_Glove_Idle_get_check_sum 10006810 f   c1_ARP_02_RPSsmile_Glove_Idle.obj
 0001:00005870       _sf_c1_ARP_02_RPSsmile_Glove_Idle_get_autoinheritance_info 10006870 f   c1_ARP_02_RPSsmile_Glove_Idle.obj
 0001:00007980       _sf_c1_ARP_02_RPSsmile_Glove_Idle_third_party_uses_info 10008980 f   c1_ARP_02_RPSsmile_Glove_Idle.obj
 0001:000079a0       _sf_c1_ARP_02_RPSsmile_Glove_Idle_updateBuildInfo_args_info 100089a0 f   c1_ARP_02_RPSsmile_Glove_Idle.obj
 0001:000079c0       _sf_internal_get_sim_state_c1_ARP_02_RPSsmile_Glove_Idle 100089c0 f   c1_ARP_02_RPSsmile_Glove_Idle.obj
 0001:00009060       _sf_internal_set_sim_state_c1_ARP_02_RPSsmile_Glove_Idle 1000a060 f   c1_ARP_02_RPSsmile_Glove_Idle.obj
 0001:0000b760       _c1_ARP_02_RPSsmile_Glove_Idle_method_dispatcher 1000c760 f   c1_ARP_02_RPSsmile_Glove_Idle.obj
 0001:00051140       _sf_c2_ARP_02_RPSsmile_Glove_Idle_get_eml_resolved_functions_info 10052140 f   c2_ARP_02_RPSsmile_Glove_Idle.obj
 0001:00051440       _sf_c2_ARP_02_RPSsmile_Glove_Idle_get_check_sum 10052440 f   c2_ARP_02_RPSsmile_Glove_Idle.obj
 0001:000514a0       _sf_c2_ARP_02_RPSsmile_Glove_Idle_get_autoinheritance_info 100524a0 f   c2_ARP_02_RPSsmile_Glove_Idle.obj
 0001:00051b90       _sf_c2_ARP_02_RPSsmile_Glove_Idle_third_party_uses_info 10052b90 f   c2_ARP_02_RPSsmile_Glove_Idle.obj
 0001:00051bb0       _sf_c2_ARP_02_RPSsmile_Glove_Idle_updateBuildInfo_args_info 10052bb0 f   c2_ARP_02_RPSsmile_Glove_Idle.obj
 0001:00051bd0       _sf_internal_get_sim_state_c2_ARP_02_RPSsmile_Glove_Idle 10052bd0 f   c2_ARP_02_RPSsmile_Glove_Idle.obj
 0001:00051e10       _sf_internal_set_sim_state_c2_ARP_02_RPSsmile_Glove_Idle 10052e10 f   c2_ARP_02_RPSsmile_Glove_Idle.obj
 0001:00052020       _c2_ARP_02_RPSsmile_Glove_Idle_method_dispatcher 10053020 f   c2_ARP_02_RPSsmile_Glove_Idle.obj
 0001:000540c0       _sf_c3_ARP_02_RPSsmile_Glove_Idle_get_eml_resolved_functions_info 100550c0 f   c3_ARP_02_RPSsmile_Glove_Idle.obj
 0001:00054110       _sf_c3_ARP_02_RPSsmile_Glove_Idle_get_check_sum 10055110 f   c3_ARP_02_RPSsmile_Glove_Idle.obj
 0001:00054170       _sf_c3_ARP_02_RPSsmile_Glove_Idle_get_autoinheritance_info 10055170 f   c3_ARP_02_RPSsmile_Glove_Idle.obj
 0001:00054480       _sf_c3_ARP_02_RPSsmile_Glove_Idle_third_party_uses_info 10055480 f   c3_ARP_02_RPSsmile_Glove_Idle.obj
 0001:000544a0       _sf_c3_ARP_02_RPSsmile_Glove_Idle_updateBuildInfo_args_info 100554a0 f   c3_ARP_02_RPSsmile_Glove_Idle.obj
 0001:000544c0       _sf_internal_get_sim_state_c3_ARP_02_RPSsmile_Glove_Idle 100554c0 f   c3_ARP_02_RPSsmile_Glove_Idle.obj
 0001:00054760       _sf_internal_set_sim_state_c3_ARP_02_RPSsmile_Glove_Idle 10055760 f   c3_ARP_02_RPSsmile_Glove_Idle.obj
 0001:00054a50       _c3_ARP_02_RPSsmile_Glove_Idle_method_dispatcher 10055a50 f   c3_ARP_02_RPSsmile_Glove_Idle.obj
 0001:00055fd0       _sf_process_check_sum_call 10056fd0 f   ARP_02_RPSsmile_Glove_Idle_sfun_registry.obj
 0001:00056000       _sf_process_autoinheritance_call 10057000 f   ARP_02_RPSsmile_Glove_Idle_sfun_registry.obj
 0001:00056140       _sf_process_get_third_party_uses_info_call 10057140 f   ARP_02_RPSsmile_Glove_Idle_sfun_registry.obj
 0001:00056280       _sf_process_get_updateBuildInfo_args_info_call 10057280 f   ARP_02_RPSsmile_Glove_Idle_sfun_registry.obj
 0001:000563c0       _sf_process_get_eml_resolved_functions_info_call 100573c0 f   ARP_02_RPSsmile_Glove_Idle_sfun_registry.obj
 0001:000564e0       _sf_mex_unlock_call        100574e0 f   ARP_02_RPSsmile_Glove_Idle_sfun_registry.obj
 0001:00056570       _sf_machine_global_initializer_called 10057570 f   ARP_02_RPSsmile_Glove_Idle_sfun_registry.obj
 0001:00056590       _sf_machine_global_method_dispatcher 10057590 f   ARP_02_RPSsmile_Glove_Idle_sfun_registry.obj
 0001:000565d0       _sf_machine_global_terminator 100575d0 f   ARP_02_RPSsmile_Glove_Idle_sfun_registry.obj
 0001:00056610       _sf_register_machine_exported_symbols 10057610 f   ARP_02_RPSsmile_Glove_Idle_sfun_registry.obj
 0001:00056630       _callCustomFcn             10057630 f   ARP_02_RPSsmile_Glove_Idle_sfun_registry.obj
 0001:00056640       _sf_machine_global_initializer 10057640 f   ARP_02_RPSsmile_Glove_Idle_sfun_registry.obj
 0001:000566b0       _mdlGetSimState            100576b0 f   ARP_02_RPSsmile_Glove_Idle_sfun_registry.obj
 0001:00056710       _mdlSetSimState            10057710 f   ARP_02_RPSsmile_Glove_Idle_sfun_registry.obj
 0001:00056740       __ssSetStateAbsTol         10057740 f   ARP_02_RPSsmile_Glove_Idle_sfun_registry.obj
 0001:000567e0       __ssGetAbsTol              100577e0 f   ARP_02_RPSsmile_Glove_Idle_sfun_registry.obj
 0001:00056830       __ssSetInputPortMatrixDimensions 10057830 f   ARP_02_RPSsmile_Glove_Idle_sfun_registry.obj
 0001:000568e0       __ssSetOutputPortMatrixDimensions 100578e0 f   ARP_02_RPSsmile_Glove_Idle_sfun_registry.obj
 0001:00056990       __ssSetInputPortVectorDimension 10057990 f   ARP_02_RPSsmile_Glove_Idle_sfun_registry.obj
 0001:00056a10       __ssSetOutputPortVectorDimension 10057a10 f   ARP_02_RPSsmile_Glove_Idle_sfun_registry.obj
 0001:00056a90       _ssIsRunTimeParamTunable   10057a90 f   ARP_02_RPSsmile_Glove_Idle_sfun_registry.obj
 0001:00056af0       _ssGetSFuncBlockHandle     10057af0 f   ARP_02_RPSsmile_Glove_Idle_sfun_registry.obj
 0001:00056b40       __ssGetCurrentInputPortWidth 10057b40 f   ARP_02_RPSsmile_Glove_Idle_sfun_registry.obj
 0001:00056c10       __ssGetCurrentOutputPortWidth 10057c10 f   ARP_02_RPSsmile_Glove_Idle_sfun_registry.obj
 0001:00056ce0       __ssGetCallSystemNumFcnCallDestinations 10057ce0 f   ARP_02_RPSsmile_Glove_Idle_sfun_registry.obj
 0001:00056d40       _ssWarning                 10057d40 f   ARP_02_RPSsmile_Glove_Idle_sfun_registry.obj
 0001:00056e20       _ssGetIsZeroCrossControlDisabled 10057e20 f   ARP_02_RPSsmile_Glove_Idle_sfun_registry.obj
 0001:00056e80       _ssSetIsInputPortUsedForContZcSignal 10057e80 f   ARP_02_RPSsmile_Glove_Idle_sfun_registry.obj
 0001:00056ed0       _ssSetZcSignalIsZcElementDisc 10057ed0 f   ARP_02_RPSsmile_Glove_Idle_sfun_registry.obj
 0001:00056f50       _ssSetZcSignalName         10057f50 f   ARP_02_RPSsmile_Glove_Idle_sfun_registry.obj
 0001:00056fa0       _ssSetZcSignalWidth        10057fa0 f   ARP_02_RPSsmile_Glove_Idle_sfun_registry.obj
 0001:00056ff0       _ssSetZcSignalZcEventType  10057ff0 f   ARP_02_RPSsmile_Glove_Idle_sfun_registry.obj
 0001:00057040       _ssSetZcSignalType         10058040 f   ARP_02_RPSsmile_Glove_Idle_sfun_registry.obj
 0001:00057090       _ssSetZcSignalZcTol        10058090 f   ARP_02_RPSsmile_Glove_Idle_sfun_registry.obj
 0001:000570e0       _ssSetZcSignalNeedsEventNotification 100580e0 f   ARP_02_RPSsmile_Glove_Idle_sfun_registry.obj
 0001:00057130       _ssCreateAndAddZcSignalInfo 10058130 f   ARP_02_RPSsmile_Glove_Idle_sfun_registry.obj
 0001:00057190       _ssCloneAndAddZcSignalInfo 10058190 f   ARP_02_RPSsmile_Glove_Idle_sfun_registry.obj
 0001:000571f0       _ssGetNumZcSignals         100581f0 f   ARP_02_RPSsmile_Glove_Idle_sfun_registry.obj
 0001:00057250       _ssGetZcSignalVector       10058250 f   ARP_02_RPSsmile_Glove_Idle_sfun_registry.obj
 0001:000572b0       _ssGetZcSignalZcEvents     100582b0 f   ARP_02_RPSsmile_Glove_Idle_sfun_registry.obj
 0001:00057310       _ssGetZcSignalName         10058310 f   ARP_02_RPSsmile_Glove_Idle_sfun_registry.obj
 0001:00057370       _ssGetZcSignalWidth        10058370 f   ARP_02_RPSsmile_Glove_Idle_sfun_registry.obj
 0001:000573d0       _ssGetZcSignalZcEventType  100583d0 f   ARP_02_RPSsmile_Glove_Idle_sfun_registry.obj
 0001:00057430       _ssGetZcSignalType         10058430 f   ARP_02_RPSsmile_Glove_Idle_sfun_registry.obj
 0001:00057490       _ssGetZcSignalZcTol        10058490 f   ARP_02_RPSsmile_Glove_Idle_sfun_registry.obj
 0001:000574f0       _ssGetZcSignalNeedsEventNotification 100584f0 f   ARP_02_RPSsmile_Glove_Idle_sfun_registry.obj
 0001:00057550       _ssGetZcSignalIsZcElementDisc 10058550 f   ARP_02_RPSsmile_Glove_Idle_sfun_registry.obj
 0001:000575d0       _ssGetIsInputPortElementContinuous 100585d0 f   ARP_02_RPSsmile_Glove_Idle_sfun_registry.obj
 0001:00057650       __ssGetInputPortSignalPtrsFcn 10058650 f   ARP_02_RPSsmile_Glove_Idle_sfun_registry.obj
 0001:00057850       __ssGetInputPortSignalFcn  10058850 f   ARP_02_RPSsmile_Glove_Idle_sfun_registry.obj
 0001:000579e0       __ssSetInputPortDirectFeedThroughFcn 100589e0 f   ARP_02_RPSsmile_Glove_Idle_sfun_registry.obj
 0001:00057b10       __ssSetInputPortReusableFcn 10058b10 f   ARP_02_RPSsmile_Glove_Idle_sfun_registry.obj
 0001:00057ba0       __ssSetOutputPortReusableFcn 10058ba0 f   ARP_02_RPSsmile_Glove_Idle_sfun_registry.obj
 0001:00057c30       _ssGetDTypeIdFromMxArray   10058c30 f   ARP_02_RPSsmile_Glove_Idle_sfun_registry.obj
 0001:00057d20       _ssWriteRTWStr             10058d20 f   ARP_02_RPSsmile_Glove_Idle_sfun_registry.obj
 0001:00057d60       _ssWriteRTWMxVectParam     10058d60 f   ARP_02_RPSsmile_Glove_Idle_sfun_registry.obj
 0001:00057da0       _ssWriteRTWMx2dMatParam    10058da0 f   ARP_02_RPSsmile_Glove_Idle_sfun_registry.obj
 0001:00057de0       _ssWriteRTWNameValuePair   10058de0 f   ARP_02_RPSsmile_Glove_Idle_sfun_registry.obj
 0001:00058150       _ssWriteRTWParameters      10059150 f   ARP_02_RPSsmile_Glove_Idle_sfun_registry.obj
 0001:000584f0       _ssWriteRTWParamSettings   100594f0 f   ARP_02_RPSsmile_Glove_Idle_sfun_registry.obj
 0001:000589a0       _ssWriteRTWWorkVect        100599a0 f   ARP_02_RPSsmile_Glove_Idle_sfun_registry.obj
 0001:00058d30       _mexFunction               10059d30 f   ARP_02_RPSsmile_Glove_Idle_sfun_registry.obj
 0001:0005aa80       _ProcessMexSfunctionEveryCall 1005ba80 f   ARP_02_RPSsmile_Glove_Idle_sfun_registry.obj
 0001:0005ab9e       _sf_debug_set_machine_data_thresholds 1005bb9e f   sf_runtime:sf_runtime.dll
 0001:0005aba4       _sf_debug_set_machine_event_thresholds 1005bba4 f   sf_runtime:sf_runtime.dll
 0001:0005abaa       _sf_debug_initialize_machine 1005bbaa f   sf_runtime:sf_runtime.dll
 0001:0005abb0       _sf_load_rtw_optimization_info 1005bbb0 f   sf_runtime:sf_runtime.dll
 0001:0005abb6       _sf_mex_emlrtNameCapturePostProcessR2012a 1005bbb6 f   sf_runtime:sf_runtime.dll
 0001:0005abbc       _sf_mex_assign             1005bbbc f   sf_runtime:sf_runtime.dll
 0001:0005abc2       _sf_mex_createstruct       1005bbc2 f   sf_runtime:sf_runtime.dll
 0001:0005abc8       _sf_mex_destroy            1005bbc8 f   sf_runtime:sf_runtime.dll
 0001:0005abce       _sf_mex_duplicatearraysafe 1005bbce f   sf_runtime:sf_runtime.dll
 0001:0005abd4       _sf_mex_createcellmatrix   1005bbd4 f   sf_runtime:sf_runtime.dll
 0001:0005abda       _sf_mex_addfield           1005bbda f   sf_runtime:sf_runtime.dll
 0001:0005abe0       _sf_mex_create             1005bbe0 f   sf_runtime:sf_runtime.dll
 0001:0005abe6       _sf_mex_error_message      1005bbe6 f   sf_runtime:sf_runtime.dll
 0001:0005abec       _sf_mex_call_matlab        1005bbec f   sf_runtime:sf_runtime.dll
 0001:0005abf2       _sf_mex_setcell            1005bbf2 f   sf_runtime:sf_runtime.dll
 0001:0005abf8       _sf_mex_decode_encoded_mx_struct_array 1005bbf8 f   sf_runtime:sf_runtime.dll
 0001:0005abfe       _sf_mex_getcell            1005bbfe f   sf_runtime:sf_runtime.dll
 0001:0005ac04       _sf_mex_dup                1005bc04 f   sf_runtime:sf_runtime.dll
 0001:0005ac0a       _sf_debug_animate          1005bc0a f   sf_runtime:sf_runtime.dll
 0001:0005ac10       _sf_debug_call             1005bc10 f   sf_runtime:sf_runtime.dll
 0001:0005ac16       _sf_debug_set_honor_breakpoints 1005bc16 f   sf_runtime:sf_runtime.dll
 0001:0005ac1c       _sf_debug_set_animation    1005bc1c f   sf_runtime:sf_runtime.dll
 0001:0005ac22       _sf_debug_get_animation    1005bc22 f   sf_runtime:sf_runtime.dll
 0001:0005ac28       _sf_mex_import             1005bc28 f   sf_runtime:sf_runtime.dll
 0001:0005ac2e       _sf_set_rtw_dwork_info     1005bc2e f   sf_runtime:sf_runtime.dll
 0001:0005ac34       _sf_mark_chart_reusable_outputs 1005bc34 f   sf_runtime:sf_runtime.dll
 0001:0005ac3a       _sf_mark_chart_expressionable_inputs 1005bc3a f   sf_runtime:sf_runtime.dll
 0001:0005ac40       _sf_mark_output_events_with_multiple_callers 1005bc40 f   sf_runtime:sf_runtime.dll
 0001:0005ac46       _sf_update_buildInfo       1005bc46 f   sf_runtime:sf_runtime.dll
 0001:0005ac4c       _sf_rtw_info_uint_prop     1005bc4c f   sf_runtime:sf_runtime.dll
 0001:0005ac52       _sf_is_chart_inlinable     1005bc52 f   sf_runtime:sf_runtime.dll
 0001:0005ac58       _sim_mode_is_external      1005bc58 f   sf_runtime:sf_runtime.dll
 0001:0005ac5e       _sim_mode_is_rtw_gen       1005bc5e f   sf_runtime:sf_runtime.dll
 0001:0005ac64       _sf_debug_reset_current_state_configuration 1005bc64 f   sf_runtime:sf_runtime.dll
 0001:0005ac6a       _sf_debug_set_instance_data_value_ptr 1005bc6a f   sf_runtime:sf_runtime.dll
 0001:0005ac70       _sf_debug_set_chart_data_compiled_props 1005bc70 f   sf_runtime:sf_runtime.dll
 0001:0005ac76       _cv_eml_init_mcdc          1005bc76 f   sf_runtime:sf_runtime.dll
 0001:0005ac7c       _cv_script_init_fcn        1005bc7c f   sf_runtime:sf_runtime.dll
 0001:0005ac82       _cv_script_init_script     1005bc82 f   sf_runtime:sf_runtime.dll
 0001:0005ac88       _cv_eml_init_if            1005bc88 f   sf_runtime:sf_runtime.dll
 0001:0005ac8e       _cv_eml_init_fcn           1005bc8e f   sf_runtime:sf_runtime.dll
 0001:0005ac94       _cv_eml_init_script        1005bc94 f   sf_runtime:sf_runtime.dll
 0001:0005ac9a       _sf_debug_cv_init_trans    1005bc9a f   sf_runtime:sf_runtime.dll
 0001:0005aca0       _sf_debug_cv_init_state    1005bca0 f   sf_runtime:sf_runtime.dll
 0001:0005aca6       _sf_debug_cv_init_chart    1005bca6 f   sf_runtime:sf_runtime.dll
 0001:0005acac       _sf_debug_set_chart_state_substate_index 1005bcac f   sf_runtime:sf_runtime.dll
 0001:0005acb2       _sf_debug_set_chart_state_substate_count 1005bcb2 f   sf_runtime:sf_runtime.dll
 0001:0005acb8       _sf_debug_set_chart_substate_index 1005bcb8 f   sf_runtime:sf_runtime.dll
 0001:0005acbe       _sf_debug_set_chart_decomposition 1005bcbe f   sf_runtime:sf_runtime.dll
 0001:0005acc4       _sf_debug_set_chart_substate_count 1005bcc4 f   sf_runtime:sf_runtime.dll
 0001:0005acca       _sf_debug_set_chart_state_info 1005bcca f   sf_runtime:sf_runtime.dll
 0001:0005acd0       _sf_debug_set_chart_event_scope 1005bcd0 f   sf_runtime:sf_runtime.dll
 0001:0005acd6       _sf_debug_set_chart_data_props 1005bcd6 f   sf_runtime:sf_runtime.dll
 0001:0005acdc       _sf_debug_set_chart_event_thresholds 1005bcdc f   sf_runtime:sf_runtime.dll
 0001:0005ace2       _sf_debug_set_chart_disable_implicit_casting 1005bce2 f   sf_runtime:sf_runtime.dll
 0001:0005ace8       _sf_debug_initialize_chart 1005bce8 f   sf_runtime:sf_runtime.dll
 0001:0005acee       _sf_debug_set_script_translation 1005bcee f   sf_runtime:sf_runtime.dll
 0001:0005acf4       _sf_debug_get_script_id    1005bcf4 f   sf_runtime:sf_runtime.dll
 0001:0005acfa       _sf_get_time               1005bcfa f   sf_runtime:sf_runtime.dll
 0001:0005ad00       _sf_call_output_fcn_enable 1005bd00 f   sf_runtime:sf_runtime.dll
 0001:0005ad06       _sf_call_output_fcn_disable 1005bd06 f   sf_runtime:sf_runtime.dll
 0001:0005ad0c       _sf_debug_check_for_state_inconsistency 1005bd0c f   sf_runtime:sf_runtime.dll
 0001:0005ad12       _sf_debug_symbol_scope_pop 1005bd12 f   sf_runtime:sf_runtime.dll
 0001:0005ad18       _sf_debug_data_range_wrapper 1005bd18 f   sf_runtime:sf_runtime.dll
 0001:0005ad1e       _sf_debug_symbol_scope_push 1005bd1e f   sf_runtime:sf_runtime.dll
 0001:0005ad24       _sf_mex_sub                1005bd24 f   sf_runtime:sf_runtime.dll
 0001:0005ad2a       _cv_eml_eval               1005bd2a f   sf_runtime:sf_runtime.dll
 0001:0005ad30       _cv_eval_point             1005bd30 f   sf_runtime:sf_runtime.dll
 0001:0005ad36       _sf_mex_call_debug         1005bd36 f   sf_runtime:sf_runtime.dll
 0001:0005ad3c       _sf_mex_printf             1005bd3c f   sf_runtime:sf_runtime.dll
 0001:0005ad42       _sf_debug_unset_instance_data_value_ptr 1005bd42 f   sf_runtime:sf_runtime.dll
 0001:0005ad48       _sf_call_output_fcn_call   1005bd48 f   sf_runtime:sf_runtime.dll
 0001:0005ad4e       _sf_debug_symbol_scope_add_importable 1005bd4e f   sf_runtime:sf_runtime.dll
 0001:0005ad54       _sf_debug_symbol_scope_add_eml_importable 1005bd54 f   sf_runtime:sf_runtime.dll
 0001:0005ad5a       _sf_debug_symbol_scope_push_eml 1005bd5a f   sf_runtime:sf_runtime.dll
 0001:0005ad60       _cv_script_eval            1005bd60 f   sf_runtime:sf_runtime.dll
 0001:0005ad66       _sf_debug_symbol_scope_add_eml 1005bd66 f   sf_runtime:sf_runtime.dll
 0001:0005ad6c       _eml_debug_line_call       1005bd6c f   sf_runtime:sf_runtime.dll
 0001:0005ad72       _sf_debug_temporal_threshold 1005bd72 f   sf_runtime:sf_runtime.dll
 0001:0005ad78       _sf_debug_eml_data_array_bounds_error_check 1005bd78 f   sf_runtime:sf_runtime.dll
 0001:0005ad7e       _sf_debug_read_before_write_check 1005bd7e f   sf_runtime:sf_runtime.dll
 0001:0005ad84       _sf_debug_integer_check    1005bd84 f   sf_runtime:sf_runtime.dll
 0001:0005ad8a       _sf_clear_rtw_identifier   1005bd8a f   sf_runtime:sf_runtime.dll
 0001:0005ad90       _sf_debug_terminate        1005bd90 f   sf_runtime:sf_runtime.dll
 0001:0005ad96       _sf_debug_create_debug_instance_struct 1005bd96 f   sf_runtime:sf_runtime.dll
 0001:0005ad9c       _sf_debug_api              1005bd9c f   sf_runtime:sf_runtime.dll
 0001:0005ada2       _callMdlMethodAndReportError 1005bda2 f   sf_runtime:sf_runtime.dll
 0001:0005ada8       _call_sf_machine_global_method_dispatcher 1005bda8 f   sf_runtime:sf_runtime.dll
 0001:0005adae       _sf_clear_error_manager_info 1005bdae f   sf_runtime:sf_runtime.dll
 0001:0005adb4       _sf_mex_error_direct_call  1005bdb4 f   sf_runtime:sf_runtime.dll
 0001:0005adba       _mxGetScalar               1005bdba f   libmx:libmx.dll
 0001:0005adc0       _mxGetPr                   1005bdc0 f   libmx:libmx.dll
 0001:0005adc6       _mxCreateDoubleMatrix_730  1005bdc6 f   libmx:libmx.dll
 0001:0005adcc       _mxGetString_730           1005bdcc f   libmx:libmx.dll
 0001:0005add2       _mxIsChar                  1005bdd2 f   libmx:libmx.dll
 0001:0005add8       _mxDestroyArray            1005bdd8 f   libmx:libmx.dll
 0001:0005adde       _mxDuplicateArray          1005bdde f   libmx:libmx.dll
 0001:0005ade4       _mxCreateDoubleScalar      1005bde4 f   libmx:libmx.dll
 0001:0005adea       _mxSetField_730            1005bdea f   libmx:libmx.dll
 0001:0005adf0       _mxCreateString            1005bdf0 f   libmx:libmx.dll
 0001:0005adf6       _mxCreateStructMatrix_730  1005bdf6 f   libmx:libmx.dll
 0001:0005adfc       _mxCreateCellMatrix_730    1005bdfc f   libmx:libmx.dll
 0001:0005ae02       _mxIsEmpty                 1005be02 f   libmx:libmx.dll
 0001:0005ae08       _mxGetClassID              1005be08 f   libmx:libmx.dll
 0001:0005ae0e       _mxIsNumeric               1005be0e f   libmx:libmx.dll
 0001:0005ae14       _mxIsComplex               1005be14 f   libmx:libmx.dll
 0001:0005ae1a       _mxGetN                    1005be1a f   libmx:libmx.dll
 0001:0005ae20       _mxGetM                    1005be20 f   libmx:libmx.dll
 0001:0005ae26       _mxCalloc                  1005be26 f   libmx:libmx.dll
 0001:0005ae2c       _mexMakeArrayPersistent    1005be2c f   libmex:libmex.dll
 0001:0005ae32       _mexUnlock                 1005be32 f   libmex:libmex.dll
 0001:0005ae38       _mexIsLocked               1005be38 f   libmex:libmex.dll
 0001:0005ae3e       _mexWarnMsgTxt             1005be3e f   libmex:libmex.dll
 0001:0005ae44       _mexCallMATLAB             1005be44 f   libmex:libmex.dll
 0001:0005ae4a       _mexErrMsgTxt              1005be4a f   libmex:libmex.dll
 0001:0005ae50       _mexLock                   1005be50 f   libmex:libmex.dll
 0001:0005ae56       _utMalloc                  1005be56 f   libut:libut.dll
 0001:0005ae5c       _utFree                    1005be5c f   libut:libut.dll
 0001:0005ae62       _muDoubleScalarFloor       1005be62 f   libmwmathutil:libmwmathutil.dll
 0001:0005ae68       _muDoubleScalarRound       1005be68 f   libmwmathutil:libmwmathutil.dll
 0001:0005ae6e       _strcmp                    1005be6e f   MSVCRT:MSVCR100.dll
 0001:0005ae80       @__security_check_cookie@4 1005be80 f   MSVCRT:secchk.obj
 0001:0005ae90       _strlen                    1005be90 f   MSVCRT:MSVCR100.dll
 0001:0005ae96       _memset                    1005be96 f   MSVCRT:MSVCR100.dll
 0001:0005aea0       __alloca_probe             1005bea0     MSVCRT:chkstk.obj
 0001:0005aea0       __chkstk                   1005bea0 f   MSVCRT:chkstk.obj
 0001:0005aed0       __ftol2_sse                1005bed0 f   MSVCRT:ftol2.obj
 0001:0005aed9       __ftol2_pentium4           1005bed9 f   MSVCRT:ftol2.obj
 0001:0005aeec       __ftol2_sse_excpt          1005beec f   MSVCRT:ftol2.obj
 0001:0005af06       __ftol2                    1005bf06 f   MSVCRT:ftol2.obj
 0001:0005af7c       _free                      1005bf7c f   MSVCRT:MSVCR100.dll
 0001:0005af82       _sprintf                   1005bf82 f   MSVCRT:MSVCR100.dll
 0001:0005af88       _malloc                    1005bf88 f   MSVCRT:MSVCR100.dll
 0001:0005af8e       _strcat                    1005bf8e f   MSVCRT:MSVCR100.dll
 0001:0005af94       _memcpy                    1005bf94 f   MSVCRT:MSVCR100.dll
 0001:0005af9a       _NtCurrentTeb              1005bf9a f i MSVCRT:crtdll.obj
 0001:0005afef       __CRT_INIT@12              1005bfef f   MSVCRT:crtdll.obj
 0001:0005b30f       __DllMainCRTStartup@12     1005c30f f   MSVCRT:crtdll.obj
 0001:0005b332       ___report_gsfailure        1005c332 f   MSVCRT:gs_report.obj
 0001:0005b438       ___sse2_available_init     1005c438 f   MSVCRT:cpu_disp.obj
 0001:0005b448       ___clean_type_info_names   1005c448 f   MSVCRT:tncleanup.obj
 0001:0005b454       __onexit                   1005c454 f   MSVCRT:atonexit.obj
 0001:0005b4f5       _atexit                    1005c4f5 f   MSVCRT:atonexit.obj
 0001:0005b50c       __RTC_Initialize           1005c50c f   MSVCRT:_initsect_.obj
 0001:0005b532       __RTC_Terminate            1005c532 f   MSVCRT:_initsect_.obj
 0001:0005b558       __malloc_crt               1005c558 f   MSVCRT:MSVCR100.dll
 0001:0005b55e       __encoded_null             1005c55e f   MSVCRT:MSVCR100.dll
 0001:0005b570       __ValidateImageBase        1005c570 f   MSVCRT:pesect.obj
 0001:0005b5b0       __FindPESection            1005c5b0 f   MSVCRT:pesect.obj
 0001:0005b600       __IsNonwritableInCurrentImage 1005c600 f   MSVCRT:pesect.obj
 0001:0005b6bc       __initterm                 1005c6bc f   MSVCRT:MSVCR100.dll
 0001:0005b6c2       __initterm_e               1005c6c2 f   MSVCRT:MSVCR100.dll
 0001:0005b6c8       __amsg_exit                1005c6c8 f   MSVCRT:MSVCR100.dll
 0001:0005b6ce       ___CppXcptFilter           1005c6ce f   MSVCRT:MSVCR100.dll
 0001:0005b6d4       _DllMain@12                1005c6d4 f   MSVCRT:dllmain.obj
 0001:0005b700       __SEH_prolog4              1005c700 f   MSVCRT:sehprolg4.obj
 0001:0005b745       __SEH_epilog4              1005c745 f   MSVCRT:sehprolg4.obj
 0001:0005b759       __except_handler4          1005c759 f   MSVCRT:chandler4gs.obj
 0001:0005b77e       ___security_init_cookie    1005c77e f   MSVCRT:gs_support.obj
 0001:0005b81a       __crt_debugger_hook        1005c81a f   MSVCRT:MSVCR100.dll
 0001:0005b820       ___clean_type_info_names_internal 1005c820 f   MSVCRT:MSVCR100.dll
 0001:0005b826       __unlock                   1005c826 f   MSVCRT:MSVCR100.dll
 0001:0005b82c       ___dllonexit               1005c82c f   MSVCRT:MSVCR100.dll
 0001:0005b832       __lock                     1005c832 f   MSVCRT:MSVCR100.dll
 0001:0005b838       __except_handler4_common   1005c838 f   MSVCRT:MSVCR100.dll
 0001:0005b83e       _EncodePointer@4           1005c83e f   kernel32:KERNEL32.dll
 0001:0005b844       _DecodePointer@4           1005c844 f   kernel32:KERNEL32.dll
 0001:0005b84a       _InterlockedExchange@8     1005c84a f   kernel32:KERNEL32.dll
 0001:0005b850       _Sleep@4                   1005c850 f   kernel32:KERNEL32.dll
 0001:0005b856       _InterlockedCompareExchange@12 1005c856 f   kernel32:KERNEL32.dll
 0001:0005b85c       _TerminateProcess@8        1005c85c f   kernel32:KERNEL32.dll
 0001:0005b862       _GetCurrentProcess@0       1005c862 f   kernel32:KERNEL32.dll
 0001:0005b868       _UnhandledExceptionFilter@4 1005c868 f   kernel32:KERNEL32.dll
 0001:0005b86e       _SetUnhandledExceptionFilter@4 1005c86e f   kernel32:KERNEL32.dll
 0001:0005b874       _IsDebuggerPresent@0       1005c874 f   kernel32:KERNEL32.dll
 0001:0005b87a       _IsProcessorFeaturePresent@4 1005c87a f   kernel32:KERNEL32.dll
 0001:0005b880       _DisableThreadLibraryCalls@4 1005c880 f   kernel32:KERNEL32.dll
 0001:0005b886       _QueryPerformanceCounter@4 1005c886 f   kernel32:KERNEL32.dll
 0001:0005b88c       _GetTickCount@0            1005c88c f   kernel32:KERNEL32.dll
 0001:0005b892       _GetCurrentThreadId@0      1005c892 f   kernel32:KERNEL32.dll
 0001:0005b898       _GetCurrentProcessId@0     1005c898 f   kernel32:KERNEL32.dll
 0001:0005b89e       _GetSystemTimeAsFileTime@4 1005c89e f   kernel32:KERNEL32.dll
 0002:00000000       __imp__GetCurrentProcessId@0 1005d000     kernel32:KERNEL32.dll
 0002:00000004       __imp__GetCurrentThreadId@0 1005d004     kernel32:KERNEL32.dll
 0002:00000008       __imp__GetTickCount@0      1005d008     kernel32:KERNEL32.dll
 0002:0000000c       __imp__QueryPerformanceCounter@4 1005d00c     kernel32:KERNEL32.dll
 0002:00000010       __imp__DisableThreadLibraryCalls@4 1005d010     kernel32:KERNEL32.dll
 0002:00000014       __imp__IsProcessorFeaturePresent@4 1005d014     kernel32:KERNEL32.dll
 0002:00000018       __imp__IsDebuggerPresent@0 1005d018     kernel32:KERNEL32.dll
 0002:0000001c       __imp__SetUnhandledExceptionFilter@4 1005d01c     kernel32:KERNEL32.dll
 0002:00000020       __imp__UnhandledExceptionFilter@4 1005d020     kernel32:KERNEL32.dll
 0002:00000024       __imp__GetCurrentProcess@0 1005d024     kernel32:KERNEL32.dll
 0002:00000028       __imp__TerminateProcess@8  1005d028     kernel32:KERNEL32.dll
 0002:0000002c       __imp__InterlockedCompareExchange@12 1005d02c     kernel32:KERNEL32.dll
 0002:00000030       __imp__Sleep@4             1005d030     kernel32:KERNEL32.dll
 0002:00000034       __imp__InterlockedExchange@8 1005d034     kernel32:KERNEL32.dll
 0002:00000038       __imp__DecodePointer@4     1005d038     kernel32:KERNEL32.dll
 0002:0000003c       __imp__EncodePointer@4     1005d03c     kernel32:KERNEL32.dll
 0002:00000040       __imp__GetSystemTimeAsFileTime@4 1005d040     kernel32:KERNEL32.dll
 0002:00000044       \177KERNEL32_NULL_THUNK_DATA 1005d044     kernel32:KERNEL32.dll
 0002:00000048       __imp___except_handler4_common 1005d048     MSVCRT:MSVCR100.dll
 0002:0000004c       __imp___onexit             1005d04c     MSVCRT:MSVCR100.dll
 0002:00000050       __imp___lock               1005d050     MSVCRT:MSVCR100.dll
 0002:00000054       __imp____dllonexit         1005d054     MSVCRT:MSVCR100.dll
 0002:00000058       __imp___unlock             1005d058     MSVCRT:MSVCR100.dll
 0002:0000005c       __imp____clean_type_info_names_internal 1005d05c     MSVCRT:MSVCR100.dll
 0002:00000060       __imp___crt_debugger_hook  1005d060     MSVCRT:MSVCR100.dll
 0002:00000064       __imp____CppXcptFilter     1005d064     MSVCRT:MSVCR100.dll
 0002:00000068       __imp___amsg_exit          1005d068     MSVCRT:MSVCR100.dll
 0002:0000006c       __imp___initterm_e         1005d06c     MSVCRT:MSVCR100.dll
 0002:00000070       __imp___initterm           1005d070     MSVCRT:MSVCR100.dll
 0002:00000074       __imp___encoded_null       1005d074     MSVCRT:MSVCR100.dll
 0002:00000078       __imp___malloc_crt         1005d078     MSVCRT:MSVCR100.dll
 0002:0000007c       __imp__memcpy              1005d07c     MSVCRT:MSVCR100.dll
 0002:00000080       __imp__strcat              1005d080     MSVCRT:MSVCR100.dll
 0002:00000084       __imp__malloc              1005d084     MSVCRT:MSVCR100.dll
 0002:00000088       __imp__sprintf             1005d088     MSVCRT:MSVCR100.dll
 0002:0000008c       __imp__free                1005d08c     MSVCRT:MSVCR100.dll
 0002:00000090       __imp__memset              1005d090     MSVCRT:MSVCR100.dll
 0002:00000094       __imp__strlen              1005d094     MSVCRT:MSVCR100.dll
 0002:00000098       __imp__strcmp              1005d098     MSVCRT:MSVCR100.dll
 0002:0000009c       \177MSVCR100_NULL_THUNK_DATA 1005d09c     MSVCRT:MSVCR100.dll
 0002:000000a0       __imp__mexErrMsgTxt        1005d0a0     libmex:libmex.dll
 0002:000000a4       __imp__mexUnlock           1005d0a4     libmex:libmex.dll
 0002:000000a8       __imp__mexIsLocked         1005d0a8     libmex:libmex.dll
 0002:000000ac       __imp__mexLock             1005d0ac     libmex:libmex.dll
 0002:000000b0       __imp__mexMakeArrayPersistent 1005d0b0     libmex:libmex.dll
 0002:000000b4       __imp__mexCallMATLAB       1005d0b4     libmex:libmex.dll
 0002:000000b8       __imp__mexWarnMsgTxt       1005d0b8     libmex:libmex.dll
 0002:000000bc       \177libmex_NULL_THUNK_DATA 1005d0bc     libmex:libmex.dll
 0002:000000c0       __imp__muDoubleScalarRound 1005d0c0     libmwmathutil:libmwmathutil.dll
 0002:000000c4       __imp__muDoubleScalarFloor 1005d0c4     libmwmathutil:libmwmathutil.dll
 0002:000000c8       \177libmwmathutil_NULL_THUNK_DATA 1005d0c8     libmwmathutil:libmwmathutil.dll
 0002:000000cc       __imp__mxCalloc            1005d0cc     libmx:libmx.dll
 0002:000000d0       __imp__mxGetM              1005d0d0     libmx:libmx.dll
 0002:000000d4       __imp__mxGetN              1005d0d4     libmx:libmx.dll
 0002:000000d8       __imp__mxIsComplex         1005d0d8     libmx:libmx.dll
 0002:000000dc       __imp__mxIsNumeric         1005d0dc     libmx:libmx.dll
 0002:000000e0       __imp__mxGetClassID        1005d0e0     libmx:libmx.dll
 0002:000000e4       __imp__mxIsEmpty           1005d0e4     libmx:libmx.dll
 0002:000000e8       __imp__mxCreateCellMatrix_730 1005d0e8     libmx:libmx.dll
 0002:000000ec       __imp__mxCreateStructMatrix_730 1005d0ec     libmx:libmx.dll
 0002:000000f0       __imp__mxCreateString      1005d0f0     libmx:libmx.dll
 0002:000000f4       __imp__mxSetField_730      1005d0f4     libmx:libmx.dll
 0002:000000f8       __imp__mxCreateDoubleScalar 1005d0f8     libmx:libmx.dll
 0002:000000fc       __imp__mxDuplicateArray    1005d0fc     libmx:libmx.dll
 0002:00000100       __imp__mxDestroyArray      1005d100     libmx:libmx.dll
 0002:00000104       __imp__mxIsChar            1005d104     libmx:libmx.dll
 0002:00000108       __imp__mxGetString_730     1005d108     libmx:libmx.dll
 0002:0000010c       __imp__mxCreateDoubleMatrix_730 1005d10c     libmx:libmx.dll
 0002:00000110       __imp__mxGetPr             1005d110     libmx:libmx.dll
 0002:00000114       __imp__mxGetScalar         1005d114     libmx:libmx.dll
 0002:00000118       \177libmx_NULL_THUNK_DATA  1005d118     libmx:libmx.dll
 0002:0000011c       __imp__utMalloc            1005d11c     libut:libut.dll
 0002:00000120       __imp__utFree              1005d120     libut:libut.dll
 0002:00000124       \177libut_NULL_THUNK_DATA  1005d124     libut:libut.dll
 0002:00000128       __imp__sf_debug_symbol_scope_push_eml 1005d128     sf_runtime:sf_runtime.dll
 0002:0000012c       __imp__cv_script_eval      1005d12c     sf_runtime:sf_runtime.dll
 0002:00000130       __imp__sf_debug_symbol_scope_add_eml 1005d130     sf_runtime:sf_runtime.dll
 0002:00000134       __imp__eml_debug_line_call 1005d134     sf_runtime:sf_runtime.dll
 0002:00000138       __imp__sf_debug_temporal_threshold 1005d138     sf_runtime:sf_runtime.dll
 0002:0000013c       __imp__sf_debug_eml_data_array_bounds_error_check 1005d13c     sf_runtime:sf_runtime.dll
 0002:00000140       __imp__sf_debug_read_before_write_check 1005d140     sf_runtime:sf_runtime.dll
 0002:00000144       __imp__sf_debug_integer_check 1005d144     sf_runtime:sf_runtime.dll
 0002:00000148       __imp__sf_debug_unset_instance_data_value_ptr 1005d148     sf_runtime:sf_runtime.dll
 0002:0000014c       __imp__sf_debug_terminate  1005d14c     sf_runtime:sf_runtime.dll
 0002:00000150       __imp__sf_debug_create_debug_instance_struct 1005d150     sf_runtime:sf_runtime.dll
 0002:00000154       __imp__sf_debug_api        1005d154     sf_runtime:sf_runtime.dll
 0002:00000158       __imp__callMdlMethodAndReportError 1005d158     sf_runtime:sf_runtime.dll
 0002:0000015c       __imp__call_sf_machine_global_method_dispatcher 1005d15c     sf_runtime:sf_runtime.dll
 0002:00000160       __imp__sf_clear_error_manager_info 1005d160     sf_runtime:sf_runtime.dll
 0002:00000164       __imp__sf_mex_error_direct_call 1005d164     sf_runtime:sf_runtime.dll
 0002:00000168       __imp__sf_debug_animate    1005d168     sf_runtime:sf_runtime.dll
 0002:0000016c       __imp__sf_mex_printf       1005d16c     sf_runtime:sf_runtime.dll
 0002:00000170       __imp__sf_mex_call_debug   1005d170     sf_runtime:sf_runtime.dll
 0002:00000174       __imp__cv_eval_point       1005d174     sf_runtime:sf_runtime.dll
 0002:00000178       __imp__cv_eml_eval         1005d178     sf_runtime:sf_runtime.dll
 0002:0000017c       __imp__sf_debug_symbol_scope_add_eml_importable 1005d17c     sf_runtime:sf_runtime.dll
 0002:00000180       __imp__sf_debug_symbol_scope_push 1005d180     sf_runtime:sf_runtime.dll
 0002:00000184       __imp__sf_debug_data_range_wrapper 1005d184     sf_runtime:sf_runtime.dll
 0002:00000188       __imp__sf_debug_symbol_scope_pop 1005d188     sf_runtime:sf_runtime.dll
 0002:0000018c       __imp__sf_debug_check_for_state_inconsistency 1005d18c     sf_runtime:sf_runtime.dll
 0002:00000190       __imp__sf_call_output_fcn_disable 1005d190     sf_runtime:sf_runtime.dll
 0002:00000194       __imp__sf_call_output_fcn_enable 1005d194     sf_runtime:sf_runtime.dll
 0002:00000198       __imp__sf_get_time         1005d198     sf_runtime:sf_runtime.dll
 0002:0000019c       __imp__sf_debug_get_script_id 1005d19c     sf_runtime:sf_runtime.dll
 0002:000001a0       __imp__sf_debug_set_script_translation 1005d1a0     sf_runtime:sf_runtime.dll
 0002:000001a4       __imp__sf_debug_initialize_chart 1005d1a4     sf_runtime:sf_runtime.dll
 0002:000001a8       __imp__sf_debug_set_chart_disable_implicit_casting 1005d1a8     sf_runtime:sf_runtime.dll
 0002:000001ac       __imp__sf_debug_set_chart_event_thresholds 1005d1ac     sf_runtime:sf_runtime.dll
 0002:000001b0       __imp__sf_debug_set_chart_data_props 1005d1b0     sf_runtime:sf_runtime.dll
 0002:000001b4       __imp__sf_debug_set_chart_event_scope 1005d1b4     sf_runtime:sf_runtime.dll
 0002:000001b8       __imp__sf_debug_set_chart_state_info 1005d1b8     sf_runtime:sf_runtime.dll
 0002:000001bc       __imp__sf_debug_set_chart_substate_count 1005d1bc     sf_runtime:sf_runtime.dll
 0002:000001c0       __imp__sf_debug_set_chart_decomposition 1005d1c0     sf_runtime:sf_runtime.dll
 0002:000001c4       __imp__sf_debug_set_chart_substate_index 1005d1c4     sf_runtime:sf_runtime.dll
 0002:000001c8       __imp__sf_debug_set_chart_state_substate_count 1005d1c8     sf_runtime:sf_runtime.dll
 0002:000001cc       __imp__sf_debug_set_chart_state_substate_index 1005d1cc     sf_runtime:sf_runtime.dll
 0002:000001d0       __imp__sf_debug_cv_init_chart 1005d1d0     sf_runtime:sf_runtime.dll
 0002:000001d4       __imp__sf_debug_cv_init_state 1005d1d4     sf_runtime:sf_runtime.dll
 0002:000001d8       __imp__sf_debug_symbol_scope_add_importable 1005d1d8     sf_runtime:sf_runtime.dll
 0002:000001dc       __imp__sf_mex_sub          1005d1dc     sf_runtime:sf_runtime.dll
 0002:000001e0       __imp__sf_call_output_fcn_call 1005d1e0     sf_runtime:sf_runtime.dll
 0002:000001e4       __imp__sf_debug_cv_init_trans 1005d1e4     sf_runtime:sf_runtime.dll
 0002:000001e8       __imp__cv_eml_init_script  1005d1e8     sf_runtime:sf_runtime.dll
 0002:000001ec       __imp__cv_eml_init_fcn     1005d1ec     sf_runtime:sf_runtime.dll
 0002:000001f0       __imp__cv_eml_init_if      1005d1f0     sf_runtime:sf_runtime.dll
 0002:000001f4       __imp__cv_script_init_script 1005d1f4     sf_runtime:sf_runtime.dll
 0002:000001f8       __imp__cv_script_init_fcn  1005d1f8     sf_runtime:sf_runtime.dll
 0002:000001fc       __imp__cv_eml_init_mcdc    1005d1fc     sf_runtime:sf_runtime.dll
 0002:00000200       __imp__sf_debug_set_chart_data_compiled_props 1005d200     sf_runtime:sf_runtime.dll
 0002:00000204       __imp__sf_debug_set_instance_data_value_ptr 1005d204     sf_runtime:sf_runtime.dll
 0002:00000208       __imp__sf_debug_reset_current_state_configuration 1005d208     sf_runtime:sf_runtime.dll
 0002:0000020c       __imp__sim_mode_is_rtw_gen 1005d20c     sf_runtime:sf_runtime.dll
 0002:00000210       __imp__sim_mode_is_external 1005d210     sf_runtime:sf_runtime.dll
 0002:00000214       __imp__sf_is_chart_inlinable 1005d214     sf_runtime:sf_runtime.dll
 0002:00000218       __imp__sf_rtw_info_uint_prop 1005d218     sf_runtime:sf_runtime.dll
 0002:0000021c       __imp__sf_update_buildInfo 1005d21c     sf_runtime:sf_runtime.dll
 0002:00000220       __imp__sf_mark_output_events_with_multiple_callers 1005d220     sf_runtime:sf_runtime.dll
 0002:00000224       __imp__sf_mark_chart_expressionable_inputs 1005d224     sf_runtime:sf_runtime.dll
 0002:00000228       __imp__sf_mark_chart_reusable_outputs 1005d228     sf_runtime:sf_runtime.dll
 0002:0000022c       __imp__sf_set_rtw_dwork_info 1005d22c     sf_runtime:sf_runtime.dll
 0002:00000230       __imp__sf_mex_import       1005d230     sf_runtime:sf_runtime.dll
 0002:00000234       __imp__sf_debug_get_animation 1005d234     sf_runtime:sf_runtime.dll
 0002:00000238       __imp__sf_debug_set_animation 1005d238     sf_runtime:sf_runtime.dll
 0002:0000023c       __imp__sf_debug_set_honor_breakpoints 1005d23c     sf_runtime:sf_runtime.dll
 0002:00000240       __imp__sf_debug_call       1005d240     sf_runtime:sf_runtime.dll
 0002:00000244       __imp__sf_mex_dup          1005d244     sf_runtime:sf_runtime.dll
 0002:00000248       __imp__sf_mex_getcell      1005d248     sf_runtime:sf_runtime.dll
 0002:0000024c       __imp__sf_mex_decode_encoded_mx_struct_array 1005d24c     sf_runtime:sf_runtime.dll
 0002:00000250       __imp__sf_mex_setcell      1005d250     sf_runtime:sf_runtime.dll
 0002:00000254       __imp__sf_mex_call_matlab  1005d254     sf_runtime:sf_runtime.dll
 0002:00000258       __imp__sf_mex_error_message 1005d258     sf_runtime:sf_runtime.dll
 0002:0000025c       __imp__sf_mex_create       1005d25c     sf_runtime:sf_runtime.dll
 0002:00000260       __imp__sf_mex_addfield     1005d260     sf_runtime:sf_runtime.dll
 0002:00000264       __imp__sf_mex_createcellmatrix 1005d264     sf_runtime:sf_runtime.dll
 0002:00000268       __imp__sf_mex_duplicatearraysafe 1005d268     sf_runtime:sf_runtime.dll
 0002:0000026c       __imp__sf_mex_destroy      1005d26c     sf_runtime:sf_runtime.dll
 0002:00000270       __imp__sf_mex_createstruct 1005d270     sf_runtime:sf_runtime.dll
 0002:00000274       __imp__sf_mex_assign       1005d274     sf_runtime:sf_runtime.dll
 0002:00000278       __imp__sf_mex_emlrtNameCapturePostProcessR2012a 1005d278     sf_runtime:sf_runtime.dll
 0002:0000027c       __imp__sf_load_rtw_optimization_info 1005d27c     sf_runtime:sf_runtime.dll
 0002:00000280       __imp__sf_debug_initialize_machine 1005d280     sf_runtime:sf_runtime.dll
 0002:00000284       __imp__sf_debug_set_machine_event_thresholds 1005d284     sf_runtime:sf_runtime.dll
 0002:00000288       __imp__sf_clear_rtw_identifier 1005d288     sf_runtime:sf_runtime.dll
 0002:0000028c       __imp__sf_debug_set_machine_data_thresholds 1005d28c     sf_runtime:sf_runtime.dll
 0002:00000290       \177sf_runtime_NULL_THUNK_DATA 1005d290     sf_runtime:sf_runtime.dll
 0002:00000294       ___xc_a                    1005d294     MSVCRT:cinitexe.obj
 0002:00000298       ___xc_z                    1005d298     MSVCRT:cinitexe.obj
 0002:0000029c       ___xi_a                    1005d29c     MSVCRT:cinitexe.obj
 0002:000002a8       ___xi_z                    1005d2a8     MSVCRT:cinitexe.obj
 0002:000002b0       __real@41ea682348600000    1005d2b0     ARP_02_RPSsmile_Glove_Idle_sfun.obj
 0002:000002b8       __real@41e5e38de6000000    1005d2b8     ARP_02_RPSsmile_Glove_Idle_sfun.obj
 0002:000002c0       __real@41d6966dd4400000    1005d2c0     ARP_02_RPSsmile_Glove_Idle_sfun.obj
 0002:000002c8       __real@41ea8dbd06200000    1005d2c8     ARP_02_RPSsmile_Glove_Idle_sfun.obj
 0002:000002d0       __real@41b0fb04df000000    1005d2d0     ARP_02_RPSsmile_Glove_Idle_sfun.obj
 0002:000002d8       __real@41da14ed17400000    1005d2d8     ARP_02_RPSsmile_Glove_Idle_sfun.obj
 0002:000002e0       __real@41d47f2e8cc00000    1005d2e0     ARP_02_RPSsmile_Glove_Idle_sfun.obj
 0002:000002e8       __real@41eb0e6e75400000    1005d2e8     ARP_02_RPSsmile_Glove_Idle_sfun.obj
 0002:000002f0       __real@41ed2d63cc200000    1005d2f0     ARP_02_RPSsmile_Glove_Idle_sfun.obj
 0002:000002f8       __real@41ed4a8a57200000    1005d2f8     ARP_02_RPSsmile_Glove_Idle_sfun.obj
 0002:00000300       __real@41dfbba45c400000    1005d300     ARP_02_RPSsmile_Glove_Idle_sfun.obj
 0002:00000308       __real@41e8bd9dd2e00000    1005d308     ARP_02_RPSsmile_Glove_Idle_sfun.obj
 0002:00000310       __real@0000000000000000    1005d310     ARP_02_RPSsmile_Glove_Idle_sfun.obj
 0002:00000318       __real@41d23bf8a3800000    1005d318     ARP_02_RPSsmile_Glove_Idle_sfun.obj
 0002:00000320       __real@41da135496c00000    1005d320     ARP_02_RPSsmile_Glove_Idle_sfun.obj
 0002:00000328       __real@41e2cd08d8600000    1005d328     ARP_02_RPSsmile_Glove_Idle_sfun.obj
 0002:00000330       __real@41d4051cc5c00000    1005d330     ARP_02_RPSsmile_Glove_Idle_sfun.obj
 0002:00000338       __real@41bb002017000000    1005d338     c1_ARP_02_RPSsmile_Glove_Idle.obj
 0002:00000340       __real@41c6706504800000    1005d340     c1_ARP_02_RPSsmile_Glove_Idle.obj
 0002:00000348       __real@41d14f8bc5400000    1005d348     c1_ARP_02_RPSsmile_Glove_Idle.obj
 0002:00000350       __real@41e7fd3f30c00000    1005d350     c1_ARP_02_RPSsmile_Glove_Idle.obj
 0002:00000358       __real@4024000000000000    1005d358     c1_ARP_02_RPSsmile_Glove_Idle.obj
 0002:00000360       __real@3ff0000000000000    1005d360     c1_ARP_02_RPSsmile_Glove_Idle.obj
 0002:00000368       __real@4008000000000000    1005d368     c1_ARP_02_RPSsmile_Glove_Idle.obj
 0002:00000370       __real@4000000000000000    1005d370     c1_ARP_02_RPSsmile_Glove_Idle.obj
 0002:00000378       __real@4018000000000000    1005d378     c1_ARP_02_RPSsmile_Glove_Idle.obj
 0002:00000380       __real@4020000000000000    1005d380     c1_ARP_02_RPSsmile_Glove_Idle.obj
 0002:00000388       __real@4014000000000000    1005d388     c1_ARP_02_RPSsmile_Glove_Idle.obj
 0002:00000390       __real@4057800000000000    1005d390     c1_ARP_02_RPSsmile_Glove_Idle.obj
 0002:00000398       __real@4070000000000000    1005d398     c1_ARP_02_RPSsmile_Glove_Idle.obj
 0002:000003a0       __real@4010000000000000    1005d3a0     c1_ARP_02_RPSsmile_Glove_Idle.obj
 0002:000003a8       __real@4031000000000000    1005d3a8     c1_ARP_02_RPSsmile_Glove_Idle.obj
 0002:000003b0       __real@4030000000000000    1005d3b0     c1_ARP_02_RPSsmile_Glove_Idle.obj
 0002:000003b8       __real@4032000000000000    1005d3b8     c1_ARP_02_RPSsmile_Glove_Idle.obj
 0002:000003c0       __real@402e000000000000    1005d3c0     c1_ARP_02_RPSsmile_Glove_Idle.obj
 0002:000003c8       __real@402c000000000000    1005d3c8     c1_ARP_02_RPSsmile_Glove_Idle.obj
 0002:000003d0       __real@402a000000000000    1005d3d0     c1_ARP_02_RPSsmile_Glove_Idle.obj
 0002:000003d8       __real@4028000000000000    1005d3d8     c1_ARP_02_RPSsmile_Glove_Idle.obj
 0002:000003e0       __real@4026000000000000    1005d3e0     c1_ARP_02_RPSsmile_Glove_Idle.obj
 0002:000003e8       __real@4022000000000000    1005d3e8     c1_ARP_02_RPSsmile_Glove_Idle.obj
 0002:000003f0       __real@401c000000000000    1005d3f0     c1_ARP_02_RPSsmile_Glove_Idle.obj
 0002:000003f8       __real@4056000000000000    1005d3f8     c1_ARP_02_RPSsmile_Glove_Idle.obj
 0002:00000400       __real@4055800000000000    1005d400     c1_ARP_02_RPSsmile_Glove_Idle.obj
 0002:00000408       __real@3defffffffffffff    1005d408     c1_ARP_02_RPSsmile_Glove_Idle.obj
 0002:00000410       __real@3e00000000200000    1005d410     c1_ARP_02_RPSsmile_Glove_Idle.obj
 0002:00000418       __real@40b5710000000000    1005d418     c1_ARP_02_RPSsmile_Glove_Idle.obj
 0002:00000420       __real@4056c00000000000    1005d420     c1_ARP_02_RPSsmile_Glove_Idle.obj
 0002:00000428       __real@4055c00000000000    1005d428     c1_ARP_02_RPSsmile_Glove_Idle.obj
 0002:00000430       __real@4057400000000000    1005d430     c1_ARP_02_RPSsmile_Glove_Idle.obj
 0002:00000438       __real@4057c00000000000    1005d438     c1_ARP_02_RPSsmile_Glove_Idle.obj
 0002:00000440       __real@4058400000000000    1005d440     c1_ARP_02_RPSsmile_Glove_Idle.obj
 0002:00000448       __real@4057000000000000    1005d448     c1_ARP_02_RPSsmile_Glove_Idle.obj
 0002:00000450       __real@4054400000000000    1005d450     c1_ARP_02_RPSsmile_Glove_Idle.obj
 0002:00000458       __real@4064200000000000    1005d458     c1_ARP_02_RPSsmile_Glove_Idle.obj
 0002:00000460       __real@4063a00000000000    1005d460     c1_ARP_02_RPSsmile_Glove_Idle.obj
 0002:00000468       __real@4056400000000000    1005d468     c1_ARP_02_RPSsmile_Glove_Idle.obj
 0002:00000470       __real@4053800000000000    1005d470     c1_ARP_02_RPSsmile_Glove_Idle.obj
 0002:00000478       __real@4051000000000000    1005d478     c1_ARP_02_RPSsmile_Glove_Idle.obj
 0002:00000480       __real@4062600000000000    1005d480     c1_ARP_02_RPSsmile_Glove_Idle.obj
 0002:00000488       __real@4064800000000000    1005d488     c1_ARP_02_RPSsmile_Glove_Idle.obj
 0002:00000490       __real@406be00000000000    1005d490     c1_ARP_02_RPSsmile_Glove_Idle.obj
 0002:00000498       __real@406c200000000000    1005d498     c1_ARP_02_RPSsmile_Glove_Idle.obj
 0002:000004a0       __real@4040800000000000    1005d4a0     c1_ARP_02_RPSsmile_Glove_Idle.obj
 0002:000004a8       __real@4040000000000000    1005d4a8     c1_ARP_02_RPSsmile_Glove_Idle.obj
 0002:000004b0       __real@403f000000000000    1005d4b0     c1_ARP_02_RPSsmile_Glove_Idle.obj
 0002:000004b8       __real@403e000000000000    1005d4b8     c1_ARP_02_RPSsmile_Glove_Idle.obj
 0002:000004c0       __real@403d000000000000    1005d4c0     c1_ARP_02_RPSsmile_Glove_Idle.obj
 0002:000004c8       __real@403c000000000000    1005d4c8     c1_ARP_02_RPSsmile_Glove_Idle.obj
 0002:000004d0       __real@403b000000000000    1005d4d0     c1_ARP_02_RPSsmile_Glove_Idle.obj
 0002:000004d8       __real@403a000000000000    1005d4d8     c1_ARP_02_RPSsmile_Glove_Idle.obj
 0002:000004e0       __real@4039000000000000    1005d4e0     c1_ARP_02_RPSsmile_Glove_Idle.obj
 0002:000004e8       __real@4038000000000000    1005d4e8     c1_ARP_02_RPSsmile_Glove_Idle.obj
 0002:000004f0       __real@4037000000000000    1005d4f0     c1_ARP_02_RPSsmile_Glove_Idle.obj
 0002:000004f8       __real@4036000000000000    1005d4f8     c1_ARP_02_RPSsmile_Glove_Idle.obj
 0002:00000500       __real@4035000000000000    1005d500     c1_ARP_02_RPSsmile_Glove_Idle.obj
 0002:00000508       __real@4034000000000000    1005d508     c1_ARP_02_RPSsmile_Glove_Idle.obj
 0002:00000510       __real@4033000000000000    1005d510     c1_ARP_02_RPSsmile_Glove_Idle.obj
 0002:00000518       __real@405d800000000000    1005d518     c1_ARP_02_RPSsmile_Glove_Idle.obj
 0002:00000520       __real@405dc00000000000    1005d520     c1_ARP_02_RPSsmile_Glove_Idle.obj
 0002:00000528       __real@405d000000000000    1005d528     c1_ARP_02_RPSsmile_Glove_Idle.obj
 0002:00000530       __real@405e000000000000    1005d530     c1_ARP_02_RPSsmile_Glove_Idle.obj
 0002:00000538       __real@405e400000000000    1005d538     c1_ARP_02_RPSsmile_Glove_Idle.obj
 0002:00000540       __real@405e800000000000    1005d540     c1_ARP_02_RPSsmile_Glove_Idle.obj
 0002:00000548       __real@405ec00000000000    1005d548     c1_ARP_02_RPSsmile_Glove_Idle.obj
 0002:00000550       __real@4061400000000000    1005d550     c1_ARP_02_RPSsmile_Glove_Idle.obj
 0002:00000558       __real@4061600000000000    1005d558     c1_ARP_02_RPSsmile_Glove_Idle.obj
 0002:00000560       __real@4061000000000000    1005d560     c1_ARP_02_RPSsmile_Glove_Idle.obj
 0002:00000568       __real@4061800000000000    1005d568     c1_ARP_02_RPSsmile_Glove_Idle.obj
 0002:00000570       __real@4061a00000000000    1005d570     c1_ARP_02_RPSsmile_Glove_Idle.obj
 0002:00000578       __real@4061c00000000000    1005d578     c1_ARP_02_RPSsmile_Glove_Idle.obj
 0002:00000580       __real@4061e00000000000    1005d580     c1_ARP_02_RPSsmile_Glove_Idle.obj
 0002:00000588       __real@4060e00000000000    1005d588     c1_ARP_02_RPSsmile_Glove_Idle.obj
 0002:00000590       __real@4060800000000000    1005d590     c1_ARP_02_RPSsmile_Glove_Idle.obj
 0002:00000598       __real@4061200000000000    1005d598     c1_ARP_02_RPSsmile_Glove_Idle.obj
 0002:000005a0       __real@4060c00000000000    1005d5a0     c1_ARP_02_RPSsmile_Glove_Idle.obj
 0002:000005a8       __real@4060400000000000    1005d5a8     c1_ARP_02_RPSsmile_Glove_Idle.obj
 0002:000005b0       __real@41f0000000000000    1005d5b0     c1_ARP_02_RPSsmile_Glove_Idle.obj
 0002:000005b8       __real@3ca0000000000000    1005d5b8     c1_ARP_02_RPSsmile_Glove_Idle.obj
 0002:000005c0       __real@4190000000000000    1005d5c0     c1_ARP_02_RPSsmile_Glove_Idle.obj
 0002:000005c8       __real@406c800000000000    1005d5c8     c1_ARP_02_RPSsmile_Glove_Idle.obj
 0002:000005d0       __real@4078d00000000000    1005d5d0     c1_ARP_02_RPSsmile_Glove_Idle.obj
 0002:000005d8       __real@4083880000000000    1005d5d8     c1_ARP_02_RPSsmile_Glove_Idle.obj
 0002:000005e0       __real@41c4577414000000    1005d5e0     c2_ARP_02_RPSsmile_Glove_Idle.obj
 0002:000005e8       __real@41ef31f272200000    1005d5e8     c2_ARP_02_RPSsmile_Glove_Idle.obj
 0002:000005f0       __real@41e1231d45000000    1005d5f0     c2_ARP_02_RPSsmile_Glove_Idle.obj
 0002:000005f8       __real@41ee40237e000000    1005d5f8     c2_ARP_02_RPSsmile_Glove_Idle.obj
 0002:00000600       __real@41e1718ddc600000    1005d600     c3_ARP_02_RPSsmile_Glove_Idle.obj
 0002:00000608       __real@41e3672189400000    1005d608     c3_ARP_02_RPSsmile_Glove_Idle.obj
 0002:00000610       __real@41d6704ccd800000    1005d610     c3_ARP_02_RPSsmile_Glove_Idle.obj
 0002:00000618       __real@41e8f197c6600000    1005d618     c3_ARP_02_RPSsmile_Glove_Idle.obj
 0002:00000620       _DYNAMIC_DIMENSION_DEF     1005d620     ARP_02_RPSsmile_Glove_Idle_sfun_registry.obj
 0002:00000630       __ssBadLevel2InputAccessMsg 1005d630     ARP_02_RPSsmile_Glove_Idle_sfun_registry.obj
 0002:000007b8       __ssBadLevel2DirectFeedMsg 1005d7b8     ARP_02_RPSsmile_Glove_Idle_sfun_registry.obj
 0002:000008f8       __ssBadLevel2DirectFeedSolutionMsg 1005d8f8     ARP_02_RPSsmile_Glove_Idle_sfun_registry.obj
 0002:00000968       __ssBadLevel2ZeroDirectFeedMsg 1005d968     ARP_02_RPSsmile_Glove_Idle_sfun_registry.obj
 0002:00000aa8       __ssBadLevel2ZeroDirectFeedMsg2 1005daa8     ARP_02_RPSsmile_Glove_Idle_sfun_registry.obj
 0002:00000b90       __real@bff0000000000000    1005db90     ARP_02_RPSsmile_Glove_Idle_sfun_registry.obj
 0002:00000b98       __real@4153d65940000000    1005db98     ARP_02_RPSsmile_Glove_Idle_sfun_registry.obj
 0002:00000ba0       __pDefaultRawDllMain       1005dba0     MSVCRT:crtdll.obj
 0002:00000ba0       __pRawDllMain              1005dba0     MSVCRT:crtdll.obj
 0002:00000bac       ?ProcessDetach@NativeDll@<CrtImplementationDetails>@@0IB 1005dbac     MSVCRT:tncleanup.obj
 0002:00000bb0       ?ProcessAttach@NativeDll@<CrtImplementationDetails>@@0IB 1005dbb0     MSVCRT:tncleanup.obj
 0002:00000bb4       ?ThreadAttach@NativeDll@<CrtImplementationDetails>@@0IB 1005dbb4     MSVCRT:tncleanup.obj
 0002:00000bb8       ?ThreadDetach@NativeDll@<CrtImplementationDetails>@@0IB 1005dbb8     MSVCRT:tncleanup.obj
 0002:00000bbc       ?ProcessVerifier@NativeDll@<CrtImplementationDetails>@@0IB 1005dbbc     MSVCRT:tncleanup.obj
 0002:00000bc0       __load_config_used         1005dbc0     MSVCRT:loadcfg.obj
 0002:00000c10       ___safe_se_handler_table   1005dc10     <linker-defined>
 0002:00000c14       ___rtc_iaa                 1005dc14     MSVCRT:_initsect_.obj
 0002:00000c18       ___rtc_izz                 1005dc18     MSVCRT:_initsect_.obj
 0002:00000c1c       ___rtc_taa                 1005dc1c     MSVCRT:_initsect_.obj
 0002:00000c20       ___rtc_tzz                 1005dc20     MSVCRT:_initsect_.obj
 0002:00000c8c       __IMPORT_DESCRIPTOR_sf_runtime 1005dc8c     sf_runtime:sf_runtime.dll
 0002:00000ca0       __IMPORT_DESCRIPTOR_libmx  1005dca0     libmx:libmx.dll
 0002:00000cb4       __IMPORT_DESCRIPTOR_libmex 1005dcb4     libmex:libmex.dll
 0002:00000cc8       __IMPORT_DESCRIPTOR_libut  1005dcc8     libut:libut.dll
 0002:00000cdc       __IMPORT_DESCRIPTOR_libmwmathutil 1005dcdc     libmwmathutil:libmwmathutil.dll
 0002:00000cf0       __IMPORT_DESCRIPTOR_MSVCR100 1005dcf0     MSVCRT:MSVCR100.dll
 0002:00000d04       __IMPORT_DESCRIPTOR_KERNEL32 1005dd04     kernel32:KERNEL32.dll
 0002:00000d18       __NULL_IMPORT_DESCRIPTOR   1005dd18     sf_runtime:sf_runtime.dll
 0003:00018fe0       _DYNAMIC_DIMENSION         10077fe0     ARP_02_RPSsmile_Glove_Idle_sfun_registry.obj
 0003:00019b6c       ___security_cookie         10078b6c     MSVCRT:gs_cookie.obj
 0003:00019b70       ___security_cookie_complement 10078b70     MSVCRT:gs_cookie.obj
 0003:00019b80       ___native_dllmain_reason   10078b80     MSVCRT:natstart.obj
 0003:00019b84       ___native_vcclrit_reason   10078b84     MSVCRT:natstart.obj
 0003:00019ce0       _sfGlobalDebugInstanceStruct 10078ce0     ARP_02_RPSsmile_Glove_Idle_sfun_registry.obj
 0003:0001a014       ?__type_info_root_node@@3U__type_info_node@@A 10079014     MSVCRT:tncleanup.obj
 0003:0001a01c       __ARP_02_RPSsmile_Glove_IdleMachineNumber_ 1007901c     <common>
 0003:0001a020       ___native_startup_state    10079020     <common>
 0003:0001a024       ___native_startup_lock     10079024     <common>
 0003:0001a028       ___onexitend               10079028     <common>
 0003:0001a02c       ___onexitbegin             1007902c     <common>
 0003:0001a030       ___sse2_available          10079030     <common>
 0003:0001a034       ___dyn_tls_init_callback   10079034     <common>

 entry point at        0001:0005b30f

 Static symbols

 0001:00000be0       _c1_info_helper            10001be0 f   c1_ARP_02_RPSsmile_Glove_Idle.obj
 0001:00005760       _c1_emlrt_marshallOut      10006760 f   c1_ARP_02_RPSsmile_Glove_Idle.obj
 0001:000057c0       _c1_b_emlrt_marshallOut    100067c0 f   c1_ARP_02_RPSsmile_Glove_Idle.obj
 0001:00007aa0       _get_sim_state_c1_ARP_02_RPSsmile_Glove_Idle 10008aa0 f   c1_ARP_02_RPSsmile_Glove_Idle.obj
 0001:00008fb0       _sf_get_sim_state_info_c1_ARP_02_RPSsmile_Glove_Idle 10009fb0 f   c1_ARP_02_RPSsmile_Glove_Idle.obj
 0001:00009140       _set_sim_state_c1_ARP_02_RPSsmile_Glove_Idle 1000a140 f   c1_ARP_02_RPSsmile_Glove_Idle.obj
 0001:00009af0       _c1_update_debugger_state_c1_ARP_02_RPSsmile_Glove_Idle 1000aaf0 f   c1_ARP_02_RPSsmile_Glove_Idle.obj
 0001:0000b140       _c1_b_emlrt_marshallIn     1000c140 f   c1_ARP_02_RPSsmile_Glove_Idle.obj
 0001:0000b190       _c1_c_emlrt_marshallIn     1000c190 f   c1_ARP_02_RPSsmile_Glove_Idle.obj
 0001:0000b1e0       _c1_h_emlrt_marshallIn     1000c1e0 f   c1_ARP_02_RPSsmile_Glove_Idle.obj
 0001:0000b230       _c1_i_emlrt_marshallIn     1000c230 f   c1_ARP_02_RPSsmile_Glove_Idle.obj
 0001:0000b280       _c1_j_emlrt_marshallIn     1000c280 f   c1_ARP_02_RPSsmile_Glove_Idle.obj
 0001:0000b2d0       _c1_k_emlrt_marshallIn     1000c2d0 f   c1_ARP_02_RPSsmile_Glove_Idle.obj
 0001:0000b350       _c1_l_emlrt_marshallIn     1000c350 f   c1_ARP_02_RPSsmile_Glove_Idle.obj
 0001:0000b3a0       _c1_m_emlrt_marshallIn     1000c3a0 f   c1_ARP_02_RPSsmile_Glove_Idle.obj
 0001:0000b420       _c1_n_emlrt_marshallIn     1000c420 f   c1_ARP_02_RPSsmile_Glove_Idle.obj
 0001:0000b470       _c1_o_emlrt_marshallIn     1000c470 f   c1_ARP_02_RPSsmile_Glove_Idle.obj
 0001:0000b530       _c1_p_emlrt_marshallIn     1000c530 f   c1_ARP_02_RPSsmile_Glove_Idle.obj
 0001:0000b580       _c1_q_emlrt_marshallIn     1000c580 f   c1_ARP_02_RPSsmile_Glove_Idle.obj
 0001:0000b620       _c1_r_emlrt_marshallIn     1000c620 f   c1_ARP_02_RPSsmile_Glove_Idle.obj
 0001:0000b670       _c1_s_emlrt_marshallIn     1000c670 f   c1_ARP_02_RPSsmile_Glove_Idle.obj
 0001:0000b6c0       _c1_t_emlrt_marshallIn     1000c6c0 f   c1_ARP_02_RPSsmile_Glove_Idle.obj
 0001:0000b720       _c1_u_emlrt_marshallIn     1000c720 f   c1_ARP_02_RPSsmile_Glove_Idle.obj
 0001:0000b7c0       _mdlProcessParameters_c1_ARP_02_RPSsmile_Glove_Idle 1000c7c0 f   c1_ARP_02_RPSsmile_Glove_Idle.obj
 0001:0000b870       _initialize_params_c1_ARP_02_RPSsmile_Glove_Idle 1000c870 f   c1_ARP_02_RPSsmile_Glove_Idle.obj
 0001:0000b880       _mdlSetWorkWidths_c1_ARP_02_RPSsmile_Glove_Idle 1000c880 f   c1_ARP_02_RPSsmile_Glove_Idle.obj
 0001:0000bc40       _sf_get_instance_specialization 1000cc40 f   c1_ARP_02_RPSsmile_Glove_Idle.obj
 0001:0000bc50       _mdlStart_c1_ARP_02_RPSsmile_Glove_Idle 1000cc50 f   c1_ARP_02_RPSsmile_Glove_Idle.obj
 0001:0000bdf0       _init_dsm_address_info     1000cdf0 f   c1_ARP_02_RPSsmile_Glove_Idle.obj
 0001:0000be00       _chart_debug_initialization 1000ce00 f   c1_ARP_02_RPSsmile_Glove_Idle.obj
 0001:00015030       _init_script_number_translation 10016030 f   c1_ARP_02_RPSsmile_Glove_Idle.obj
 0001:00015070       _c1_sf_marshallOut         10016070 f   c1_ARP_02_RPSsmile_Glove_Idle.obj
 0001:000151a0       _c1_sf_marshallIn          100161a0 f   c1_ARP_02_RPSsmile_Glove_Idle.obj
 0001:00015280       _c1_emlrt_marshallIn       10016280 f   c1_ARP_02_RPSsmile_Glove_Idle.obj
 0001:00015310       _c1_b_sf_marshallOut       10016310 f   c1_ARP_02_RPSsmile_Glove_Idle.obj
 0001:00015390       _c1_b_sf_marshallIn        10016390 f   c1_ARP_02_RPSsmile_Glove_Idle.obj
 0001:00015410       _sf_opaque_initialize_c1_ARP_02_RPSsmile_Glove_Idle 10016410 f   c1_ARP_02_RPSsmile_Glove_Idle.obj
 0001:00015440       _initialize_c1_ARP_02_RPSsmile_Glove_Idle 10016440 f   c1_ARP_02_RPSsmile_Glove_Idle.obj
 0001:000156c0       _sf_opaque_enable_c1_ARP_02_RPSsmile_Glove_Idle 100166c0 f   c1_ARP_02_RPSsmile_Glove_Idle.obj
 0001:000156e0       _enable_c1_ARP_02_RPSsmile_Glove_Idle 100166e0 f   c1_ARP_02_RPSsmile_Glove_Idle.obj
 0001:00015730       _sf_opaque_disable_c1_ARP_02_RPSsmile_Glove_Idle 10016730 f   c1_ARP_02_RPSsmile_Glove_Idle.obj
 0001:00015750       _disable_c1_ARP_02_RPSsmile_Glove_Idle 10016750 f   c1_ARP_02_RPSsmile_Glove_Idle.obj
 0001:000157a0       _sf_opaque_gateway_c1_ARP_02_RPSsmile_Glove_Idle 100167a0 f   c1_ARP_02_RPSsmile_Glove_Idle.obj
 0001:000157c0       _sf_gateway_c1_ARP_02_RPSsmile_Glove_Idle 100167c0 f   c1_ARP_02_RPSsmile_Glove_Idle.obj
 0001:000160e0       _c1_set_sim_state_side_effects_c1_ARP_02_RPSsmile_Glove_Idle 100170e0 f   c1_ARP_02_RPSsmile_Glove_Idle.obj
 0001:00016850       _c1_chartstep_c1_ARP_02_RPSsmile_Glove_Idle 10017850 f   c1_ARP_02_RPSsmile_Glove_Idle.obj
 0001:00018fd0       _c1_stateGame              10019fd0 f   c1_ARP_02_RPSsmile_Glove_Idle.obj
 0001:0001b810       _c1_stateStart             1001c810 f   c1_ARP_02_RPSsmile_Glove_Idle.obj
 0001:0001bb40       _c1_enter_atomic_stateReady 1001cb40 f   c1_ARP_02_RPSsmile_Glove_Idle.obj
 0001:0001bda0       _c1_stateReady             1001cda0 f   c1_ARP_02_RPSsmile_Glove_Idle.obj
 0001:0001c340       _c1_stateRandom            1001d340 f   c1_ARP_02_RPSsmile_Glove_Idle.obj
 0001:0001d3d0       _c1_enter_atomic_statePoseReady 1001e3d0 f   c1_ARP_02_RPSsmile_Glove_Idle.obj
 0001:0001dc00       _c1_statePoseReady         1001ec00 f   c1_ARP_02_RPSsmile_Glove_Idle.obj
 0001:0001e1e0       _c1_statePoseSmile         1001f1e0 f   c1_ARP_02_RPSsmile_Glove_Idle.obj
 0001:0001e900       _c1_enter_atomic_stateWristRotate 1001f900 f   c1_ARP_02_RPSsmile_Glove_Idle.obj
 0001:0001ed90       _c1_stateWristRotate       1001fd90 f   c1_ARP_02_RPSsmile_Glove_Idle.obj
 0001:0001f030       _c1_stateRandomHand        10020030 f   c1_ARP_02_RPSsmile_Glove_Idle.obj
 0001:000220f0       _c1_statePoseRock          100230f0 f   c1_ARP_02_RPSsmile_Glove_Idle.obj
 0001:000226b0       _c1_statePoseFingersCLose  100236b0 f   c1_ARP_02_RPSsmile_Glove_Idle.obj
 0001:00023730       _c1_stateReadUserHand      10024730 f   c1_ARP_02_RPSsmile_Glove_Idle.obj
 0001:00024840       _c1_statePoseScissors      10025840 f   c1_ARP_02_RPSsmile_Glove_Idle.obj
 0001:00024e00       _c1_stateShowHands         10025e00 f   c1_ARP_02_RPSsmile_Glove_Idle.obj
 0001:00025190       _c1_statePoseReturnFinger  10026190 f   c1_ARP_02_RPSsmile_Glove_Idle.obj
 0001:000257a0       _c1_enter_atomic_statePoseReturnWrist 100267a0 f   c1_ARP_02_RPSsmile_Glove_Idle.obj
 0001:00025c00       _c1_stateUserWin           10026c00 f   c1_ARP_02_RPSsmile_Glove_Idle.obj
 0001:00025f30       _c1_enter_atomic_stateRandom1 10026f30 f   c1_ARP_02_RPSsmile_Glove_Idle.obj
 0001:000260a0       _c1_stateRandom1           100270a0 f   c1_ARP_02_RPSsmile_Glove_Idle.obj
 0001:00026c10       _c1_statePoseSmileWin      10027c10 f   c1_ARP_02_RPSsmile_Glove_Idle.obj
 0001:00027000       _c1_stateShowResult        10028000 f   c1_ARP_02_RPSsmile_Glove_Idle.obj
 0001:00027330       _c1_stateIdleGaze          10028330 f   c1_ARP_02_RPSsmile_Glove_Idle.obj
 0001:00028420       _c1_enter_atomic_stateInitial 10029420 f   c1_ARP_02_RPSsmile_Glove_Idle.obj
 0001:00028820       _c1_stateInitial           10029820 f   c1_ARP_02_RPSsmile_Glove_Idle.obj
 0001:0002a070       _c1_enter_atomic_stateBoredPose 1002b070 f   c1_ARP_02_RPSsmile_Glove_Idle.obj
 0001:0002e590       _c1_encStr2Arr             1002f590 f   c1_ARP_02_RPSsmile_Glove_Idle.obj
 0001:0002eab0       _c1_b_encStr2Arr           1002fab0 f   c1_ARP_02_RPSsmile_Glove_Idle.obj
 0001:0002efe0       _c1_c_encStr2Arr           1002ffe0 f   c1_ARP_02_RPSsmile_Glove_Idle.obj
 0001:0002f510       _c1_randi                  10030510 f   c1_ARP_02_RPSsmile_Glove_Idle.obj
 0001:0002f640       _c1_rand                   10030640 f   c1_ARP_02_RPSsmile_Glove_Idle.obj
 0001:0002f660       _c1_eml_rand               10030660 f   c1_ARP_02_RPSsmile_Glove_Idle.obj
 0001:0002f9e0       _c1_eml_rand_mt19937ar     100309e0 f   c1_ARP_02_RPSsmile_Glove_Idle.obj
 0001:0002fa40       _c1_b_randi                10030a40 f   c1_ARP_02_RPSsmile_Glove_Idle.obj
 0001:0002fa90       _c1_c_randi                10030a90 f   c1_ARP_02_RPSsmile_Glove_Idle.obj
 0001:0002fad0       _c1_d_randi                10030ad0 f   c1_ARP_02_RPSsmile_Glove_Idle.obj
 0001:0002fb20       _c1_nb_encStr2Arr          10030b20 f   c1_ARP_02_RPSsmile_Glove_Idle.obj
 0001:00030040       _c1_ob_encStr2Arr          10031040 f   c1_ARP_02_RPSsmile_Glove_Idle.obj
 0001:00030580       _c1_pb_encStr2Arr          10031580 f   c1_ARP_02_RPSsmile_Glove_Idle.obj
 0001:00030ac0       _c1_qb_encStr2Arr          10031ac0 f   c1_ARP_02_RPSsmile_Glove_Idle.obj
 0001:00031010       _c1_rb_encStr2Arr          10032010 f   c1_ARP_02_RPSsmile_Glove_Idle.obj
 0001:00031530       _c1_sb_encStr2Arr          10032530 f   c1_ARP_02_RPSsmile_Glove_Idle.obj
 0001:00031a60       _c1_tb_encStr2Arr          10032a60 f   c1_ARP_02_RPSsmile_Glove_Idle.obj
 0001:00031fa0       _c1_ub_encStr2Arr          10032fa0 f   c1_ARP_02_RPSsmile_Glove_Idle.obj
 0001:000324e0       _c1_vb_encStr2Arr          100334e0 f   c1_ARP_02_RPSsmile_Glove_Idle.obj
 0001:00032a20       _c1_wb_encStr2Arr          10033a20 f   c1_ARP_02_RPSsmile_Glove_Idle.obj
 0001:00032f50       _c1_xb_encStr2Arr          10033f50 f   c1_ARP_02_RPSsmile_Glove_Idle.obj
 0001:00033480       _c1_c_sf_marshallOut       10034480 f   c1_ARP_02_RPSsmile_Glove_Idle.obj
 0001:00033500       _c1_c_sf_marshallIn        10034500 f   c1_ARP_02_RPSsmile_Glove_Idle.obj
 0001:00033580       _c1_d_emlrt_marshallIn     10034580 f   c1_ARP_02_RPSsmile_Glove_Idle.obj
 0001:000335d0       _c1_d_sf_marshallOut       100345d0 f   c1_ARP_02_RPSsmile_Glove_Idle.obj
 0001:00033700       _c1_d_sf_marshallIn        10034700 f   c1_ARP_02_RPSsmile_Glove_Idle.obj
 0001:000337e0       _c1_e_emlrt_marshallIn     100347e0 f   c1_ARP_02_RPSsmile_Glove_Idle.obj
 0001:00033880       _c1_e_sf_marshallOut       10034880 f   c1_ARP_02_RPSsmile_Glove_Idle.obj
 0001:00033960       _c1_f_sf_marshallOut       10034960 f   c1_ARP_02_RPSsmile_Glove_Idle.obj
 0001:00033a70       _c1_g_sf_marshallOut       10034a70 f   c1_ARP_02_RPSsmile_Glove_Idle.obj
 0001:00033b70       _c1_h_sf_marshallOut       10034b70 f   c1_ARP_02_RPSsmile_Glove_Idle.obj
 0001:00033c90       _c1_i_sf_marshallOut       10034c90 f   c1_ARP_02_RPSsmile_Glove_Idle.obj
 0001:00033d90       _c1_j_sf_marshallOut       10034d90 f   c1_ARP_02_RPSsmile_Glove_Idle.obj
 0001:00033eb0       _c1_o_sf_marshallOut       10034eb0 f   c1_ARP_02_RPSsmile_Glove_Idle.obj
 0001:00033fc0       _c1_p_sf_marshallOut       10034fc0 f   c1_ARP_02_RPSsmile_Glove_Idle.obj
 0001:000340d0       _c1_hb_sf_marshallOut      100350d0 f   c1_ARP_02_RPSsmile_Glove_Idle.obj
 0001:000341b0       _c1_ib_sf_marshallOut      100351b0 f   c1_ARP_02_RPSsmile_Glove_Idle.obj
 0001:000342c0       _c1_wc_sf_marshallOut      100352c0 f   c1_ARP_02_RPSsmile_Glove_Idle.obj
 0001:000343c0       _c1_xc_sf_marshallOut      100353c0 f   c1_ARP_02_RPSsmile_Glove_Idle.obj
 0001:000344e0       _c1_yc_sf_marshallOut      100354e0 f   c1_ARP_02_RPSsmile_Glove_Idle.obj
 0001:000345e0       _c1_ad_sf_marshallOut      100355e0 f   c1_ARP_02_RPSsmile_Glove_Idle.obj
 0001:00034700       _c1_bd_sf_marshallOut      10035700 f   c1_ARP_02_RPSsmile_Glove_Idle.obj
 0001:000347e0       _c1_cd_sf_marshallOut      100357e0 f   c1_ARP_02_RPSsmile_Glove_Idle.obj
 0001:00034900       _c1_dd_sf_marshallOut      10035900 f   c1_ARP_02_RPSsmile_Glove_Idle.obj
 0001:000349e0       _c1_ed_sf_marshallOut      100359e0 f   c1_ARP_02_RPSsmile_Glove_Idle.obj
 0001:00034af0       _c1_sendBML                10035af0 f   c1_ARP_02_RPSsmile_Glove_Idle.obj
 0001:00034de0       _c1_handPoseSB             10035de0 f   c1_ARP_02_RPSsmile_Glove_Idle.obj
 0001:00036ce0       _c1_d_encStr2Arr           10037ce0 f   c1_ARP_02_RPSsmile_Glove_Idle.obj
 0001:00037210       _c1_e_encStr2Arr           10038210 f   c1_ARP_02_RPSsmile_Glove_Idle.obj
 0001:00037740       _c1_f_encStr2Arr           10038740 f   c1_ARP_02_RPSsmile_Glove_Idle.obj
 0001:00037c80       _c1_g_encStr2Arr           10038c80 f   c1_ARP_02_RPSsmile_Glove_Idle.obj
 0001:000381b0       _c1_h_encStr2Arr           100391b0 f   c1_ARP_02_RPSsmile_Glove_Idle.obj
 0001:00038700       _c1_k_sf_marshallOut       10039700 f   c1_ARP_02_RPSsmile_Glove_Idle.obj
 0001:00038820       _c1_l_sf_marshallOut       10039820 f   c1_ARP_02_RPSsmile_Glove_Idle.obj
 0001:00038930       _c1_m_sf_marshallOut       10039930 f   c1_ARP_02_RPSsmile_Glove_Idle.obj
 0001:00038a50       _c1_n_sf_marshallOut       10039a50 f   c1_ARP_02_RPSsmile_Glove_Idle.obj
 0001:00038b70       _c1_q_sf_marshallOut       10039b70 f   c1_ARP_02_RPSsmile_Glove_Idle.obj
 0001:00038c70       _c1_r_sf_marshallOut       10039c70 f   c1_ARP_02_RPSsmile_Glove_Idle.obj
 0001:00038d90       _c1_s_sf_marshallOut       10039d90 f   c1_ARP_02_RPSsmile_Glove_Idle.obj
 0001:00038e90       _c1_t_sf_marshallOut       10039e90 f   c1_ARP_02_RPSsmile_Glove_Idle.obj
 0001:00038fb0       _c1_u_sf_marshallOut       10039fb0 f   c1_ARP_02_RPSsmile_Glove_Idle.obj
 0001:00039090       _c1_v_sf_marshallOut       1003a090 f   c1_ARP_02_RPSsmile_Glove_Idle.obj
 0001:000391a0       _c1_idlePose               1003a1a0 f   c1_ARP_02_RPSsmile_Glove_Idle.obj
 0001:0003b7d0       _c1_i_encStr2Arr           1003c7d0 f   c1_ARP_02_RPSsmile_Glove_Idle.obj
 0001:0003bd10       _c1_j_encStr2Arr           1003cd10 f   c1_ARP_02_RPSsmile_Glove_Idle.obj
 0001:0003c250       _c1_k_encStr2Arr           1003d250 f   c1_ARP_02_RPSsmile_Glove_Idle.obj
 0001:0003c780       _c1_l_encStr2Arr           1003d780 f   c1_ARP_02_RPSsmile_Glove_Idle.obj
 0001:0003ccd0       _c1_m_encStr2Arr           1003dcd0 f   c1_ARP_02_RPSsmile_Glove_Idle.obj
 0001:0003d1f0       _c1_n_encStr2Arr           1003e1f0 f   c1_ARP_02_RPSsmile_Glove_Idle.obj
 0001:0003d720       _c1_o_encStr2Arr           1003e720 f   c1_ARP_02_RPSsmile_Glove_Idle.obj
 0001:0003dc60       _c1_w_sf_marshallOut       1003ec60 f   c1_ARP_02_RPSsmile_Glove_Idle.obj
 0001:0003dd80       _c1_x_sf_marshallOut       1003ed80 f   c1_ARP_02_RPSsmile_Glove_Idle.obj
 0001:0003dea0       _c1_y_sf_marshallOut       1003eea0 f   c1_ARP_02_RPSsmile_Glove_Idle.obj
 0001:0003dfc0       _c1_ab_sf_marshallOut      1003efc0 f   c1_ARP_02_RPSsmile_Glove_Idle.obj
 0001:0003e0d0       _c1_bb_sf_marshallOut      1003f0d0 f   c1_ARP_02_RPSsmile_Glove_Idle.obj
 0001:0003e1b0       _c1_cb_sf_marshallOut      1003f1b0 f   c1_ARP_02_RPSsmile_Glove_Idle.obj
 0001:0003e2c0       _c1_db_sf_marshallOut      1003f2c0 f   c1_ARP_02_RPSsmile_Glove_Idle.obj
 0001:0003e3d0       _c1_eb_sf_marshallOut      1003f3d0 f   c1_ARP_02_RPSsmile_Glove_Idle.obj
 0001:0003e4e0       _c1_fb_sf_marshallOut      1003f4e0 f   c1_ARP_02_RPSsmile_Glove_Idle.obj
 0001:0003e600       _c1_gb_sf_marshallOut      1003f600 f   c1_ARP_02_RPSsmile_Glove_Idle.obj
 0001:0003e710       _c1_boredGaze              1003f710 f   c1_ARP_02_RPSsmile_Glove_Idle.obj
 0001:00046140       _c1_p_encStr2Arr           10047140 f   c1_ARP_02_RPSsmile_Glove_Idle.obj
 0001:00046660       _c1_q_encStr2Arr           10047660 f   c1_ARP_02_RPSsmile_Glove_Idle.obj
 0001:00046ba0       _c1_r_encStr2Arr           10047ba0 f   c1_ARP_02_RPSsmile_Glove_Idle.obj
 0001:000470e0       _c1_s_encStr2Arr           100480e0 f   c1_ARP_02_RPSsmile_Glove_Idle.obj
 0001:00047610       _c1_t_encStr2Arr           10048610 f   c1_ARP_02_RPSsmile_Glove_Idle.obj
 0001:00047b30       _c1_u_encStr2Arr           10048b30 f   c1_ARP_02_RPSsmile_Glove_Idle.obj
 0001:00048050       _c1_v_encStr2Arr           10049050 f   c1_ARP_02_RPSsmile_Glove_Idle.obj
 0001:000485a0       _c1_w_encStr2Arr           100495a0 f   c1_ARP_02_RPSsmile_Glove_Idle.obj
 0001:00048ad0       _c1_x_encStr2Arr           10049ad0 f   c1_ARP_02_RPSsmile_Glove_Idle.obj
 0001:00049010       _c1_y_encStr2Arr           1004a010 f   c1_ARP_02_RPSsmile_Glove_Idle.obj
 0001:00049540       _c1_ab_encStr2Arr          1004a540 f   c1_ARP_02_RPSsmile_Glove_Idle.obj
 0001:00049a80       _c1_bb_encStr2Arr          1004aa80 f   c1_ARP_02_RPSsmile_Glove_Idle.obj
 0001:00049fc0       _c1_cb_encStr2Arr          1004afc0 f   c1_ARP_02_RPSsmile_Glove_Idle.obj
 0001:0004a4e0       _c1_db_encStr2Arr          1004b4e0 f   c1_ARP_02_RPSsmile_Glove_Idle.obj
 0001:0004aa00       _c1_eb_encStr2Arr          1004ba00 f   c1_ARP_02_RPSsmile_Glove_Idle.obj
 0001:0004af20       _c1_fb_encStr2Arr          1004bf20 f   c1_ARP_02_RPSsmile_Glove_Idle.obj
 0001:0004b440       _c1_gb_encStr2Arr          1004c440 f   c1_ARP_02_RPSsmile_Glove_Idle.obj
 0001:0004b970       _c1_hb_encStr2Arr          1004c970 f   c1_ARP_02_RPSsmile_Glove_Idle.obj
 0001:0004beb0       _c1_ib_encStr2Arr          1004ceb0 f   c1_ARP_02_RPSsmile_Glove_Idle.obj
 0001:0004c3e0       _c1_jb_encStr2Arr          1004d3e0 f   c1_ARP_02_RPSsmile_Glove_Idle.obj
 0001:0004c910       _c1_kb_encStr2Arr          1004d910 f   c1_ARP_02_RPSsmile_Glove_Idle.obj
 0001:0004ce30       _c1_lb_encStr2Arr          1004de30 f   c1_ARP_02_RPSsmile_Glove_Idle.obj
 0001:0004d360       _c1_mb_encStr2Arr          1004e360 f   c1_ARP_02_RPSsmile_Glove_Idle.obj
 0001:0004d890       _c1_jb_sf_marshallOut      1004e890 f   c1_ARP_02_RPSsmile_Glove_Idle.obj
 0001:0004d9a0       _c1_kb_sf_marshallOut      1004e9a0 f   c1_ARP_02_RPSsmile_Glove_Idle.obj
 0001:0004dac0       _c1_lb_sf_marshallOut      1004eac0 f   c1_ARP_02_RPSsmile_Glove_Idle.obj
 0001:0004dbd0       _c1_mb_sf_marshallOut      1004ebd0 f   c1_ARP_02_RPSsmile_Glove_Idle.obj
 0001:0004dcf0       _c1_nb_sf_marshallOut      1004ecf0 f   c1_ARP_02_RPSsmile_Glove_Idle.obj
 0001:0004de00       _c1_ob_sf_marshallOut      1004ee00 f   c1_ARP_02_RPSsmile_Glove_Idle.obj
 0001:0004df10       _c1_pb_sf_marshallOut      1004ef10 f   c1_ARP_02_RPSsmile_Glove_Idle.obj
 0001:0004e020       _c1_qb_sf_marshallOut      1004f020 f   c1_ARP_02_RPSsmile_Glove_Idle.obj
 0001:0004e140       _c1_rb_sf_marshallOut      1004f140 f   c1_ARP_02_RPSsmile_Glove_Idle.obj
 0001:0004e260       _c1_sb_sf_marshallOut      1004f260 f   c1_ARP_02_RPSsmile_Glove_Idle.obj
 0001:0004e370       _c1_tb_sf_marshallOut      1004f370 f   c1_ARP_02_RPSsmile_Glove_Idle.obj
 0001:0004e490       _c1_ub_sf_marshallOut      1004f490 f   c1_ARP_02_RPSsmile_Glove_Idle.obj
 0001:0004e5b0       _c1_vb_sf_marshallOut      1004f5b0 f   c1_ARP_02_RPSsmile_Glove_Idle.obj
 0001:0004e6d0       _c1_wb_sf_marshallOut      1004f6d0 f   c1_ARP_02_RPSsmile_Glove_Idle.obj
 0001:0004e7f0       _c1_xb_sf_marshallOut      1004f7f0 f   c1_ARP_02_RPSsmile_Glove_Idle.obj
 0001:0004e910       _c1_yb_sf_marshallOut      1004f910 f   c1_ARP_02_RPSsmile_Glove_Idle.obj
 0001:0004ea30       _c1_ac_sf_marshallOut      1004fa30 f   c1_ARP_02_RPSsmile_Glove_Idle.obj
 0001:0004eb40       _c1_bc_sf_marshallOut      1004fb40 f   c1_ARP_02_RPSsmile_Glove_Idle.obj
 0001:0004ec60       _c1_cc_sf_marshallOut      1004fc60 f   c1_ARP_02_RPSsmile_Glove_Idle.obj
 0001:0004ed80       _c1_dc_sf_marshallOut      1004fd80 f   c1_ARP_02_RPSsmile_Glove_Idle.obj
 0001:0004eea0       _c1_ec_sf_marshallOut      1004fea0 f   c1_ARP_02_RPSsmile_Glove_Idle.obj
 0001:0004efb0       _c1_fc_sf_marshallOut      1004ffb0 f   c1_ARP_02_RPSsmile_Glove_Idle.obj
 0001:0004f0d0       _c1_gc_sf_marshallOut      100500d0 f   c1_ARP_02_RPSsmile_Glove_Idle.obj
 0001:0004f1f0       _c1_hc_sf_marshallOut      100501f0 f   c1_ARP_02_RPSsmile_Glove_Idle.obj
 0001:0004f310       _c1_ic_sf_marshallOut      10050310 f   c1_ARP_02_RPSsmile_Glove_Idle.obj
 0001:0004f420       _c1_jc_sf_marshallOut      10050420 f   c1_ARP_02_RPSsmile_Glove_Idle.obj
 0001:0004f540       _c1_kc_sf_marshallOut      10050540 f   c1_ARP_02_RPSsmile_Glove_Idle.obj
 0001:0004f660       _c1_lc_sf_marshallOut      10050660 f   c1_ARP_02_RPSsmile_Glove_Idle.obj
 0001:0004f780       _c1_mc_sf_marshallOut      10050780 f   c1_ARP_02_RPSsmile_Glove_Idle.obj
 0001:0004f8a0       _c1_nc_sf_marshallOut      100508a0 f   c1_ARP_02_RPSsmile_Glove_Idle.obj
 0001:0004f9c0       _c1_oc_sf_marshallOut      100509c0 f   c1_ARP_02_RPSsmile_Glove_Idle.obj
 0001:0004fad0       _c1_pc_sf_marshallOut      10050ad0 f   c1_ARP_02_RPSsmile_Glove_Idle.obj
 0001:0004fbf0       _c1_qc_sf_marshallOut      10050bf0 f   c1_ARP_02_RPSsmile_Glove_Idle.obj
 0001:0004fd10       _c1_rc_sf_marshallOut      10050d10 f   c1_ARP_02_RPSsmile_Glove_Idle.obj
 0001:0004fe20       _c1_sc_sf_marshallOut      10050e20 f   c1_ARP_02_RPSsmile_Glove_Idle.obj
 0001:0004ff40       _c1_tc_sf_marshallOut      10050f40 f   c1_ARP_02_RPSsmile_Glove_Idle.obj
 0001:00050050       _c1_uc_sf_marshallOut      10051050 f   c1_ARP_02_RPSsmile_Glove_Idle.obj
 0001:00050160       _c1_vc_sf_marshallOut      10051160 f   c1_ARP_02_RPSsmile_Glove_Idle.obj
 0001:00050280       _c1_updateDataWrittenToVector 10051280 f   c1_ARP_02_RPSsmile_Glove_Idle.obj
 0001:000502d0       _c1_errorIfDataNotWrittenToFcn 100512d0 f   c1_ARP_02_RPSsmile_Glove_Idle.obj
 0001:00050350       _c1_b_twister_state_vector 10051350 f   c1_ARP_02_RPSsmile_Glove_Idle.obj
 0001:00050530       _c1_c_eml_rand_mt19937ar   10051530 f   c1_ARP_02_RPSsmile_Glove_Idle.obj
 0001:00050f30       _c1_eml_error              10051f30 f   c1_ARP_02_RPSsmile_Glove_Idle.obj
 0001:00050ff0       _sf_opaque_get_sim_state_c1_ARP_02_RPSsmile_Glove_Idle 10051ff0 f   c1_ARP_02_RPSsmile_Glove_Idle.obj
 0001:00051010       _sf_opaque_set_sim_state_c1_ARP_02_RPSsmile_Glove_Idle 10052010 f   c1_ARP_02_RPSsmile_Glove_Idle.obj
 0001:00051030       _sf_opaque_terminate_c1_ARP_02_RPSsmile_Glove_Idle 10052030 f   c1_ARP_02_RPSsmile_Glove_Idle.obj
 0001:000510c0       _finalize_c1_ARP_02_RPSsmile_Glove_Idle 100520c0 f   c1_ARP_02_RPSsmile_Glove_Idle.obj
 0001:000510e0       _sf_opaque_init_subchart_simstructs 100520e0 f   c1_ARP_02_RPSsmile_Glove_Idle.obj
 0001:00051100       _initSimStructsc1_ARP_02_RPSsmile_Glove_Idle 10052100 f   c1_ARP_02_RPSsmile_Glove_Idle.obj
 0001:00051110       _mdlRTW_c1_ARP_02_RPSsmile_Glove_Idle 10052110 f   c1_ARP_02_RPSsmile_Glove_Idle.obj
 0001:000511a0       _c2_info_helper            100521a0 f   c2_ARP_02_RPSsmile_Glove_Idle.obj
 0001:00051390       _c2_emlrt_marshallOut      10052390 f   c2_ARP_02_RPSsmile_Glove_Idle.obj
 0001:000513f0       _c2_b_emlrt_marshallOut    100523f0 f   c2_ARP_02_RPSsmile_Glove_Idle.obj
 0001:00051cb0       _get_sim_state_c2_ARP_02_RPSsmile_Glove_Idle 10052cb0 f   c2_ARP_02_RPSsmile_Glove_Idle.obj
 0001:00051d70       _sf_get_sim_state_info_c2_ARP_02_RPSsmile_Glove_Idle 10052d70 f   c2_ARP_02_RPSsmile_Glove_Idle.obj
 0001:00051ef0       _set_sim_state_c2_ARP_02_RPSsmile_Glove_Idle 10052ef0 f   c2_ARP_02_RPSsmile_Glove_Idle.obj
 0001:00051f70       _c2_update_debugger_state_c2_ARP_02_RPSsmile_Glove_Idle 10052f70 f   c2_ARP_02_RPSsmile_Glove_Idle.obj
 0001:00051f80       _c2_c_emlrt_marshallIn     10052f80 f   c2_ARP_02_RPSsmile_Glove_Idle.obj
 0001:00051fd0       _c2_d_emlrt_marshallIn     10052fd0 f   c2_ARP_02_RPSsmile_Glove_Idle.obj
 0001:00052080       _mdlProcessParameters_c2_ARP_02_RPSsmile_Glove_Idle 10053080 f   c2_ARP_02_RPSsmile_Glove_Idle.obj
 0001:00052130       _initialize_params_c2_ARP_02_RPSsmile_Glove_Idle 10053130 f   c2_ARP_02_RPSsmile_Glove_Idle.obj
 0001:00052140       _mdlSetWorkWidths_c2_ARP_02_RPSsmile_Glove_Idle 10053140 f   c2_ARP_02_RPSsmile_Glove_Idle.obj
 0001:00052560       _sf_get_instance_specialization 10053560 f   c2_ARP_02_RPSsmile_Glove_Idle.obj
 0001:00052570       _mdlStart_c2_ARP_02_RPSsmile_Glove_Idle 10053570 f   c2_ARP_02_RPSsmile_Glove_Idle.obj
 0001:00052710       _init_dsm_address_info     10053710 f   c2_ARP_02_RPSsmile_Glove_Idle.obj
 0001:00052720       _chart_debug_initialization 10053720 f   c2_ARP_02_RPSsmile_Glove_Idle.obj
 0001:00052e80       _init_script_number_translation 10053e80 f   c2_ARP_02_RPSsmile_Glove_Idle.obj
 0001:00052e90       _c2_sf_marshallOut         10053e90 f   c2_ARP_02_RPSsmile_Glove_Idle.obj
 0001:00052f10       _sf_opaque_initialize_c2_ARP_02_RPSsmile_Glove_Idle 10053f10 f   c2_ARP_02_RPSsmile_Glove_Idle.obj
 0001:00052f40       _initialize_c2_ARP_02_RPSsmile_Glove_Idle 10053f40 f   c2_ARP_02_RPSsmile_Glove_Idle.obj
 0001:00052f70       _sf_opaque_enable_c2_ARP_02_RPSsmile_Glove_Idle 10053f70 f   c2_ARP_02_RPSsmile_Glove_Idle.obj
 0001:00052f90       _enable_c2_ARP_02_RPSsmile_Glove_Idle 10053f90 f   c2_ARP_02_RPSsmile_Glove_Idle.obj
 0001:00052fb0       _sf_opaque_disable_c2_ARP_02_RPSsmile_Glove_Idle 10053fb0 f   c2_ARP_02_RPSsmile_Glove_Idle.obj
 0001:00052fd0       _disable_c2_ARP_02_RPSsmile_Glove_Idle 10053fd0 f   c2_ARP_02_RPSsmile_Glove_Idle.obj
 0001:00052ff0       _sf_opaque_gateway_c2_ARP_02_RPSsmile_Glove_Idle 10053ff0 f   c2_ARP_02_RPSsmile_Glove_Idle.obj
 0001:00053010       _sf_gateway_c2_ARP_02_RPSsmile_Glove_Idle 10054010 f   c2_ARP_02_RPSsmile_Glove_Idle.obj
 0001:00053eb0       _c2_sf_marshallIn          10054eb0 f   c2_ARP_02_RPSsmile_Glove_Idle.obj
 0001:00053f30       _c2_emlrt_marshallIn       10054f30 f   c2_ARP_02_RPSsmile_Glove_Idle.obj
 0001:00053f80       _sf_opaque_get_sim_state_c2_ARP_02_RPSsmile_Glove_Idle 10054f80 f   c2_ARP_02_RPSsmile_Glove_Idle.obj
 0001:00053fa0       _sf_opaque_set_sim_state_c2_ARP_02_RPSsmile_Glove_Idle 10054fa0 f   c2_ARP_02_RPSsmile_Glove_Idle.obj
 0001:00053fc0       _sf_opaque_terminate_c2_ARP_02_RPSsmile_Glove_Idle 10054fc0 f   c2_ARP_02_RPSsmile_Glove_Idle.obj
 0001:00054050       _finalize_c2_ARP_02_RPSsmile_Glove_Idle 10055050 f   c2_ARP_02_RPSsmile_Glove_Idle.obj
 0001:00054060       _sf_opaque_init_subchart_simstructs 10055060 f   c2_ARP_02_RPSsmile_Glove_Idle.obj
 0001:00054080       _initSimStructsc2_ARP_02_RPSsmile_Glove_Idle 10055080 f   c2_ARP_02_RPSsmile_Glove_Idle.obj
 0001:00054090       _mdlRTW_c2_ARP_02_RPSsmile_Glove_Idle 10055090 f   c2_ARP_02_RPSsmile_Glove_Idle.obj
 0001:000545a0       _get_sim_state_c3_ARP_02_RPSsmile_Glove_Idle 100555a0 f   c3_ARP_02_RPSsmile_Glove_Idle.obj
 0001:000546c0       _sf_get_sim_state_info_c3_ARP_02_RPSsmile_Glove_Idle 100556c0 f   c3_ARP_02_RPSsmile_Glove_Idle.obj
 0001:00054840       _set_sim_state_c3_ARP_02_RPSsmile_Glove_Idle 10055840 f   c3_ARP_02_RPSsmile_Glove_Idle.obj
 0001:00054900       _c3_update_debugger_state_c3_ARP_02_RPSsmile_Glove_Idle 10055900 f   c3_ARP_02_RPSsmile_Glove_Idle.obj
 0001:00054910       _c3_emlrt_marshallIn       10055910 f   c3_ARP_02_RPSsmile_Glove_Idle.obj
 0001:00054960       _c3_b_emlrt_marshallIn     10055960 f   c3_ARP_02_RPSsmile_Glove_Idle.obj
 0001:000549b0       _c3_d_emlrt_marshallIn     100559b0 f   c3_ARP_02_RPSsmile_Glove_Idle.obj
 0001:00054a00       _c3_e_emlrt_marshallIn     10055a00 f   c3_ARP_02_RPSsmile_Glove_Idle.obj
 0001:00054ab0       _mdlProcessParameters_c3_ARP_02_RPSsmile_Glove_Idle 10055ab0 f   c3_ARP_02_RPSsmile_Glove_Idle.obj
 0001:00054b60       _initialize_params_c3_ARP_02_RPSsmile_Glove_Idle 10055b60 f   c3_ARP_02_RPSsmile_Glove_Idle.obj
 0001:00054b70       _mdlSetWorkWidths_c3_ARP_02_RPSsmile_Glove_Idle 10055b70 f   c3_ARP_02_RPSsmile_Glove_Idle.obj
 0001:00054ef0       _sf_get_instance_specialization 10055ef0 f   c3_ARP_02_RPSsmile_Glove_Idle.obj
 0001:00054f00       _mdlStart_c3_ARP_02_RPSsmile_Glove_Idle 10055f00 f   c3_ARP_02_RPSsmile_Glove_Idle.obj
 0001:000550a0       _init_dsm_address_info     100560a0 f   c3_ARP_02_RPSsmile_Glove_Idle.obj
 0001:000550b0       _chart_debug_initialization 100560b0 f   c3_ARP_02_RPSsmile_Glove_Idle.obj
 0001:000555c0       _init_script_number_translation 100565c0 f   c3_ARP_02_RPSsmile_Glove_Idle.obj
 0001:000555d0       _c3_sf_marshallOut         100565d0 f   c3_ARP_02_RPSsmile_Glove_Idle.obj
 0001:00055650       _c3_sf_marshallIn          10056650 f   c3_ARP_02_RPSsmile_Glove_Idle.obj
 0001:000556d0       _sf_opaque_initialize_c3_ARP_02_RPSsmile_Glove_Idle 100566d0 f   c3_ARP_02_RPSsmile_Glove_Idle.obj
 0001:00055700       _initialize_c3_ARP_02_RPSsmile_Glove_Idle 10056700 f   c3_ARP_02_RPSsmile_Glove_Idle.obj
 0001:00055730       _sf_opaque_enable_c3_ARP_02_RPSsmile_Glove_Idle 10056730 f   c3_ARP_02_RPSsmile_Glove_Idle.obj
 0001:00055750       _enable_c3_ARP_02_RPSsmile_Glove_Idle 10056750 f   c3_ARP_02_RPSsmile_Glove_Idle.obj
 0001:00055770       _sf_opaque_disable_c3_ARP_02_RPSsmile_Glove_Idle 10056770 f   c3_ARP_02_RPSsmile_Glove_Idle.obj
 0001:00055790       _disable_c3_ARP_02_RPSsmile_Glove_Idle 10056790 f   c3_ARP_02_RPSsmile_Glove_Idle.obj
 0001:000557b0       _sf_opaque_gateway_c3_ARP_02_RPSsmile_Glove_Idle 100567b0 f   c3_ARP_02_RPSsmile_Glove_Idle.obj
 0001:000557d0       _sf_gateway_c3_ARP_02_RPSsmile_Glove_Idle 100567d0 f   c3_ARP_02_RPSsmile_Glove_Idle.obj
 0001:00055e90       _sf_opaque_get_sim_state_c3_ARP_02_RPSsmile_Glove_Idle 10056e90 f   c3_ARP_02_RPSsmile_Glove_Idle.obj
 0001:00055eb0       _sf_opaque_set_sim_state_c3_ARP_02_RPSsmile_Glove_Idle 10056eb0 f   c3_ARP_02_RPSsmile_Glove_Idle.obj
 0001:00055ed0       _sf_opaque_terminate_c3_ARP_02_RPSsmile_Glove_Idle 10056ed0 f   c3_ARP_02_RPSsmile_Glove_Idle.obj
 0001:00055f60       _finalize_c3_ARP_02_RPSsmile_Glove_Idle 10056f60 f   c3_ARP_02_RPSsmile_Glove_Idle.obj
 0001:00055f70       _sf_opaque_init_subchart_simstructs 10056f70 f   c3_ARP_02_RPSsmile_Glove_Idle.obj
 0001:00055f90       _initSimStructsc3_ARP_02_RPSsmile_Glove_Idle 10056f90 f   c3_ARP_02_RPSsmile_Glove_Idle.obj
 0001:00055fa0       _mdlRTW_c3_ARP_02_RPSsmile_Glove_Idle 10056fa0 f   c3_ARP_02_RPSsmile_Glove_Idle.obj
 0001:000566e0       _getChartInfoFromSimStruct 100576e0 f   ARP_02_RPSsmile_Glove_Idle_sfun_registry.obj
 0001:000577e0       __ssFatalError             100587e0 f   ARP_02_RPSsmile_Glove_Idle_sfun_registry.obj
 0001:00059b40       _ProcessMexSfunctionCmdLineCall 1005ab40 f   ARP_02_RPSsmile_Glove_Idle_sfun_registry.obj
 0001:00059c60       _sf_debug_api_wrapper      1005ac60 f   ARP_02_RPSsmile_Glove_Idle_sfun_registry.obj
 0001:00059c90       _mdlStart                  1005ac90 f   ARP_02_RPSsmile_Glove_Idle_sfun_registry.obj
 0001:00059cb0       _mdl_start_processing      1005acb0 f   ARP_02_RPSsmile_Glove_Idle_sfun_registry.obj
 0001:00059d20       _mdlTerminate              1005ad20 f   ARP_02_RPSsmile_Glove_Idle_sfun_registry.obj
 0001:00059d40       _mdl_terminate_processing  1005ad40 f   ARP_02_RPSsmile_Glove_Idle_sfun_registry.obj
 0001:00059db0       _mdlInitializeSampleTimes  1005adb0 f   ARP_02_RPSsmile_Glove_Idle_sfun_registry.obj
 0001:00059dd0       _mdlZeroCrossings          1005add0 f   ARP_02_RPSsmile_Glove_Idle_sfun_registry.obj
 0001:00059df0       _mdl_zeroCrossings_processing 1005adf0 f   ARP_02_RPSsmile_Glove_Idle_sfun_registry.obj
 0001:00059e20       _mdlDerivatives            1005ae20 f   ARP_02_RPSsmile_Glove_Idle_sfun_registry.obj
 0001:00059e40       _mdl_derivatives_processing 1005ae40 f   ARP_02_RPSsmile_Glove_Idle_sfun_registry.obj
 0001:00059e80       _mdlInitializeConditions   1005ae80 f   ARP_02_RPSsmile_Glove_Idle_sfun_registry.obj
 0001:00059ea0       _mdl_initialize_conditions_processing 1005aea0 f   ARP_02_RPSsmile_Glove_Idle_sfun_registry.obj
 0001:00059ee0       _mdlEnable                 1005aee0 f   ARP_02_RPSsmile_Glove_Idle_sfun_registry.obj
 0001:00059f00       _mdl_enable_processing     1005af00 f   ARP_02_RPSsmile_Glove_Idle_sfun_registry.obj
 0001:00059f30       _mdlDisable                1005af30 f   ARP_02_RPSsmile_Glove_Idle_sfun_registry.obj
 0001:00059f50       _mdl_disable_processing    1005af50 f   ARP_02_RPSsmile_Glove_Idle_sfun_registry.obj
 0001:00059f80       _mdlOutputs                1005af80 f   ARP_02_RPSsmile_Glove_Idle_sfun_registry.obj
 0001:00059fa0       _mdl_outputs_processing    1005afa0 f   ARP_02_RPSsmile_Glove_Idle_sfun_registry.obj
 0001:0005a070       _mdl_outputs_continuous_legacy 1005b070 f   ARP_02_RPSsmile_Glove_Idle_sfun_registry.obj
 0001:0005a140       _mdlGetTimeOfNextVarHit    1005b140 f   ARP_02_RPSsmile_Glove_Idle_sfun_registry.obj
 0001:0005a180       __ProcessMexSfunctionCmdLineCall 1005b180 f   ARP_02_RPSsmile_Glove_Idle_sfun_registry.obj
 0001:0005a7a0       _mdlSetWorkWidths          1005b7a0 f   ARP_02_RPSsmile_Glove_Idle_sfun_registry.obj
 0001:0005a7c0       _mdlProcessParameters      1005b7c0 f   ARP_02_RPSsmile_Glove_Idle_sfun_registry.obj
 0001:0005a7e0       _mdlInitializeSizes        1005b7e0 f   ARP_02_RPSsmile_Glove_Idle_sfun_registry.obj
 0001:0005a800       _mdlExtModeExec            1005b800 f   ARP_02_RPSsmile_Glove_Idle_sfun_registry.obj
 0001:0005a820       _mdl_ext_mode_exec_processing 1005b820 f   ARP_02_RPSsmile_Glove_Idle_sfun_registry.obj
 0001:0005a860       _mdlRTW                    1005b860 f   ARP_02_RPSsmile_Glove_Idle_sfun_registry.obj
 0001:0005a890       __CreateSimStruct          1005b890 f   ARP_02_RPSsmile_Glove_Idle_sfun_registry.obj
 0001:0005a9c0       __RegNumInputPortsCB       1005b9c0 f   ARP_02_RPSsmile_Glove_Idle_sfun_registry.obj
 0001:0005aa20       __RegNumOutputPortsCB      1005ba20 f   ARP_02_RPSsmile_Glove_Idle_sfun_registry.obj
 0001:0005afa1       _pre_c_init                1005bfa1 f   MSVCRT:crtdll.obj
 0001:0005b1f9       ___DllMainCRTStartup       1005c1f9 f   MSVCRT:crtdll.obj
