 testKinectAllReceiver_sfun

 Timestamp is 545aaf3e (Wed Nov 05 15:14:06 2014)

 Preferred load address is 10000000

 Start         Length     Name                   Class
 0001:00000000 0000e774H .text                   CODE
 0002:00000000 00000278H .idata$5                DATA
 0002:00000278 00000004H .CRT$XCA                DATA
 0002:0000027c 00000004H .CRT$XCZ                DATA
 0002:00000280 00000004H .CRT$XIA                DATA
 0002:00000284 00000004H .CRT$XIAA               DATA
 0002:00000288 00000004H .CRT$XIC                DATA
 0002:0000028c 00000004H .CRT$XIZ                DATA
 0002:00000290 00000708H .rdata                  DATA
 0002:000009a0 00000004H .rdata$sxdata           DATA
 0002:000009a4 00000004H .rtc$IAA                DATA
 0002:000009a8 00000004H .rtc$IZZ                DATA
 0002:000009ac 00000004H .rtc$TAA                DATA
 0002:000009b0 00000004H .rtc$TZZ                DATA
 0002:000009b8 00000064H .xdata$x                DATA
 0002:00000a1c 0000008cH .idata$2                DATA
 0002:00000aa8 00000014H .idata$3                DATA
 0002:00000abc 00000278H .idata$4                DATA
 0002:00000d34 00000e68H .idata$6                DATA
 0002:00001ba0 00000060H .edata                  DATA
 0003:00000000 00002750H .data                   DATA
 0003:00002750 00000448H .bss                    DATA

  Address         Publics by Value              Rva+Base       Lib:Object

 0000:00000000       __except_list              00000000     <absolute>
 0000:00000001       ___safe_se_handler_count   00000001     <absolute>
 0000:00009876       __ldused                   00009876     <absolute>
 0000:00009876       __fltused                  00009876     <absolute>
 0000:00000000       ___ImageBase               10000000     <linker-defined>
 0001:00000000       _testKinectAllReceiver_initializer 10001000 f   testKinectAllReceiver_sfun.obj
 0001:00000010       _testKinectAllReceiver_terminator 10001010 f   testKinectAllReceiver_sfun.obj
 0001:00000020       _sf_testKinectAllReceiver_method_dispatcher 10001020 f   testKinectAllReceiver_sfun.obj
 0001:00000070       _sf_testKinectAllReceiver_process_check_sum_call 10001070 f   testKinectAllReceiver_sfun.obj
 0001:00000430       _sf_testKinectAllReceiver_autoinheritance_info 10001430 f   testKinectAllReceiver_sfun.obj
 0001:00000590       _sf_testKinectAllReceiver_get_eml_resolved_functions_info 10001590 f   testKinectAllReceiver_sfun.obj
 0001:000006b0       _sf_testKinectAllReceiver_third_party_uses_info 100016b0 f   testKinectAllReceiver_sfun.obj
 0001:00000810       _sf_testKinectAllReceiver_updateBuildInfo_args_info 10001810 f   testKinectAllReceiver_sfun.obj
 0001:00000970       _testKinectAllReceiver_debug_initialize 10001970 f   testKinectAllReceiver_sfun.obj
 0001:000009d0       _testKinectAllReceiver_register_exported_symbols 100019d0 f   testKinectAllReceiver_sfun.obj
 0001:000009e0       _load_testKinectAllReceiver_optimization_info 100019e0 f   testKinectAllReceiver_sfun.obj
 0001:00000a20       _unload_testKinectAllReceiver_optimization_info 10001a20 f   testKinectAllReceiver_sfun.obj
 0001:00000a60       _sf_c1_testKinectAllReceiver_get_eml_resolved_functions_info 10001a60 f   c1_testKinectAllReceiver.obj
 0001:000018b0       _sf_c1_testKinectAllReceiver_get_check_sum 100028b0 f   c1_testKinectAllReceiver.obj
 0001:00001910       _sf_c1_testKinectAllReceiver_get_autoinheritance_info 10002910 f   c1_testKinectAllReceiver.obj
 0001:00001e20       _sf_c1_testKinectAllReceiver_third_party_uses_info 10002e20 f   c1_testKinectAllReceiver.obj
 0001:00001e40       _sf_c1_testKinectAllReceiver_updateBuildInfo_args_info 10002e40 f   c1_testKinectAllReceiver.obj
 0001:00001e60       _sf_internal_get_sim_state_c1_testKinectAllReceiver 10002e60 f   c1_testKinectAllReceiver.obj
 0001:00002170       _sf_internal_set_sim_state_c1_testKinectAllReceiver 10003170 f   c1_testKinectAllReceiver.obj
 0001:00002500       _c1_testKinectAllReceiver_method_dispatcher 10003500 f   c1_testKinectAllReceiver.obj
 0001:00005ef0       _sf_c2_testKinectAllReceiver_get_eml_resolved_functions_info 10006ef0 f   c2_testKinectAllReceiver.obj
 0001:000061f0       _sf_c2_testKinectAllReceiver_get_check_sum 100071f0 f   c2_testKinectAllReceiver.obj
 0001:00006250       _sf_c2_testKinectAllReceiver_get_autoinheritance_info 10007250 f   c2_testKinectAllReceiver.obj
 0001:00006350       _sf_c2_testKinectAllReceiver_third_party_uses_info 10007350 f   c2_testKinectAllReceiver.obj
 0001:00006370       _sf_c2_testKinectAllReceiver_updateBuildInfo_args_info 10007370 f   c2_testKinectAllReceiver.obj
 0001:00006390       _sf_internal_get_sim_state_c2_testKinectAllReceiver 10007390 f   c2_testKinectAllReceiver.obj
 0001:00006620       _sf_internal_set_sim_state_c2_testKinectAllReceiver 10007620 f   c2_testKinectAllReceiver.obj
 0001:00006ac0       _c2_testKinectAllReceiver_method_dispatcher 10007ac0 f   c2_testKinectAllReceiver.obj
 0001:00008ed0       _sf_process_check_sum_call 10009ed0 f   testKinectAllReceiver_sfun_registry.obj
 0001:00008f00       _sf_process_autoinheritance_call 10009f00 f   testKinectAllReceiver_sfun_registry.obj
 0001:00009040       _sf_process_get_third_party_uses_info_call 1000a040 f   testKinectAllReceiver_sfun_registry.obj
 0001:00009180       _sf_process_get_updateBuildInfo_args_info_call 1000a180 f   testKinectAllReceiver_sfun_registry.obj
 0001:000092c0       _sf_process_get_eml_resolved_functions_info_call 1000a2c0 f   testKinectAllReceiver_sfun_registry.obj
 0001:000093e0       _sf_mex_unlock_call        1000a3e0 f   testKinectAllReceiver_sfun_registry.obj
 0001:00009470       _sf_machine_global_initializer_called 1000a470 f   testKinectAllReceiver_sfun_registry.obj
 0001:00009490       _sf_machine_global_method_dispatcher 1000a490 f   testKinectAllReceiver_sfun_registry.obj
 0001:000094d0       _sf_machine_global_terminator 1000a4d0 f   testKinectAllReceiver_sfun_registry.obj
 0001:00009510       _sf_register_machine_exported_symbols 1000a510 f   testKinectAllReceiver_sfun_registry.obj
 0001:00009530       _callCustomFcn             1000a530 f   testKinectAllReceiver_sfun_registry.obj
 0001:00009540       _sf_machine_global_initializer 1000a540 f   testKinectAllReceiver_sfun_registry.obj
 0001:000095b0       _mdlGetSimState            1000a5b0 f   testKinectAllReceiver_sfun_registry.obj
 0001:00009610       _mdlSetSimState            1000a610 f   testKinectAllReceiver_sfun_registry.obj
 0001:00009640       __ssSetStateAbsTol         1000a640 f   testKinectAllReceiver_sfun_registry.obj
 0001:000096e0       __ssGetAbsTol              1000a6e0 f   testKinectAllReceiver_sfun_registry.obj
 0001:00009730       __ssSetInputPortMatrixDimensions 1000a730 f   testKinectAllReceiver_sfun_registry.obj
 0001:000097e0       __ssSetOutputPortMatrixDimensions 1000a7e0 f   testKinectAllReceiver_sfun_registry.obj
 0001:00009890       __ssSetInputPortVectorDimension 1000a890 f   testKinectAllReceiver_sfun_registry.obj
 0001:00009910       __ssSetOutputPortVectorDimension 1000a910 f   testKinectAllReceiver_sfun_registry.obj
 0001:00009990       _ssIsRunTimeParamTunable   1000a990 f   testKinectAllReceiver_sfun_registry.obj
 0001:000099f0       _ssGetSFuncBlockHandle     1000a9f0 f   testKinectAllReceiver_sfun_registry.obj
 0001:00009a40       __ssGetCurrentInputPortWidth 1000aa40 f   testKinectAllReceiver_sfun_registry.obj
 0001:00009b10       __ssGetCurrentOutputPortWidth 1000ab10 f   testKinectAllReceiver_sfun_registry.obj
 0001:00009be0       __ssGetCallSystemNumFcnCallDestinations 1000abe0 f   testKinectAllReceiver_sfun_registry.obj
 0001:00009c40       _ssWarning                 1000ac40 f   testKinectAllReceiver_sfun_registry.obj
 0001:00009d20       _ssGetIsZeroCrossControlDisabled 1000ad20 f   testKinectAllReceiver_sfun_registry.obj
 0001:00009d80       _ssSetIsInputPortUsedForContZcSignal 1000ad80 f   testKinectAllReceiver_sfun_registry.obj
 0001:00009dd0       _ssSetZcSignalIsZcElementDisc 1000add0 f   testKinectAllReceiver_sfun_registry.obj
 0001:00009e50       _ssSetZcSignalName         1000ae50 f   testKinectAllReceiver_sfun_registry.obj
 0001:00009ea0       _ssSetZcSignalWidth        1000aea0 f   testKinectAllReceiver_sfun_registry.obj
 0001:00009ef0       _ssSetZcSignalZcEventType  1000aef0 f   testKinectAllReceiver_sfun_registry.obj
 0001:00009f40       _ssSetZcSignalType         1000af40 f   testKinectAllReceiver_sfun_registry.obj
 0001:00009f90       _ssSetZcSignalZcTol        1000af90 f   testKinectAllReceiver_sfun_registry.obj
 0001:00009fe0       _ssSetZcSignalNeedsEventNotification 1000afe0 f   testKinectAllReceiver_sfun_registry.obj
 0001:0000a030       _ssCreateAndAddZcSignalInfo 1000b030 f   testKinectAllReceiver_sfun_registry.obj
 0001:0000a090       _ssCloneAndAddZcSignalInfo 1000b090 f   testKinectAllReceiver_sfun_registry.obj
 0001:0000a0f0       _ssGetNumZcSignals         1000b0f0 f   testKinectAllReceiver_sfun_registry.obj
 0001:0000a150       _ssGetZcSignalVector       1000b150 f   testKinectAllReceiver_sfun_registry.obj
 0001:0000a1b0       _ssGetZcSignalZcEvents     1000b1b0 f   testKinectAllReceiver_sfun_registry.obj
 0001:0000a210       _ssGetZcSignalName         1000b210 f   testKinectAllReceiver_sfun_registry.obj
 0001:0000a270       _ssGetZcSignalWidth        1000b270 f   testKinectAllReceiver_sfun_registry.obj
 0001:0000a2d0       _ssGetZcSignalZcEventType  1000b2d0 f   testKinectAllReceiver_sfun_registry.obj
 0001:0000a330       _ssGetZcSignalType         1000b330 f   testKinectAllReceiver_sfun_registry.obj
 0001:0000a390       _ssGetZcSignalZcTol        1000b390 f   testKinectAllReceiver_sfun_registry.obj
 0001:0000a3f0       _ssGetZcSignalNeedsEventNotification 1000b3f0 f   testKinectAllReceiver_sfun_registry.obj
 0001:0000a450       _ssGetZcSignalIsZcElementDisc 1000b450 f   testKinectAllReceiver_sfun_registry.obj
 0001:0000a4d0       _ssGetIsInputPortElementContinuous 1000b4d0 f   testKinectAllReceiver_sfun_registry.obj
 0001:0000a550       __ssGetInputPortSignalPtrsFcn 1000b550 f   testKinectAllReceiver_sfun_registry.obj
 0001:0000a750       __ssGetInputPortSignalFcn  1000b750 f   testKinectAllReceiver_sfun_registry.obj
 0001:0000a8e0       __ssSetInputPortDirectFeedThroughFcn 1000b8e0 f   testKinectAllReceiver_sfun_registry.obj
 0001:0000aa10       __ssSetInputPortReusableFcn 1000ba10 f   testKinectAllReceiver_sfun_registry.obj
 0001:0000aaa0       __ssSetOutputPortReusableFcn 1000baa0 f   testKinectAllReceiver_sfun_registry.obj
 0001:0000ab30       _ssGetDTypeIdFromMxArray   1000bb30 f   testKinectAllReceiver_sfun_registry.obj
 0001:0000ac20       _ssWriteRTWStr             1000bc20 f   testKinectAllReceiver_sfun_registry.obj
 0001:0000ac60       _ssWriteRTWMxVectParam     1000bc60 f   testKinectAllReceiver_sfun_registry.obj
 0001:0000aca0       _ssWriteRTWMx2dMatParam    1000bca0 f   testKinectAllReceiver_sfun_registry.obj
 0001:0000ace0       _ssWriteRTWNameValuePair   1000bce0 f   testKinectAllReceiver_sfun_registry.obj
 0001:0000b050       _ssWriteRTWParameters      1000c050 f   testKinectAllReceiver_sfun_registry.obj
 0001:0000b3f0       _ssWriteRTWParamSettings   1000c3f0 f   testKinectAllReceiver_sfun_registry.obj
 0001:0000b8a0       _ssWriteRTWWorkVect        1000c8a0 f   testKinectAllReceiver_sfun_registry.obj
 0001:0000bc30       _mexFunction               1000cc30 f   testKinectAllReceiver_sfun_registry.obj
 0001:0000d980       _ProcessMexSfunctionEveryCall 1000e980 f   testKinectAllReceiver_sfun_registry.obj
 0001:0000da9e       _sf_debug_set_machine_data_thresholds 1000ea9e f   sf_runtime:sf_runtime.dll
 0001:0000daa4       _sf_debug_set_machine_event_thresholds 1000eaa4 f   sf_runtime:sf_runtime.dll
 0001:0000daaa       _sf_debug_initialize_machine 1000eaaa f   sf_runtime:sf_runtime.dll
 0001:0000dab0       _sf_load_rtw_optimization_info 1000eab0 f   sf_runtime:sf_runtime.dll
 0001:0000dab6       _sf_mex_emlrtNameCapturePostProcessR2012a 1000eab6 f   sf_runtime:sf_runtime.dll
 0001:0000dabc       _sf_mex_assign             1000eabc f   sf_runtime:sf_runtime.dll
 0001:0000dac2       _sf_mex_createstruct       1000eac2 f   sf_runtime:sf_runtime.dll
 0001:0000dac8       _sf_mex_destroy            1000eac8 f   sf_runtime:sf_runtime.dll
 0001:0000dace       _sf_mex_duplicatearraysafe 1000eace f   sf_runtime:sf_runtime.dll
 0001:0000dad4       _sf_mex_createcellmatrix   1000ead4 f   sf_runtime:sf_runtime.dll
 0001:0000dada       _sf_mex_addfield           1000eada f   sf_runtime:sf_runtime.dll
 0001:0000dae0       _sf_mex_create             1000eae0 f   sf_runtime:sf_runtime.dll
 0001:0000dae6       _sf_mex_error_message      1000eae6 f   sf_runtime:sf_runtime.dll
 0001:0000daec       _sf_mex_call_matlab        1000eaec f   sf_runtime:sf_runtime.dll
 0001:0000daf2       _sf_mex_setcell            1000eaf2 f   sf_runtime:sf_runtime.dll
 0001:0000daf8       _sf_mex_decode_encoded_mx_struct_array 1000eaf8 f   sf_runtime:sf_runtime.dll
 0001:0000dafe       _sf_mex_getcell            1000eafe f   sf_runtime:sf_runtime.dll
 0001:0000db04       _sf_mex_dup                1000eb04 f   sf_runtime:sf_runtime.dll
 0001:0000db0a       _sf_mex_import             1000eb0a f   sf_runtime:sf_runtime.dll
 0001:0000db10       _sf_set_rtw_dwork_info     1000eb10 f   sf_runtime:sf_runtime.dll
 0001:0000db16       _sf_mark_chart_reusable_outputs 1000eb16 f   sf_runtime:sf_runtime.dll
 0001:0000db1c       _sf_mark_chart_expressionable_inputs 1000eb1c f   sf_runtime:sf_runtime.dll
 0001:0000db22       _sf_update_buildInfo       1000eb22 f   sf_runtime:sf_runtime.dll
 0001:0000db28       _sf_rtw_info_uint_prop     1000eb28 f   sf_runtime:sf_runtime.dll
 0001:0000db2e       _sf_is_chart_inlinable     1000eb2e f   sf_runtime:sf_runtime.dll
 0001:0000db34       _sim_mode_is_external      1000eb34 f   sf_runtime:sf_runtime.dll
 0001:0000db3a       _sim_mode_is_rtw_gen       1000eb3a f   sf_runtime:sf_runtime.dll
 0001:0000db40       _sf_debug_reset_current_state_configuration 1000eb40 f   sf_runtime:sf_runtime.dll
 0001:0000db46       _sf_debug_set_instance_data_value_ptr 1000eb46 f   sf_runtime:sf_runtime.dll
 0001:0000db4c       _sf_debug_set_chart_data_compiled_props 1000eb4c f   sf_runtime:sf_runtime.dll
 0001:0000db52       _cv_script_init_mcdc       1000eb52 f   sf_runtime:sf_runtime.dll
 0001:0000db58       _cv_script_init_if         1000eb58 f   sf_runtime:sf_runtime.dll
 0001:0000db5e       _cv_script_init_fcn        1000eb5e f   sf_runtime:sf_runtime.dll
 0001:0000db64       _cv_script_init_script     1000eb64 f   sf_runtime:sf_runtime.dll
 0001:0000db6a       _cv_eml_init_fcn           1000eb6a f   sf_runtime:sf_runtime.dll
 0001:0000db70       _cv_eml_init_script        1000eb70 f   sf_runtime:sf_runtime.dll
 0001:0000db76       _sf_debug_cv_init_trans    1000eb76 f   sf_runtime:sf_runtime.dll
 0001:0000db7c       _sf_debug_cv_init_state    1000eb7c f   sf_runtime:sf_runtime.dll
 0001:0000db82       _sf_debug_cv_init_chart    1000eb82 f   sf_runtime:sf_runtime.dll
 0001:0000db88       _sf_debug_set_chart_decomposition 1000eb88 f   sf_runtime:sf_runtime.dll
 0001:0000db8e       _sf_debug_set_chart_substate_count 1000eb8e f   sf_runtime:sf_runtime.dll
 0001:0000db94       _sf_debug_set_chart_state_info 1000eb94 f   sf_runtime:sf_runtime.dll
 0001:0000db9a       _sf_debug_set_chart_data_props 1000eb9a f   sf_runtime:sf_runtime.dll
 0001:0000dba0       _sf_debug_set_chart_event_thresholds 1000eba0 f   sf_runtime:sf_runtime.dll
 0001:0000dba6       _sf_debug_set_chart_disable_implicit_casting 1000eba6 f   sf_runtime:sf_runtime.dll
 0001:0000dbac       _sf_debug_initialize_chart 1000ebac f   sf_runtime:sf_runtime.dll
 0001:0000dbb2       _sf_debug_set_script_translation 1000ebb2 f   sf_runtime:sf_runtime.dll
 0001:0000dbb8       _sf_debug_get_script_id    1000ebb8 f   sf_runtime:sf_runtime.dll
 0001:0000dbbe       _sf_get_time               1000ebbe f   sf_runtime:sf_runtime.dll
 0001:0000dbc4       _sf_debug_data_range_wrapper 1000ebc4 f   sf_runtime:sf_runtime.dll
 0001:0000dbca       _sf_debug_check_for_state_inconsistency 1000ebca f   sf_runtime:sf_runtime.dll
 0001:0000dbd0       _sf_debug_symbol_scope_pop 1000ebd0 f   sf_runtime:sf_runtime.dll
 0001:0000dbd6       _sf_debug_sub_assign_size_check_nd 1000ebd6 f   sf_runtime:sf_runtime.dll
 0001:0000dbdc       _sf_debug_eml_data_array_bounds_error_check 1000ebdc f   sf_runtime:sf_runtime.dll
 0001:0000dbe2       _cv_script_eval            1000ebe2 f   sf_runtime:sf_runtime.dll
 0001:0000dbe8       _sf_mex_call_debug         1000ebe8 f   sf_runtime:sf_runtime.dll
 0001:0000dbee       _eml_debug_line_call       1000ebee f   sf_runtime:sf_runtime.dll
 0001:0000dbf4       _cv_eml_eval               1000ebf4 f   sf_runtime:sf_runtime.dll
 0001:0000dbfa       _sf_debug_symbol_scope_add_eml 1000ebfa f   sf_runtime:sf_runtime.dll
 0001:0000dc00       _sf_debug_symbol_scope_add_eml_dyn_importable 1000ec00 f   sf_runtime:sf_runtime.dll
 0001:0000dc06       _sf_debug_symbol_scope_add_eml_importable 1000ec06 f   sf_runtime:sf_runtime.dll
 0001:0000dc0c       _sf_debug_symbol_scope_push_eml 1000ec0c f   sf_runtime:sf_runtime.dll
 0001:0000dc12       _sf_debug_call             1000ec12 f   sf_runtime:sf_runtime.dll
 0001:0000dc18       _sf_debug_symbol_scope_push 1000ec18 f   sf_runtime:sf_runtime.dll
 0001:0000dc1e       _sf_mex_import_vs          1000ec1e f   sf_runtime:sf_runtime.dll
 0001:0000dc24       _sf_clear_rtw_identifier   1000ec24 f   sf_runtime:sf_runtime.dll
 0001:0000dc2a       _sf_debug_animate          1000ec2a f   sf_runtime:sf_runtime.dll
 0001:0000dc30       _sf_debug_set_honor_breakpoints 1000ec30 f   sf_runtime:sf_runtime.dll
 0001:0000dc36       _sf_debug_set_animation    1000ec36 f   sf_runtime:sf_runtime.dll
 0001:0000dc3c       _sf_debug_get_animation    1000ec3c f   sf_runtime:sf_runtime.dll
 0001:0000dc42       _sf_mark_output_events_with_multiple_callers 1000ec42 f   sf_runtime:sf_runtime.dll
 0001:0000dc48       _sf_debug_set_chart_state_substate_count 1000ec48 f   sf_runtime:sf_runtime.dll
 0001:0000dc4e       _sf_debug_set_chart_substate_index 1000ec4e f   sf_runtime:sf_runtime.dll
 0001:0000dc54       _sf_call_output_fcn_enable 1000ec54 f   sf_runtime:sf_runtime.dll
 0001:0000dc5a       _sf_call_output_fcn_disable 1000ec5a f   sf_runtime:sf_runtime.dll
 0001:0000dc60       _sf_debug_unset_instance_data_value_ptr 1000ec60 f   sf_runtime:sf_runtime.dll
 0001:0000dc66       _sf_call_output_fcn_call   1000ec66 f   sf_runtime:sf_runtime.dll
 0001:0000dc6c       _sf_debug_symbol_scope_add_importable 1000ec6c f   sf_runtime:sf_runtime.dll
 0001:0000dc72       _sf_debug_terminate        1000ec72 f   sf_runtime:sf_runtime.dll
 0001:0000dc78       _sf_debug_create_debug_instance_struct 1000ec78 f   sf_runtime:sf_runtime.dll
 0001:0000dc7e       _sf_debug_api              1000ec7e f   sf_runtime:sf_runtime.dll
 0001:0000dc84       _callMdlMethodAndReportError 1000ec84 f   sf_runtime:sf_runtime.dll
 0001:0000dc8a       _call_sf_machine_global_method_dispatcher 1000ec8a f   sf_runtime:sf_runtime.dll
 0001:0000dc90       _sf_clear_error_manager_info 1000ec90 f   sf_runtime:sf_runtime.dll
 0001:0000dc96       _sf_mex_error_direct_call  1000ec96 f   sf_runtime:sf_runtime.dll
 0001:0000dc9c       _mxGetScalar               1000ec9c f   libmx:libmx.dll
 0001:0000dca2       _mxGetPr                   1000eca2 f   libmx:libmx.dll
 0001:0000dca8       _mxCreateDoubleMatrix_730  1000eca8 f   libmx:libmx.dll
 0001:0000dcae       _mxGetString_730           1000ecae f   libmx:libmx.dll
 0001:0000dcb4       _mxIsChar                  1000ecb4 f   libmx:libmx.dll
 0001:0000dcba       _mxDestroyArray            1000ecba f   libmx:libmx.dll
 0001:0000dcc0       _mxDuplicateArray          1000ecc0 f   libmx:libmx.dll
 0001:0000dcc6       _mxCreateDoubleScalar      1000ecc6 f   libmx:libmx.dll
 0001:0000dccc       _mxSetField_730            1000eccc f   libmx:libmx.dll
 0001:0000dcd2       _mxCreateString            1000ecd2 f   libmx:libmx.dll
 0001:0000dcd8       _mxCreateStructMatrix_730  1000ecd8 f   libmx:libmx.dll
 0001:0000dcde       _mxCreateCellMatrix_730    1000ecde f   libmx:libmx.dll
 0001:0000dce4       _mxGetClassID              1000ece4 f   libmx:libmx.dll
 0001:0000dcea       _mxIsNumeric               1000ecea f   libmx:libmx.dll
 0001:0000dcf0       _mxIsComplex               1000ecf0 f   libmx:libmx.dll
 0001:0000dcf6       _mxGetN                    1000ecf6 f   libmx:libmx.dll
 0001:0000dcfc       _mxGetM                    1000ecfc f   libmx:libmx.dll
 0001:0000dd02       _mxCalloc                  1000ed02 f   libmx:libmx.dll
 0001:0000dd08       _mexMakeArrayPersistent    1000ed08 f   libmex:libmex.dll
 0001:0000dd0e       _mexUnlock                 1000ed0e f   libmex:libmex.dll
 0001:0000dd14       _mexIsLocked               1000ed14 f   libmex:libmex.dll
 0001:0000dd1a       _mexWarnMsgTxt             1000ed1a f   libmex:libmex.dll
 0001:0000dd20       _mexCallMATLAB             1000ed20 f   libmex:libmex.dll
 0001:0000dd26       _mexErrMsgTxt              1000ed26 f   libmex:libmex.dll
 0001:0000dd2c       _mexLock                   1000ed2c f   libmex:libmex.dll
 0001:0000dd32       _utMalloc                  1000ed32 f   libut:libut.dll
 0001:0000dd38       _utFree                    1000ed38 f   libut:libut.dll
 0001:0000dd3e       _muDoubleScalarAbs         1000ed3e f   libmwmathutil:libmwmathutil.dll
 0001:0000dd44       _strcmp                    1000ed44 f   MSVCRT:MSVCR100.dll
 0001:0000dd50       @__security_check_cookie@4 1000ed50 f   MSVCRT:secchk.obj
 0001:0000dd60       _strlen                    1000ed60 f   MSVCRT:MSVCR100.dll
 0001:0000dd66       _memset                    1000ed66 f   MSVCRT:MSVCR100.dll
 0001:0000dd70       __chkstk                   1000ed70 f   MSVCRT:chkstk.obj
 0001:0000dd70       __alloca_probe             1000ed70     MSVCRT:chkstk.obj
 0001:0000dda0       __ftol2_sse                1000eda0 f   MSVCRT:ftol2.obj
 0001:0000dda9       __ftol2_pentium4           1000eda9 f   MSVCRT:ftol2.obj
 0001:0000ddbc       __ftol2_sse_excpt          1000edbc f   MSVCRT:ftol2.obj
 0001:0000ddd6       __ftol2                    1000edd6 f   MSVCRT:ftol2.obj
 0001:0000de4c       _free                      1000ee4c f   MSVCRT:MSVCR100.dll
 0001:0000de52       _sprintf                   1000ee52 f   MSVCRT:MSVCR100.dll
 0001:0000de58       _malloc                    1000ee58 f   MSVCRT:MSVCR100.dll
 0001:0000de5e       _strcat                    1000ee5e f   MSVCRT:MSVCR100.dll
 0001:0000de64       _memcpy                    1000ee64 f   MSVCRT:MSVCR100.dll
 0001:0000de6a       _NtCurrentTeb              1000ee6a f i MSVCRT:crtdll.obj
 0001:0000debf       __CRT_INIT@12              1000eebf f   MSVCRT:crtdll.obj
 0001:0000e1df       __DllMainCRTStartup@12     1000f1df f   MSVCRT:crtdll.obj
 0001:0000e202       ___report_gsfailure        1000f202 f   MSVCRT:gs_report.obj
 0001:0000e308       ___sse2_available_init     1000f308 f   MSVCRT:cpu_disp.obj
 0001:0000e318       ___clean_type_info_names   1000f318 f   MSVCRT:tncleanup.obj
 0001:0000e324       __onexit                   1000f324 f   MSVCRT:atonexit.obj
 0001:0000e3c5       _atexit                    1000f3c5 f   MSVCRT:atonexit.obj
 0001:0000e3dc       __RTC_Initialize           1000f3dc f   MSVCRT:_initsect_.obj
 0001:0000e402       __RTC_Terminate            1000f402 f   MSVCRT:_initsect_.obj
 0001:0000e428       __malloc_crt               1000f428 f   MSVCRT:MSVCR100.dll
 0001:0000e42e       __encoded_null             1000f42e f   MSVCRT:MSVCR100.dll
 0001:0000e440       __ValidateImageBase        1000f440 f   MSVCRT:pesect.obj
 0001:0000e480       __FindPESection            1000f480 f   MSVCRT:pesect.obj
 0001:0000e4d0       __IsNonwritableInCurrentImage 1000f4d0 f   MSVCRT:pesect.obj
 0001:0000e58c       __initterm                 1000f58c f   MSVCRT:MSVCR100.dll
 0001:0000e592       __initterm_e               1000f592 f   MSVCRT:MSVCR100.dll
 0001:0000e598       __amsg_exit                1000f598 f   MSVCRT:MSVCR100.dll
 0001:0000e59e       ___CppXcptFilter           1000f59e f   MSVCRT:MSVCR100.dll
 0001:0000e5a4       _DllMain@12                1000f5a4 f   MSVCRT:dllmain.obj
 0001:0000e5d0       __SEH_prolog4              1000f5d0 f   MSVCRT:sehprolg4.obj
 0001:0000e615       __SEH_epilog4              1000f615 f   MSVCRT:sehprolg4.obj
 0001:0000e629       __except_handler4          1000f629 f   MSVCRT:chandler4gs.obj
 0001:0000e64e       ___security_init_cookie    1000f64e f   MSVCRT:gs_support.obj
 0001:0000e6ea       __crt_debugger_hook        1000f6ea f   MSVCRT:MSVCR100.dll
 0001:0000e6f0       ___clean_type_info_names_internal 1000f6f0 f   MSVCRT:MSVCR100.dll
 0001:0000e6f6       __unlock                   1000f6f6 f   MSVCRT:MSVCR100.dll
 0001:0000e6fc       ___dllonexit               1000f6fc f   MSVCRT:MSVCR100.dll
 0001:0000e702       __lock                     1000f702 f   MSVCRT:MSVCR100.dll
 0001:0000e708       __except_handler4_common   1000f708 f   MSVCRT:MSVCR100.dll
 0001:0000e70e       _EncodePointer@4           1000f70e f   kernel32:KERNEL32.dll
 0001:0000e714       _DecodePointer@4           1000f714 f   kernel32:KERNEL32.dll
 0001:0000e71a       _InterlockedExchange@8     1000f71a f   kernel32:KERNEL32.dll
 0001:0000e720       _Sleep@4                   1000f720 f   kernel32:KERNEL32.dll
 0001:0000e726       _InterlockedCompareExchange@12 1000f726 f   kernel32:KERNEL32.dll
 0001:0000e72c       _TerminateProcess@8        1000f72c f   kernel32:KERNEL32.dll
 0001:0000e732       _GetCurrentProcess@0       1000f732 f   kernel32:KERNEL32.dll
 0001:0000e738       _UnhandledExceptionFilter@4 1000f738 f   kernel32:KERNEL32.dll
 0001:0000e73e       _SetUnhandledExceptionFilter@4 1000f73e f   kernel32:KERNEL32.dll
 0001:0000e744       _IsDebuggerPresent@0       1000f744 f   kernel32:KERNEL32.dll
 0001:0000e74a       _IsProcessorFeaturePresent@4 1000f74a f   kernel32:KERNEL32.dll
 0001:0000e750       _DisableThreadLibraryCalls@4 1000f750 f   kernel32:KERNEL32.dll
 0001:0000e756       _QueryPerformanceCounter@4 1000f756 f   kernel32:KERNEL32.dll
 0001:0000e75c       _GetTickCount@0            1000f75c f   kernel32:KERNEL32.dll
 0001:0000e762       _GetCurrentThreadId@0      1000f762 f   kernel32:KERNEL32.dll
 0001:0000e768       _GetCurrentProcessId@0     1000f768 f   kernel32:KERNEL32.dll
 0001:0000e76e       _GetSystemTimeAsFileTime@4 1000f76e f   kernel32:KERNEL32.dll
 0002:00000000       __imp__GetCurrentProcessId@0 10010000     kernel32:KERNEL32.dll
 0002:00000004       __imp__GetCurrentThreadId@0 10010004     kernel32:KERNEL32.dll
 0002:00000008       __imp__GetTickCount@0      10010008     kernel32:KERNEL32.dll
 0002:0000000c       __imp__QueryPerformanceCounter@4 1001000c     kernel32:KERNEL32.dll
 0002:00000010       __imp__DisableThreadLibraryCalls@4 10010010     kernel32:KERNEL32.dll
 0002:00000014       __imp__IsProcessorFeaturePresent@4 10010014     kernel32:KERNEL32.dll
 0002:00000018       __imp__IsDebuggerPresent@0 10010018     kernel32:KERNEL32.dll
 0002:0000001c       __imp__SetUnhandledExceptionFilter@4 1001001c     kernel32:KERNEL32.dll
 0002:00000020       __imp__UnhandledExceptionFilter@4 10010020     kernel32:KERNEL32.dll
 0002:00000024       __imp__GetCurrentProcess@0 10010024     kernel32:KERNEL32.dll
 0002:00000028       __imp__TerminateProcess@8  10010028     kernel32:KERNEL32.dll
 0002:0000002c       __imp__InterlockedCompareExchange@12 1001002c     kernel32:KERNEL32.dll
 0002:00000030       __imp__Sleep@4             10010030     kernel32:KERNEL32.dll
 0002:00000034       __imp__InterlockedExchange@8 10010034     kernel32:KERNEL32.dll
 0002:00000038       __imp__DecodePointer@4     10010038     kernel32:KERNEL32.dll
 0002:0000003c       __imp__EncodePointer@4     1001003c     kernel32:KERNEL32.dll
 0002:00000040       __imp__GetSystemTimeAsFileTime@4 10010040     kernel32:KERNEL32.dll
 0002:00000044       \177KERNEL32_NULL_THUNK_DATA 10010044     kernel32:KERNEL32.dll
 0002:00000048       __imp___except_handler4_common 10010048     MSVCRT:MSVCR100.dll
 0002:0000004c       __imp___onexit             1001004c     MSVCRT:MSVCR100.dll
 0002:00000050       __imp___lock               10010050     MSVCRT:MSVCR100.dll
 0002:00000054       __imp____dllonexit         10010054     MSVCRT:MSVCR100.dll
 0002:00000058       __imp___unlock             10010058     MSVCRT:MSVCR100.dll
 0002:0000005c       __imp____clean_type_info_names_internal 1001005c     MSVCRT:MSVCR100.dll
 0002:00000060       __imp___crt_debugger_hook  10010060     MSVCRT:MSVCR100.dll
 0002:00000064       __imp____CppXcptFilter     10010064     MSVCRT:MSVCR100.dll
 0002:00000068       __imp___amsg_exit          10010068     MSVCRT:MSVCR100.dll
 0002:0000006c       __imp___initterm_e         1001006c     MSVCRT:MSVCR100.dll
 0002:00000070       __imp___initterm           10010070     MSVCRT:MSVCR100.dll
 0002:00000074       __imp___encoded_null       10010074     MSVCRT:MSVCR100.dll
 0002:00000078       __imp___malloc_crt         10010078     MSVCRT:MSVCR100.dll
 0002:0000007c       __imp__memcpy              1001007c     MSVCRT:MSVCR100.dll
 0002:00000080       __imp__strcat              10010080     MSVCRT:MSVCR100.dll
 0002:00000084       __imp__malloc              10010084     MSVCRT:MSVCR100.dll
 0002:00000088       __imp__sprintf             10010088     MSVCRT:MSVCR100.dll
 0002:0000008c       __imp__free                1001008c     MSVCRT:MSVCR100.dll
 0002:00000090       __imp__memset              10010090     MSVCRT:MSVCR100.dll
 0002:00000094       __imp__strlen              10010094     MSVCRT:MSVCR100.dll
 0002:00000098       __imp__strcmp              10010098     MSVCRT:MSVCR100.dll
 0002:0000009c       \177MSVCR100_NULL_THUNK_DATA 1001009c     MSVCRT:MSVCR100.dll
 0002:000000a0       __imp__mexCallMATLAB       100100a0     libmex:libmex.dll
 0002:000000a4       __imp__mexUnlock           100100a4     libmex:libmex.dll
 0002:000000a8       __imp__mexLock             100100a8     libmex:libmex.dll
 0002:000000ac       __imp__mexErrMsgTxt        100100ac     libmex:libmex.dll
 0002:000000b0       __imp__mexMakeArrayPersistent 100100b0     libmex:libmex.dll
 0002:000000b4       __imp__mexWarnMsgTxt       100100b4     libmex:libmex.dll
 0002:000000b8       __imp__mexIsLocked         100100b8     libmex:libmex.dll
 0002:000000bc       \177libmex_NULL_THUNK_DATA 100100bc     libmex:libmex.dll
 0002:000000c0       __imp__muDoubleScalarAbs   100100c0     libmwmathutil:libmwmathutil.dll
 0002:000000c4       \177libmwmathutil_NULL_THUNK_DATA 100100c4     libmwmathutil:libmwmathutil.dll
 0002:000000c8       __imp__mxCalloc            100100c8     libmx:libmx.dll
 0002:000000cc       __imp__mxGetM              100100cc     libmx:libmx.dll
 0002:000000d0       __imp__mxGetN              100100d0     libmx:libmx.dll
 0002:000000d4       __imp__mxIsComplex         100100d4     libmx:libmx.dll
 0002:000000d8       __imp__mxIsNumeric         100100d8     libmx:libmx.dll
 0002:000000dc       __imp__mxGetClassID        100100dc     libmx:libmx.dll
 0002:000000e0       __imp__mxCreateCellMatrix_730 100100e0     libmx:libmx.dll
 0002:000000e4       __imp__mxCreateStructMatrix_730 100100e4     libmx:libmx.dll
 0002:000000e8       __imp__mxCreateString      100100e8     libmx:libmx.dll
 0002:000000ec       __imp__mxSetField_730      100100ec     libmx:libmx.dll
 0002:000000f0       __imp__mxCreateDoubleScalar 100100f0     libmx:libmx.dll
 0002:000000f4       __imp__mxDuplicateArray    100100f4     libmx:libmx.dll
 0002:000000f8       __imp__mxDestroyArray      100100f8     libmx:libmx.dll
 0002:000000fc       __imp__mxIsChar            100100fc     libmx:libmx.dll
 0002:00000100       __imp__mxGetString_730     10010100     libmx:libmx.dll
 0002:00000104       __imp__mxCreateDoubleMatrix_730 10010104     libmx:libmx.dll
 0002:00000108       __imp__mxGetScalar         10010108     libmx:libmx.dll
 0002:0000010c       __imp__mxGetPr             1001010c     libmx:libmx.dll
 0002:00000110       \177libmx_NULL_THUNK_DATA  10010110     libmx:libmx.dll
 0002:00000114       __imp__utMalloc            10010114     libut:libut.dll
 0002:00000118       __imp__utFree              10010118     libut:libut.dll
 0002:0000011c       \177libut_NULL_THUNK_DATA  1001011c     libut:libut.dll
 0002:00000120       __imp__sf_debug_set_chart_substate_index 10010120     sf_runtime:sf_runtime.dll
 0002:00000124       __imp__sf_call_output_fcn_enable 10010124     sf_runtime:sf_runtime.dll
 0002:00000128       __imp__sf_call_output_fcn_disable 10010128     sf_runtime:sf_runtime.dll
 0002:0000012c       __imp__sf_debug_unset_instance_data_value_ptr 1001012c     sf_runtime:sf_runtime.dll
 0002:00000130       __imp__sf_call_output_fcn_call 10010130     sf_runtime:sf_runtime.dll
 0002:00000134       __imp__sf_debug_symbol_scope_add_importable 10010134     sf_runtime:sf_runtime.dll
 0002:00000138       __imp__sf_mex_dup          10010138     sf_runtime:sf_runtime.dll
 0002:0000013c       __imp__sf_debug_set_animation 1001013c     sf_runtime:sf_runtime.dll
 0002:00000140       __imp__sf_debug_api        10010140     sf_runtime:sf_runtime.dll
 0002:00000144       __imp__callMdlMethodAndReportError 10010144     sf_runtime:sf_runtime.dll
 0002:00000148       __imp__call_sf_machine_global_method_dispatcher 10010148     sf_runtime:sf_runtime.dll
 0002:0000014c       __imp__sf_clear_error_manager_info 1001014c     sf_runtime:sf_runtime.dll
 0002:00000150       __imp__sf_mex_error_direct_call 10010150     sf_runtime:sf_runtime.dll
 0002:00000154       __imp__sf_debug_set_honor_breakpoints 10010154     sf_runtime:sf_runtime.dll
 0002:00000158       __imp__sf_mex_import       10010158     sf_runtime:sf_runtime.dll
 0002:0000015c       __imp__sf_debug_animate    1001015c     sf_runtime:sf_runtime.dll
 0002:00000160       __imp__sf_clear_rtw_identifier 10010160     sf_runtime:sf_runtime.dll
 0002:00000164       __imp__sf_mex_import_vs    10010164     sf_runtime:sf_runtime.dll
 0002:00000168       __imp__sf_debug_symbol_scope_push 10010168     sf_runtime:sf_runtime.dll
 0002:0000016c       __imp__sf_debug_set_chart_state_substate_count 1001016c     sf_runtime:sf_runtime.dll
 0002:00000170       __imp__sf_debug_symbol_scope_push_eml 10010170     sf_runtime:sf_runtime.dll
 0002:00000174       __imp__sf_debug_symbol_scope_add_eml_importable 10010174     sf_runtime:sf_runtime.dll
 0002:00000178       __imp__sf_debug_symbol_scope_add_eml_dyn_importable 10010178     sf_runtime:sf_runtime.dll
 0002:0000017c       __imp__sf_debug_symbol_scope_add_eml 1001017c     sf_runtime:sf_runtime.dll
 0002:00000180       __imp__cv_eml_eval         10010180     sf_runtime:sf_runtime.dll
 0002:00000184       __imp__eml_debug_line_call 10010184     sf_runtime:sf_runtime.dll
 0002:00000188       __imp__sf_mex_call_debug   10010188     sf_runtime:sf_runtime.dll
 0002:0000018c       __imp__cv_script_eval      1001018c     sf_runtime:sf_runtime.dll
 0002:00000190       __imp__sf_debug_eml_data_array_bounds_error_check 10010190     sf_runtime:sf_runtime.dll
 0002:00000194       __imp__sf_debug_sub_assign_size_check_nd 10010194     sf_runtime:sf_runtime.dll
 0002:00000198       __imp__sf_debug_symbol_scope_pop 10010198     sf_runtime:sf_runtime.dll
 0002:0000019c       __imp__sf_debug_check_for_state_inconsistency 1001019c     sf_runtime:sf_runtime.dll
 0002:000001a0       __imp__sf_debug_data_range_wrapper 100101a0     sf_runtime:sf_runtime.dll
 0002:000001a4       __imp__sf_get_time         100101a4     sf_runtime:sf_runtime.dll
 0002:000001a8       __imp__sf_debug_get_script_id 100101a8     sf_runtime:sf_runtime.dll
 0002:000001ac       __imp__sf_debug_set_script_translation 100101ac     sf_runtime:sf_runtime.dll
 0002:000001b0       __imp__sf_debug_initialize_chart 100101b0     sf_runtime:sf_runtime.dll
 0002:000001b4       __imp__sf_debug_set_chart_disable_implicit_casting 100101b4     sf_runtime:sf_runtime.dll
 0002:000001b8       __imp__sf_debug_set_chart_event_thresholds 100101b8     sf_runtime:sf_runtime.dll
 0002:000001bc       __imp__sf_debug_set_chart_data_props 100101bc     sf_runtime:sf_runtime.dll
 0002:000001c0       __imp__sf_mark_output_events_with_multiple_callers 100101c0     sf_runtime:sf_runtime.dll
 0002:000001c4       __imp__sf_debug_call       100101c4     sf_runtime:sf_runtime.dll
 0002:000001c8       __imp__sf_debug_get_animation 100101c8     sf_runtime:sf_runtime.dll
 0002:000001cc       __imp__sf_debug_set_chart_state_info 100101cc     sf_runtime:sf_runtime.dll
 0002:000001d0       __imp__sf_debug_set_chart_substate_count 100101d0     sf_runtime:sf_runtime.dll
 0002:000001d4       __imp__sf_debug_set_chart_decomposition 100101d4     sf_runtime:sf_runtime.dll
 0002:000001d8       __imp__sf_debug_cv_init_chart 100101d8     sf_runtime:sf_runtime.dll
 0002:000001dc       __imp__sf_debug_cv_init_state 100101dc     sf_runtime:sf_runtime.dll
 0002:000001e0       __imp__sf_debug_cv_init_trans 100101e0     sf_runtime:sf_runtime.dll
 0002:000001e4       __imp__cv_eml_init_script  100101e4     sf_runtime:sf_runtime.dll
 0002:000001e8       __imp__cv_eml_init_fcn     100101e8     sf_runtime:sf_runtime.dll
 0002:000001ec       __imp__cv_script_init_script 100101ec     sf_runtime:sf_runtime.dll
 0002:000001f0       __imp__cv_script_init_fcn  100101f0     sf_runtime:sf_runtime.dll
 0002:000001f4       __imp__cv_script_init_if   100101f4     sf_runtime:sf_runtime.dll
 0002:000001f8       __imp__cv_script_init_mcdc 100101f8     sf_runtime:sf_runtime.dll
 0002:000001fc       __imp__sf_debug_set_chart_data_compiled_props 100101fc     sf_runtime:sf_runtime.dll
 0002:00000200       __imp__sf_debug_set_instance_data_value_ptr 10010200     sf_runtime:sf_runtime.dll
 0002:00000204       __imp__sf_debug_reset_current_state_configuration 10010204     sf_runtime:sf_runtime.dll
 0002:00000208       __imp__sim_mode_is_rtw_gen 10010208     sf_runtime:sf_runtime.dll
 0002:0000020c       __imp__sim_mode_is_external 1001020c     sf_runtime:sf_runtime.dll
 0002:00000210       __imp__sf_is_chart_inlinable 10010210     sf_runtime:sf_runtime.dll
 0002:00000214       __imp__sf_rtw_info_uint_prop 10010214     sf_runtime:sf_runtime.dll
 0002:00000218       __imp__sf_update_buildInfo 10010218     sf_runtime:sf_runtime.dll
 0002:0000021c       __imp__sf_mark_chart_expressionable_inputs 1001021c     sf_runtime:sf_runtime.dll
 0002:00000220       __imp__sf_mark_chart_reusable_outputs 10010220     sf_runtime:sf_runtime.dll
 0002:00000224       __imp__sf_set_rtw_dwork_info 10010224     sf_runtime:sf_runtime.dll
 0002:00000228       __imp__sf_debug_create_debug_instance_struct 10010228     sf_runtime:sf_runtime.dll
 0002:0000022c       __imp__sf_mex_getcell      1001022c     sf_runtime:sf_runtime.dll
 0002:00000230       __imp__sf_mex_decode_encoded_mx_struct_array 10010230     sf_runtime:sf_runtime.dll
 0002:00000234       __imp__sf_mex_setcell      10010234     sf_runtime:sf_runtime.dll
 0002:00000238       __imp__sf_mex_call_matlab  10010238     sf_runtime:sf_runtime.dll
 0002:0000023c       __imp__sf_mex_error_message 1001023c     sf_runtime:sf_runtime.dll
 0002:00000240       __imp__sf_mex_create       10010240     sf_runtime:sf_runtime.dll
 0002:00000244       __imp__sf_mex_addfield     10010244     sf_runtime:sf_runtime.dll
 0002:00000248       __imp__sf_mex_createcellmatrix 10010248     sf_runtime:sf_runtime.dll
 0002:0000024c       __imp__sf_mex_duplicatearraysafe 1001024c     sf_runtime:sf_runtime.dll
 0002:00000250       __imp__sf_mex_destroy      10010250     sf_runtime:sf_runtime.dll
 0002:00000254       __imp__sf_mex_createstruct 10010254     sf_runtime:sf_runtime.dll
 0002:00000258       __imp__sf_mex_assign       10010258     sf_runtime:sf_runtime.dll
 0002:0000025c       __imp__sf_mex_emlrtNameCapturePostProcessR2012a 1001025c     sf_runtime:sf_runtime.dll
 0002:00000260       __imp__sf_load_rtw_optimization_info 10010260     sf_runtime:sf_runtime.dll
 0002:00000264       __imp__sf_debug_initialize_machine 10010264     sf_runtime:sf_runtime.dll
 0002:00000268       __imp__sf_debug_set_machine_event_thresholds 10010268     sf_runtime:sf_runtime.dll
 0002:0000026c       __imp__sf_debug_terminate  1001026c     sf_runtime:sf_runtime.dll
 0002:00000270       __imp__sf_debug_set_machine_data_thresholds 10010270     sf_runtime:sf_runtime.dll
 0002:00000274       \177sf_runtime_NULL_THUNK_DATA 10010274     sf_runtime:sf_runtime.dll
 0002:00000278       ___xc_a                    10010278     MSVCRT:cinitexe.obj
 0002:0000027c       ___xc_z                    1001027c     MSVCRT:cinitexe.obj
 0002:00000280       ___xi_a                    10010280     MSVCRT:cinitexe.obj
 0002:0000028c       ___xi_z                    1001028c     MSVCRT:cinitexe.obj
 0002:00000290       __real@41dda14cae800000    10010290     testKinectAllReceiver_sfun.obj
 0002:00000298       __real@41e2ad3c8a000000    10010298     testKinectAllReceiver_sfun.obj
 0002:000002a0       __real@41ed36ec71e00000    100102a0     testKinectAllReceiver_sfun.obj
 0002:000002a8       __real@41ef78aaebe00000    100102a8     testKinectAllReceiver_sfun.obj
 0002:000002b0       __real@41d187d0c8400000    100102b0     testKinectAllReceiver_sfun.obj
 0002:000002b8       __real@41cff744e8000000    100102b8     testKinectAllReceiver_sfun.obj
 0002:000002c0       __real@41b7e1066f000000    100102c0     testKinectAllReceiver_sfun.obj
 0002:000002c8       __real@41c845d7be800000    100102c8     testKinectAllReceiver_sfun.obj
 0002:000002d0       __real@41e06959de200000    100102d0     testKinectAllReceiver_sfun.obj
 0002:000002d8       __real@41ed274b64800000    100102d8     testKinectAllReceiver_sfun.obj
 0002:000002e0       __real@41e66104a5400000    100102e0     testKinectAllReceiver_sfun.obj
 0002:000002e8       __real@417dc00070000000    100102e8     testKinectAllReceiver_sfun.obj
 0002:000002f0       __real@0000000000000000    100102f0     testKinectAllReceiver_sfun.obj
 0002:000002f8       __real@41d150b09c000000    100102f8     testKinectAllReceiver_sfun.obj
 0002:00000300       __real@41cbdfc206000000    10010300     testKinectAllReceiver_sfun.obj
 0002:00000308       __real@41e58e771b000000    10010308     testKinectAllReceiver_sfun.obj
 0002:00000310       __real@41e84cd63e400000    10010310     testKinectAllReceiver_sfun.obj
 0002:00000318       __real@41e1b5c89aa00000    10010318     c1_testKinectAllReceiver.obj
 0002:00000320       __real@41e79c5a8da00000    10010320     c1_testKinectAllReceiver.obj
 0002:00000328       __real@41e00daeeda00000    10010328     c1_testKinectAllReceiver.obj
 0002:00000330       __real@41d161b20ec00000    10010330     c1_testKinectAllReceiver.obj
 0002:00000338       __real@4070000000000000    10010338     c1_testKinectAllReceiver.obj
 0002:00000340       __real@4024000000000000    10010340     c1_testKinectAllReceiver.obj
 0002:00000348       __real@3ff0000000000000    10010348     c1_testKinectAllReceiver.obj
 0002:00000350       __real@4059400000000000    10010350     c1_testKinectAllReceiver.obj
 0002:00000358       __real@4008000000000000    10010358     c1_testKinectAllReceiver.obj
 0002:00000360       __real@408f380000000000    10010360     c1_testKinectAllReceiver.obj
 0002:00000368       __real@4059000000000000    10010368     c1_testKinectAllReceiver.obj
 0002:00000370       __real@4000000000000000    10010370     c1_testKinectAllReceiver.obj
 0002:00000378       __real@4058c00000000000    10010378     c1_testKinectAllReceiver.obj
 0002:00000380       __real@4022000000000000    10010380     c1_testKinectAllReceiver.obj
 0002:00000388       __real@41e3959ec0400000    10010388     c2_testKinectAllReceiver.obj
 0002:00000390       __real@41c83aecb2800000    10010390     c2_testKinectAllReceiver.obj
 0002:00000398       __real@41e7be5fba800000    10010398     c2_testKinectAllReceiver.obj
 0002:000003a0       __real@41e46edec0c00000    100103a0     c2_testKinectAllReceiver.obj
 0002:000003a8       __real@402e000000000000    100103a8     c2_testKinectAllReceiver.obj
 0002:000003b0       _DYNAMIC_DIMENSION_DEF     100103b0     testKinectAllReceiver_sfun_registry.obj
 0002:000003c0       __ssBadLevel2InputAccessMsg 100103c0     testKinectAllReceiver_sfun_registry.obj
 0002:00000548       __ssBadLevel2DirectFeedMsg 10010548     testKinectAllReceiver_sfun_registry.obj
 0002:00000688       __ssBadLevel2DirectFeedSolutionMsg 10010688     testKinectAllReceiver_sfun_registry.obj
 0002:000006f8       __ssBadLevel2ZeroDirectFeedMsg 100106f8     testKinectAllReceiver_sfun_registry.obj
 0002:00000838       __ssBadLevel2ZeroDirectFeedMsg2 10010838     testKinectAllReceiver_sfun_registry.obj
 0002:00000920       __real@bff0000000000000    10010920     testKinectAllReceiver_sfun_registry.obj
 0002:00000928       __real@4153d65940000000    10010928     testKinectAllReceiver_sfun_registry.obj
 0002:00000930       __pDefaultRawDllMain       10010930     MSVCRT:crtdll.obj
 0002:00000930       __pRawDllMain              10010930     MSVCRT:crtdll.obj
 0002:0000093c       ?ProcessDetach@NativeDll@<CrtImplementationDetails>@@0IB 1001093c     MSVCRT:tncleanup.obj
 0002:00000940       ?ProcessAttach@NativeDll@<CrtImplementationDetails>@@0IB 10010940     MSVCRT:tncleanup.obj
 0002:00000944       ?ThreadAttach@NativeDll@<CrtImplementationDetails>@@0IB 10010944     MSVCRT:tncleanup.obj
 0002:00000948       ?ThreadDetach@NativeDll@<CrtImplementationDetails>@@0IB 10010948     MSVCRT:tncleanup.obj
 0002:0000094c       ?ProcessVerifier@NativeDll@<CrtImplementationDetails>@@0IB 1001094c     MSVCRT:tncleanup.obj
 0002:00000950       __load_config_used         10010950     MSVCRT:loadcfg.obj
 0002:000009a0       ___safe_se_handler_table   100109a0     <linker-defined>
 0002:000009a4       ___rtc_iaa                 100109a4     MSVCRT:_initsect_.obj
 0002:000009a8       ___rtc_izz                 100109a8     MSVCRT:_initsect_.obj
 0002:000009ac       ___rtc_taa                 100109ac     MSVCRT:_initsect_.obj
 0002:000009b0       ___rtc_tzz                 100109b0     MSVCRT:_initsect_.obj
 0002:00000a1c       __IMPORT_DESCRIPTOR_sf_runtime 10010a1c     sf_runtime:sf_runtime.dll
 0002:00000a30       __IMPORT_DESCRIPTOR_libmx  10010a30     libmx:libmx.dll
 0002:00000a44       __IMPORT_DESCRIPTOR_libmex 10010a44     libmex:libmex.dll
 0002:00000a58       __IMPORT_DESCRIPTOR_libut  10010a58     libut:libut.dll
 0002:00000a6c       __IMPORT_DESCRIPTOR_libmwmathutil 10010a6c     libmwmathutil:libmwmathutil.dll
 0002:00000a80       __IMPORT_DESCRIPTOR_MSVCR100 10010a80     MSVCRT:MSVCR100.dll
 0002:00000a94       __IMPORT_DESCRIPTOR_KERNEL32 10010a94     kernel32:KERNEL32.dll
 0002:00000aa8       __NULL_IMPORT_DESCRIPTOR   10010aa8     sf_runtime:sf_runtime.dll
 0003:00001ba4       _DYNAMIC_DIMENSION         10013ba4     testKinectAllReceiver_sfun_registry.obj
 0003:00002730       ___security_cookie         10014730     MSVCRT:gs_cookie.obj
 0003:00002734       ___security_cookie_complement 10014734     MSVCRT:gs_cookie.obj
 0003:00002740       ___native_dllmain_reason   10014740     MSVCRT:natstart.obj
 0003:00002744       ___native_vcclrit_reason   10014744     MSVCRT:natstart.obj
 0003:00002840       _sfGlobalDebugInstanceStruct 10014840     testKinectAllReceiver_sfun_registry.obj
 0003:00002b74       ?__type_info_root_node@@3U__type_info_node@@A 10014b74     MSVCRT:tncleanup.obj
 0003:00002b7c       __testKinectAllReceiverMachineNumber_ 10014b7c     <common>
 0003:00002b80       ___native_startup_state    10014b80     <common>
 0003:00002b84       ___native_startup_lock     10014b84     <common>
 0003:00002b88       ___onexitend               10014b88     <common>
 0003:00002b8c       ___onexitbegin             10014b8c     <common>
 0003:00002b90       ___sse2_available          10014b90     <common>
 0003:00002b94       ___dyn_tls_init_callback   10014b94     <common>

 entry point at        0001:0000e1df

 Static symbols

 0001:00000ac0       _c1_info_helper            10001ac0 f   c1_testKinectAllReceiver.obj
 0001:00001800       _c1_emlrt_marshallOut      10002800 f   c1_testKinectAllReceiver.obj
 0001:00001860       _c1_b_emlrt_marshallOut    10002860 f   c1_testKinectAllReceiver.obj
 0001:00001f40       _get_sim_state_c1_testKinectAllReceiver 10002f40 f   c1_testKinectAllReceiver.obj
 0001:000020d0       _sf_get_sim_state_info_c1_testKinectAllReceiver 100030d0 f   c1_testKinectAllReceiver.obj
 0001:00002250       _set_sim_state_c1_testKinectAllReceiver 10003250 f   c1_testKinectAllReceiver.obj
 0001:00002370       _c1_update_debugger_state_c1_testKinectAllReceiver 10003370 f   c1_testKinectAllReceiver.obj
 0001:00002380       _c1_c_emlrt_marshallIn     10003380 f   c1_testKinectAllReceiver.obj
 0001:000023d0       _c1_d_emlrt_marshallIn     100033d0 f   c1_testKinectAllReceiver.obj
 0001:00002460       _c1_i_emlrt_marshallIn     10003460 f   c1_testKinectAllReceiver.obj
 0001:000024b0       _c1_j_emlrt_marshallIn     100034b0 f   c1_testKinectAllReceiver.obj
 0001:00002560       _mdlProcessParameters_c1_testKinectAllReceiver 10003560 f   c1_testKinectAllReceiver.obj
 0001:00002610       _initialize_params_c1_testKinectAllReceiver 10003610 f   c1_testKinectAllReceiver.obj
 0001:00002620       _mdlSetWorkWidths_c1_testKinectAllReceiver 10003620 f   c1_testKinectAllReceiver.obj
 0001:000029f0       _sf_get_instance_specialization 100039f0 f   c1_testKinectAllReceiver.obj
 0001:00002a00       _mdlStart_c1_testKinectAllReceiver 10003a00 f   c1_testKinectAllReceiver.obj
 0001:00002ba0       _init_dsm_address_info     10003ba0 f   c1_testKinectAllReceiver.obj
 0001:00002bb0       _chart_debug_initialization 10003bb0 f   c1_testKinectAllReceiver.obj
 0001:00003460       _init_script_number_translation 10004460 f   c1_testKinectAllReceiver.obj
 0001:000034c0       _c1_sf_marshallOut         100044c0 f   c1_testKinectAllReceiver.obj
 0001:000035f0       _c1_sf_marshallIn          100045f0 f   c1_testKinectAllReceiver.obj
 0001:000036c0       _c1_b_sf_marshallOut       100046c0 f   c1_testKinectAllReceiver.obj
 0001:00003740       _sf_opaque_initialize_c1_testKinectAllReceiver 10004740 f   c1_testKinectAllReceiver.obj
 0001:00003770       _initialize_c1_testKinectAllReceiver 10004770 f   c1_testKinectAllReceiver.obj
 0001:000037a0       _sf_opaque_enable_c1_testKinectAllReceiver 100047a0 f   c1_testKinectAllReceiver.obj
 0001:000037c0       _enable_c1_testKinectAllReceiver 100047c0 f   c1_testKinectAllReceiver.obj
 0001:000037e0       _sf_opaque_disable_c1_testKinectAllReceiver 100047e0 f   c1_testKinectAllReceiver.obj
 0001:00003800       _disable_c1_testKinectAllReceiver 10004800 f   c1_testKinectAllReceiver.obj
 0001:00003820       _sf_opaque_gateway_c1_testKinectAllReceiver 10004820 f   c1_testKinectAllReceiver.obj
 0001:00003840       _sf_gateway_c1_testKinectAllReceiver 10004840 f   c1_testKinectAllReceiver.obj
 0001:00004b00       _c1_countDigits            10005b00 f   c1_testKinectAllReceiver.obj
 0001:000054a0       _c1_emlrt_marshallIn       100064a0 f   c1_testKinectAllReceiver.obj
 0001:000054f0       _c1_b_emlrt_marshallIn     100064f0 f   c1_testKinectAllReceiver.obj
 0001:00005610       _c1_b_sf_marshallIn        10006610 f   c1_testKinectAllReceiver.obj
 0001:00005690       _c1_e_emlrt_marshallIn     10006690 f   c1_testKinectAllReceiver.obj
 0001:000056e0       _c1_c_sf_marshallOut       100066e0 f   c1_testKinectAllReceiver.obj
 0001:00005870       _c1_c_sf_marshallIn        10006870 f   c1_testKinectAllReceiver.obj
 0001:00005970       _c1_f_emlrt_marshallIn     10006970 f   c1_testKinectAllReceiver.obj
 0001:00005a90       _c1_d_sf_marshallOut       10006a90 f   c1_testKinectAllReceiver.obj
 0001:00005bf0       _c1_d_sf_marshallIn        10006bf0 f   c1_testKinectAllReceiver.obj
 0001:00005cf0       _c1_g_emlrt_marshallIn     10006cf0 f   c1_testKinectAllReceiver.obj
 0001:00005db0       _sf_opaque_get_sim_state_c1_testKinectAllReceiver 10006db0 f   c1_testKinectAllReceiver.obj
 0001:00005dd0       _sf_opaque_set_sim_state_c1_testKinectAllReceiver 10006dd0 f   c1_testKinectAllReceiver.obj
 0001:00005df0       _sf_opaque_terminate_c1_testKinectAllReceiver 10006df0 f   c1_testKinectAllReceiver.obj
 0001:00005e80       _finalize_c1_testKinectAllReceiver 10006e80 f   c1_testKinectAllReceiver.obj
 0001:00005e90       _sf_opaque_init_subchart_simstructs 10006e90 f   c1_testKinectAllReceiver.obj
 0001:00005eb0       _initSimStructsc1_testKinectAllReceiver 10006eb0 f   c1_testKinectAllReceiver.obj
 0001:00005ec0       _mdlRTW_c1_testKinectAllReceiver 10006ec0 f   c1_testKinectAllReceiver.obj
 0001:00005f50       _c2_info_helper            10006f50 f   c2_testKinectAllReceiver.obj
 0001:00006140       _c2_emlrt_marshallOut      10007140 f   c2_testKinectAllReceiver.obj
 0001:000061a0       _c2_b_emlrt_marshallOut    100071a0 f   c2_testKinectAllReceiver.obj
 0001:00006470       _get_sim_state_c2_testKinectAllReceiver 10007470 f   c2_testKinectAllReceiver.obj
 0001:00006580       _sf_get_sim_state_info_c2_testKinectAllReceiver 10007580 f   c2_testKinectAllReceiver.obj
 0001:00006700       _set_sim_state_c2_testKinectAllReceiver 10007700 f   c2_testKinectAllReceiver.obj
 0001:000067f0       _c2_update_debugger_state_c2_testKinectAllReceiver 100077f0 f   c2_testKinectAllReceiver.obj
 0001:00006980       _c2_d_emlrt_marshallIn     10007980 f   c2_testKinectAllReceiver.obj
 0001:000069d0       _c2_e_emlrt_marshallIn     100079d0 f   c2_testKinectAllReceiver.obj
 0001:00006a20       _c2_g_emlrt_marshallIn     10007a20 f   c2_testKinectAllReceiver.obj
 0001:00006a80       _c2_h_emlrt_marshallIn     10007a80 f   c2_testKinectAllReceiver.obj
 0001:00006b20       _mdlProcessParameters_c2_testKinectAllReceiver 10007b20 f   c2_testKinectAllReceiver.obj
 0001:00006bd0       _initialize_params_c2_testKinectAllReceiver 10007bd0 f   c2_testKinectAllReceiver.obj
 0001:00006be0       _mdlSetWorkWidths_c2_testKinectAllReceiver 10007be0 f   c2_testKinectAllReceiver.obj
 0001:00006ee0       _sf_get_instance_specialization 10007ee0 f   c2_testKinectAllReceiver.obj
 0001:00006ef0       _mdlStart_c2_testKinectAllReceiver 10007ef0 f   c2_testKinectAllReceiver.obj
 0001:00007090       _init_dsm_address_info     10008090 f   c2_testKinectAllReceiver.obj
 0001:000070a0       _chart_debug_initialization 100080a0 f   c2_testKinectAllReceiver.obj
 0001:00007630       _init_script_number_translation 10008630 f   c2_testKinectAllReceiver.obj
 0001:00007670       _c2_g_sf_marshallOut       10008670 f   c2_testKinectAllReceiver.obj
 0001:000077a0       _c2_e_sf_marshallIn        100087a0 f   c2_testKinectAllReceiver.obj
 0001:00007870       _c2_f_emlrt_marshallIn     10008870 f   c2_testKinectAllReceiver.obj
 0001:00007900       _sf_opaque_initialize_c2_testKinectAllReceiver 10008900 f   c2_testKinectAllReceiver.obj
 0001:00007930       _initialize_c2_testKinectAllReceiver 10008930 f   c2_testKinectAllReceiver.obj
 0001:00007990       _sf_opaque_enable_c2_testKinectAllReceiver 10008990 f   c2_testKinectAllReceiver.obj
 0001:000079b0       _enable_c2_testKinectAllReceiver 100089b0 f   c2_testKinectAllReceiver.obj
 0001:00007a00       _sf_opaque_disable_c2_testKinectAllReceiver 10008a00 f   c2_testKinectAllReceiver.obj
 0001:00007a20       _disable_c2_testKinectAllReceiver 10008a20 f   c2_testKinectAllReceiver.obj
 0001:00007a70       _sf_opaque_gateway_c2_testKinectAllReceiver 10008a70 f   c2_testKinectAllReceiver.obj
 0001:00007a90       _sf_gateway_c2_testKinectAllReceiver 10008a90 f   c2_testKinectAllReceiver.obj
 0001:00008770       _c2_set_sim_state_side_effects_c2_testKinectAllReceiver 10009770 f   c2_testKinectAllReceiver.obj
 0001:000087c0       _c2_sf_marshallOut         100097c0 f   c2_testKinectAllReceiver.obj
 0001:00008840       _c2_sf_marshallIn          10009840 f   c2_testKinectAllReceiver.obj
 0001:000088c0       _c2_emlrt_marshallIn       100098c0 f   c2_testKinectAllReceiver.obj
 0001:00008910       _c2_b_sf_marshallOut       10009910 f   c2_testKinectAllReceiver.obj
 0001:00008a30       _c2_b_sf_marshallIn        10009a30 f   c2_testKinectAllReceiver.obj
 0001:00008b00       _c2_b_emlrt_marshallIn     10009b00 f   c2_testKinectAllReceiver.obj
 0001:00008b90       _c2_c_sf_marshallOut       10009b90 f   c2_testKinectAllReceiver.obj
 0001:00008c70       _c2_d_sf_marshallOut       10009c70 f   c2_testKinectAllReceiver.obj
 0001:00008d80       _sf_opaque_get_sim_state_c2_testKinectAllReceiver 10009d80 f   c2_testKinectAllReceiver.obj
 0001:00008da0       _sf_opaque_set_sim_state_c2_testKinectAllReceiver 10009da0 f   c2_testKinectAllReceiver.obj
 0001:00008dc0       _sf_opaque_terminate_c2_testKinectAllReceiver 10009dc0 f   c2_testKinectAllReceiver.obj
 0001:00008e50       _finalize_c2_testKinectAllReceiver 10009e50 f   c2_testKinectAllReceiver.obj
 0001:00008e70       _sf_opaque_init_subchart_simstructs 10009e70 f   c2_testKinectAllReceiver.obj
 0001:00008e90       _initSimStructsc2_testKinectAllReceiver 10009e90 f   c2_testKinectAllReceiver.obj
 0001:00008ea0       _mdlRTW_c2_testKinectAllReceiver 10009ea0 f   c2_testKinectAllReceiver.obj
 0001:000095e0       _getChartInfoFromSimStruct 1000a5e0 f   testKinectAllReceiver_sfun_registry.obj
 0001:0000a6e0       __ssFatalError             1000b6e0 f   testKinectAllReceiver_sfun_registry.obj
 0001:0000ca40       _ProcessMexSfunctionCmdLineCall 1000da40 f   testKinectAllReceiver_sfun_registry.obj
 0001:0000cb60       _sf_debug_api_wrapper      1000db60 f   testKinectAllReceiver_sfun_registry.obj
 0001:0000cb90       _mdlStart                  1000db90 f   testKinectAllReceiver_sfun_registry.obj
 0001:0000cbb0       _mdl_start_processing      1000dbb0 f   testKinectAllReceiver_sfun_registry.obj
 0001:0000cc20       _mdlTerminate              1000dc20 f   testKinectAllReceiver_sfun_registry.obj
 0001:0000cc40       _mdl_terminate_processing  1000dc40 f   testKinectAllReceiver_sfun_registry.obj
 0001:0000ccb0       _mdlInitializeSampleTimes  1000dcb0 f   testKinectAllReceiver_sfun_registry.obj
 0001:0000ccd0       _mdlZeroCrossings          1000dcd0 f   testKinectAllReceiver_sfun_registry.obj
 0001:0000ccf0       _mdl_zeroCrossings_processing 1000dcf0 f   testKinectAllReceiver_sfun_registry.obj
 0001:0000cd20       _mdlDerivatives            1000dd20 f   testKinectAllReceiver_sfun_registry.obj
 0001:0000cd40       _mdl_derivatives_processing 1000dd40 f   testKinectAllReceiver_sfun_registry.obj
 0001:0000cd80       _mdlInitializeConditions   1000dd80 f   testKinectAllReceiver_sfun_registry.obj
 0001:0000cda0       _mdl_initialize_conditions_processing 1000dda0 f   testKinectAllReceiver_sfun_registry.obj
 0001:0000cde0       _mdlEnable                 1000dde0 f   testKinectAllReceiver_sfun_registry.obj
 0001:0000ce00       _mdl_enable_processing     1000de00 f   testKinectAllReceiver_sfun_registry.obj
 0001:0000ce30       _mdlDisable                1000de30 f   testKinectAllReceiver_sfun_registry.obj
 0001:0000ce50       _mdl_disable_processing    1000de50 f   testKinectAllReceiver_sfun_registry.obj
 0001:0000ce80       _mdlOutputs                1000de80 f   testKinectAllReceiver_sfun_registry.obj
 0001:0000cea0       _mdl_outputs_processing    1000dea0 f   testKinectAllReceiver_sfun_registry.obj
 0001:0000cf70       _mdl_outputs_continuous_legacy 1000df70 f   testKinectAllReceiver_sfun_registry.obj
 0001:0000d040       _mdlGetTimeOfNextVarHit    1000e040 f   testKinectAllReceiver_sfun_registry.obj
 0001:0000d080       __ProcessMexSfunctionCmdLineCall 1000e080 f   testKinectAllReceiver_sfun_registry.obj
 0001:0000d6a0       _mdlSetWorkWidths          1000e6a0 f   testKinectAllReceiver_sfun_registry.obj
 0001:0000d6c0       _mdlProcessParameters      1000e6c0 f   testKinectAllReceiver_sfun_registry.obj
 0001:0000d6e0       _mdlInitializeSizes        1000e6e0 f   testKinectAllReceiver_sfun_registry.obj
 0001:0000d700       _mdlExtModeExec            1000e700 f   testKinectAllReceiver_sfun_registry.obj
 0001:0000d720       _mdl_ext_mode_exec_processing 1000e720 f   testKinectAllReceiver_sfun_registry.obj
 0001:0000d760       _mdlRTW                    1000e760 f   testKinectAllReceiver_sfun_registry.obj
 0001:0000d790       __CreateSimStruct          1000e790 f   testKinectAllReceiver_sfun_registry.obj
 0001:0000d8c0       __RegNumInputPortsCB       1000e8c0 f   testKinectAllReceiver_sfun_registry.obj
 0001:0000d920       __RegNumOutputPortsCB      1000e920 f   testKinectAllReceiver_sfun_registry.obj
 0001:0000de71       _pre_c_init                1000ee71 f   MSVCRT:crtdll.obj
 0001:0000e0c9       ___DllMainCRTStartup       1000f0c9 f   MSVCRT:crtdll.obj
